
disass/init_test_2:	file format ELF32-riscv

Disassembly of section .text:
_start:
   10094:	97 41 01 00 	auipc	gp, 20
   10098:	93 81 c1 82 	addi	gp, gp, -2004
   1009c:	13 85 c1 1c 	addi	a0, gp, 460
   100a0:	13 86 c1 22 	addi	a2, gp, 556
   100a4:	33 06 a6 40 	sub	a2, a2, a0
   100a8:	93 05 00 00 	mv	a1, zero
   100ac:	ef 10 80 6c 	jal	5832
   100b0:	17 15 00 00 	auipc	a0, 1
   100b4:	13 05 05 f5 	addi	a0, a0, -176
   100b8:	ef 00 50 70 	jal	3844
   100bc:	ef 00 10 7a 	jal	4000
   100c0:	03 25 01 00 	lw	a0, 0(sp)
   100c4:	93 05 41 00 	addi	a1, sp, 4
   100c8:	13 06 00 00 	mv	a2, zero
   100cc:	ef 00 00 0f 	jal	240
   100d0:	6f 00 10 70 	j	3840

_init:
   100d4:	67 80 00 00 	ret

deregister_tm_clones:
   100d8:	13 87 c1 19 	addi	a4, gp, 412
   100dc:	93 87 c1 19 	addi	a5, gp, 412
   100e0:	63 8c e7 00 	beq	a5, a4, 24
   100e4:	37 03 00 00 	lui	t1, 0
   100e8:	13 03 03 00 	mv	t1, t1
   100ec:	63 06 03 00 	beqz	t1, 12
   100f0:	13 85 c1 19 	addi	a0, gp, 412
   100f4:	67 00 03 00 	jr	t1
   100f8:	67 80 00 00 	ret

register_tm_clones:
   100fc:	93 85 c1 19 	addi	a1, gp, 412
   10100:	93 87 c1 19 	addi	a5, gp, 412
   10104:	b3 85 f5 40 	sub	a1, a1, a5
   10108:	93 d5 25 40 	srai	a1, a1, 2
   1010c:	93 d7 f5 01 	srli	a5, a1, 31
   10110:	b3 85 b7 00 	add	a1, a5, a1
   10114:	93 d5 15 40 	srai	a1, a1, 1
   10118:	63 8c 05 00 	beqz	a1, 24
   1011c:	37 03 00 00 	lui	t1, 0
   10120:	13 03 03 00 	mv	t1, t1
   10124:	63 06 03 00 	beqz	t1, 12
   10128:	13 85 c1 19 	addi	a0, gp, 412
   1012c:	67 00 03 00 	jr	t1
   10130:	67 80 00 00 	ret

__do_global_dtors_aux:
   10134:	03 c7 01 1e 	lbu	a4, 480(gp)
   10138:	63 16 07 04 	bnez	a4, 76
   1013c:	13 01 01 ff 	addi	sp, sp, -16
   10140:	23 24 81 00 	sw	s0, 8(sp)
   10144:	23 26 11 00 	sw	ra, 12(sp)
   10148:	13 84 07 00 	mv	s0, a5
   1014c:	ef f0 df f8 	jal	-116
   10150:	b7 07 00 00 	lui	a5, 0
   10154:	93 87 07 00 	mv	a5, a5
   10158:	63 8a 07 00 	beqz	a5, 20
   1015c:	37 35 02 00 	lui	a0, 35
   10160:	13 05 05 00 	mv	a0, a0
   10164:	97 00 00 00 	auipc	ra, 0
   10168:	e7 00 00 00 	jalr	zero
   1016c:	93 07 10 00 	addi	a5, zero, 1
   10170:	23 80 f1 1e 	sb	a5, 480(gp)
   10174:	83 20 c1 00 	lw	ra, 12(sp)
   10178:	03 24 81 00 	lw	s0, 8(sp)
   1017c:	13 01 01 01 	addi	sp, sp, 16
   10180:	67 80 00 00 	ret
   10184:	67 80 00 00 	ret

frame_dummy:
   10188:	b7 07 00 00 	lui	a5, 0
   1018c:	93 87 07 00 	mv	a5, a5
   10190:	63 84 07 02 	beqz	a5, 40
   10194:	37 35 02 00 	lui	a0, 35
   10198:	13 01 01 ff 	addi	sp, sp, -16
   1019c:	93 85 41 1e 	addi	a1, gp, 484
   101a0:	13 05 05 00 	mv	a0, a0
   101a4:	23 26 11 00 	sw	ra, 12(sp)
   101a8:	97 00 00 00 	auipc	ra, 0
   101ac:	e7 00 00 00 	jalr	zero
   101b0:	83 20 c1 00 	lw	ra, 12(sp)
   101b4:	13 01 01 01 	addi	sp, sp, 16
   101b8:	6f f0 5f f4 	j	-188

main:
   101bc:	13 01 01 fd 	addi	sp, sp, -48
   101c0:	23 26 11 02 	sw	ra, 44(sp)
   101c4:	23 24 81 02 	sw	s0, 40(sp)
   101c8:	13 04 01 03 	addi	s0, sp, 48
   101cc:	13 86 05 00 	mv	a2, a1
   101d0:	93 06 05 00 	mv	a3, a0
   101d4:	13 07 00 00 	mv	a4, zero
   101d8:	23 2a e4 fe 	sw	a4, -12(s0)
   101dc:	23 28 a4 fe 	sw	a0, -16(s0)
   101e0:	23 26 b4 fe 	sw	a1, -20(s0)
   101e4:	23 24 e4 fe 	sw	a4, -24(s0)
   101e8:	37 25 02 00 	lui	a0, 34
   101ec:	13 05 05 df 	addi	a0, a0, -528
   101f0:	23 22 d4 fe 	sw	a3, -28(s0)
   101f4:	23 20 c4 fe 	sw	a2, -32(s0)
   101f8:	97 10 00 00 	auipc	ra, 1
   101fc:	e7 80 00 6a 	jalr	ra, ra, 1696
   10200:	23 2e a4 fc 	sw	a0, -36(s0)
   10204:	97 00 00 00 	auipc	ra, 0
   10208:	e7 80 40 15 	jalr	ra, ra, 340
   1020c:	23 24 a4 fe 	sw	a0, -24(s0)
   10210:	37 25 02 00 	lui	a0, 34
   10214:	13 05 c5 e0 	addi	a0, a0, -500
   10218:	97 10 00 00 	auipc	ra, 1
   1021c:	e7 80 00 68 	jalr	ra, ra, 1664
   10220:	83 25 84 fe 	lw	a1, -24(s0)
   10224:	23 2c a4 fc 	sw	a0, -40(s0)
   10228:	13 85 05 00 	mv	a0, a1
   1022c:	03 24 81 02 	lw	s0, 40(sp)
   10230:	83 20 c1 02 	lw	ra, 44(sp)
   10234:	13 01 01 03 	addi	sp, sp, 48
   10238:	67 80 00 00 	ret

xbrtime_close:
   1023c:	13 01 01 ff 	addi	sp, sp, -16
   10240:	23 26 11 00 	sw	ra, 12(sp)
   10244:	23 24 81 00 	sw	s0, 8(sp)
   10248:	13 04 01 01 	addi	s0, sp, 16
   1024c:	13 05 00 00 	mv	a0, zero
   10250:	23 2a a4 fe 	sw	a0, -12(s0)
   10254:	b7 45 02 00 	lui	a1, 36
   10258:	83 a5 45 ae 	lw	a1, -1308(a1)
   1025c:	63 86 a5 0e 	beq	a1, a0, 236
   10260:	6f 00 40 00 	j	4
   10264:	97 10 00 00 	auipc	ra, 1
   10268:	e7 80 80 b3 	jalr	ra, ra, -1224
   1026c:	13 05 00 00 	mv	a0, zero
   10270:	23 2a a4 fe 	sw	a0, -12(s0)
   10274:	6f 00 40 00 	j	4
   10278:	03 25 44 ff 	lw	a0, -12(s0)
   1027c:	93 05 f0 7f 	addi	a1, zero, 2047
   10280:	63 c6 a5 06 	blt	a1, a0, 108
   10284:	6f 00 40 00 	j	4
   10288:	37 45 02 00 	lui	a0, 36
   1028c:	03 25 45 ae 	lw	a0, -1308(a0)
   10290:	03 25 05 03 	lw	a0, 48(a0)
   10294:	83 25 44 ff 	lw	a1, -12(s0)
   10298:	93 95 45 00 	slli	a1, a1, 4
   1029c:	33 05 b5 00 	add	a0, a0, a1
   102a0:	03 25 85 00 	lw	a0, 8(a0)
   102a4:	93 05 00 00 	mv	a1, zero
   102a8:	63 08 b5 02 	beq	a0, a1, 48
   102ac:	6f 00 40 00 	j	4
   102b0:	37 45 02 00 	lui	a0, 36
   102b4:	03 25 45 ae 	lw	a0, -1308(a0)
   102b8:	03 25 05 03 	lw	a0, 48(a0)
   102bc:	83 25 44 ff 	lw	a1, -12(s0)
   102c0:	93 95 45 00 	slli	a1, a1, 4
   102c4:	33 05 b5 00 	add	a0, a0, a1
   102c8:	03 25 05 00 	lw	a0, 0(a0)
   102cc:	97 10 00 00 	auipc	ra, 1
   102d0:	e7 80 c0 a1 	jalr	ra, ra, -1508
   102d4:	6f 00 40 00 	j	4
   102d8:	6f 00 40 00 	j	4
   102dc:	03 25 44 ff 	lw	a0, -12(s0)
   102e0:	13 05 15 00 	addi	a0, a0, 1
   102e4:	23 2a a4 fe 	sw	a0, -12(s0)
   102e8:	6f f0 1f f9 	j	-112
   102ec:	37 45 02 00 	lui	a0, 36
   102f0:	03 25 45 ae 	lw	a0, -1308(a0)
   102f4:	03 25 45 03 	lw	a0, 52(a0)
   102f8:	93 05 00 00 	mv	a1, zero
   102fc:	63 0c b5 02 	beq	a0, a1, 56
   10300:	6f 00 40 00 	j	4
   10304:	37 45 02 00 	lui	a0, 36
   10308:	83 25 45 ae 	lw	a1, -1308(a0)
   1030c:	83 a5 45 03 	lw	a1, 52(a1)
   10310:	23 28 a4 fe 	sw	a0, -16(s0)
   10314:	13 85 05 00 	mv	a0, a1
   10318:	97 10 00 00 	auipc	ra, 1
   1031c:	e7 80 80 df 	jalr	ra, ra, -520
   10320:	03 25 04 ff 	lw	a0, -16(s0)
   10324:	83 25 45 ae 	lw	a1, -1308(a0)
   10328:	13 06 00 00 	mv	a2, zero
   1032c:	23 aa c5 02 	sw	a2, 52(a1)
   10330:	6f 00 40 00 	j	4
   10334:	37 45 02 00 	lui	a0, 36
   10338:	03 25 45 ae 	lw	a0, -1308(a0)
   1033c:	97 10 00 00 	auipc	ra, 1
   10340:	e7 80 40 dd 	jalr	ra, ra, -556
   10344:	6f 00 40 00 	j	4
   10348:	03 24 81 00 	lw	s0, 8(sp)
   1034c:	83 20 c1 00 	lw	ra, 12(sp)
   10350:	13 01 01 01 	addi	sp, sp, 16
   10354:	67 80 00 00 	ret

xbrtime_init:
   10358:	13 01 01 fe 	addi	sp, sp, -32
   1035c:	23 2e 11 00 	sw	ra, 28(sp)
   10360:	23 2c 81 00 	sw	s0, 24(sp)
   10364:	13 04 01 02 	addi	s0, sp, 32
   10368:	13 05 00 00 	mv	a0, zero
   1036c:	23 28 a4 fe 	sw	a0, -16(s0)
   10370:	b7 45 02 00 	lui	a1, 36
   10374:	23 a2 a5 ae 	sw	a0, -1308(a1)
   10378:	13 06 80 03 	addi	a2, zero, 56
   1037c:	23 26 a4 fe 	sw	a0, -20(s0)
   10380:	13 05 06 00 	mv	a0, a2
   10384:	23 24 b4 fe 	sw	a1, -24(s0)
   10388:	97 10 00 00 	auipc	ra, 1
   1038c:	e7 80 c0 d7 	jalr	ra, ra, -644
   10390:	83 25 84 fe 	lw	a1, -24(s0)
   10394:	23 a2 a5 ae 	sw	a0, -1308(a1)
   10398:	03 a5 45 ae 	lw	a0, -1308(a1)
   1039c:	03 26 c4 fe 	lw	a2, -20(s0)
   103a0:	63 1a c5 00 	bne	a0, a2, 20
   103a4:	6f 00 40 00 	j	4
   103a8:	13 05 f0 ff 	addi	a0, zero, -1
   103ac:	23 2a a4 fe 	sw	a0, -12(s0)
   103b0:	6f 00 c0 27 	j	636
   103b4:	37 85 00 00 	lui	a0, 8
   103b8:	97 10 00 00 	auipc	ra, 1
   103bc:	e7 80 c0 d4 	jalr	ra, ra, -692
   103c0:	b7 45 02 00 	lui	a1, 36
   103c4:	03 a6 45 ae 	lw	a2, -1308(a1)
   103c8:	23 28 a6 02 	sw	a0, 48(a2)
   103cc:	23 22 b4 fe 	sw	a1, -28(s0)
   103d0:	97 10 00 00 	auipc	ra, 1
   103d4:	e7 80 c0 9a 	jalr	ra, ra, -1620
   103d8:	83 25 44 fe 	lw	a1, -28(s0)
   103dc:	03 a6 45 ae 	lw	a2, -1308(a1)
   103e0:	23 22 a6 00 	sw	a0, 4(a2)
   103e4:	97 10 00 00 	auipc	ra, 1
   103e8:	e7 80 80 9a 	jalr	ra, ra, -1624
   103ec:	83 25 44 fe 	lw	a1, -28(s0)
   103f0:	03 a6 45 ae 	lw	a2, -1308(a1)
   103f4:	23 20 a6 00 	sw	a0, 0(a2)
   103f8:	97 10 00 00 	auipc	ra, 1
   103fc:	e7 80 c0 98 	jalr	ra, ra, -1652
   10400:	83 25 44 fe 	lw	a1, -28(s0)
   10404:	03 a6 45 ae 	lw	a2, -1308(a1)
   10408:	23 24 a6 00 	sw	a0, 8(a2)
   1040c:	97 10 00 00 	auipc	ra, 1
   10410:	e7 80 80 98 	jalr	ra, ra, -1656
   10414:	03 26 44 fe 	lw	a2, -28(s0)
   10418:	83 26 46 ae 	lw	a3, -1308(a2)
   1041c:	23 aa b6 00 	sw	a1, 20(a3)
   10420:	23 a8 a6 00 	sw	a0, 16(a3)
   10424:	03 25 46 ae 	lw	a0, -1308(a2)
   10428:	93 05 00 00 	mv	a1, zero
   1042c:	23 2e b5 00 	sw	a1, 28(a0)
   10430:	93 06 10 00 	addi	a3, zero, 1
   10434:	23 2c d5 00 	sw	a3, 24(a0)
   10438:	03 25 46 ae 	lw	a0, -1308(a2)
   1043c:	83 26 45 02 	lw	a3, 36(a0)
   10440:	03 25 05 02 	lw	a0, 32(a0)
   10444:	13 45 15 00 	xori	a0, a0, 1
   10448:	33 65 d5 00 	or	a0, a0, a3
   1044c:	63 02 b5 02 	beq	a0, a1, 36
   10450:	6f 00 40 00 	j	4
   10454:	37 45 02 00 	lui	a0, 36
   10458:	03 25 45 ae 	lw	a0, -1308(a0)
   1045c:	93 05 f0 00 	addi	a1, zero, 15
   10460:	23 22 b5 02 	sw	a1, 36(a0)
   10464:	93 05 f0 ff 	addi	a1, zero, -1
   10468:	23 20 b5 02 	sw	a1, 32(a0)
   1046c:	6f 00 40 00 	j	4
   10470:	37 45 02 00 	lui	a0, 36
   10474:	03 25 45 ae 	lw	a0, -1308(a0)
   10478:	83 25 c5 02 	lw	a1, 44(a0)
   1047c:	03 25 85 02 	lw	a0, 40(a0)
   10480:	13 45 25 00 	xori	a0, a0, 2
   10484:	33 65 b5 00 	or	a0, a0, a1
   10488:	93 05 00 00 	mv	a1, zero
   1048c:	63 04 b5 02 	beq	a0, a1, 40
   10490:	6f 00 40 00 	j	4
   10494:	37 45 02 00 	lui	a0, 36
   10498:	03 25 45 ae 	lw	a0, -1308(a0)
   1049c:	93 05 a0 00 	addi	a1, zero, 10
   104a0:	23 26 b5 02 	sw	a1, 44(a0)
   104a4:	b7 b5 aa aa 	lui	a1, 699051
   104a8:	93 85 a5 aa 	addi	a1, a1, -1366
   104ac:	23 24 b5 02 	sw	a1, 40(a0)
   104b0:	6f 00 40 00 	j	4
   104b4:	37 45 02 00 	lui	a0, 36
   104b8:	03 25 45 ae 	lw	a0, -1308(a0)
   104bc:	03 25 85 00 	lw	a0, 8(a0)
   104c0:	93 05 10 40 	addi	a1, zero, 1025
   104c4:	63 42 b5 02 	blt	a0, a1, 36
   104c8:	6f 00 40 00 	j	4
   104cc:	37 45 02 00 	lui	a0, 36
   104d0:	03 25 45 ae 	lw	a0, -1308(a0)
   104d4:	97 10 00 00 	auipc	ra, 1
   104d8:	e7 80 c0 c3 	jalr	ra, ra, -964
   104dc:	13 05 f0 ff 	addi	a0, zero, -1
   104e0:	23 2a a4 fe 	sw	a0, -12(s0)
   104e4:	6f 00 80 14 	j	328
   104e8:	37 45 02 00 	lui	a0, 36
   104ec:	83 25 45 ae 	lw	a1, -1308(a0)
   104f0:	83 a5 85 00 	lw	a1, 8(a1)
   104f4:	93 95 45 00 	slli	a1, a1, 4
   104f8:	23 20 a4 fe 	sw	a0, -32(s0)
   104fc:	13 85 05 00 	mv	a0, a1
   10500:	97 10 00 00 	auipc	ra, 1
   10504:	e7 80 40 c0 	jalr	ra, ra, -1020
   10508:	83 25 04 fe 	lw	a1, -32(s0)
   1050c:	03 a6 45 ae 	lw	a2, -1308(a1)
   10510:	23 2a a6 02 	sw	a0, 52(a2)
   10514:	03 a5 45 ae 	lw	a0, -1308(a1)
   10518:	03 25 45 03 	lw	a0, 52(a0)
   1051c:	13 06 00 00 	mv	a2, zero
   10520:	63 12 c5 02 	bne	a0, a2, 36
   10524:	6f 00 40 00 	j	4
   10528:	37 45 02 00 	lui	a0, 36
   1052c:	03 25 45 ae 	lw	a0, -1308(a0)
   10530:	97 10 00 00 	auipc	ra, 1
   10534:	e7 80 00 be 	jalr	ra, ra, -1056
   10538:	13 05 f0 ff 	addi	a0, zero, -1
   1053c:	23 2a a4 fe 	sw	a0, -12(s0)
   10540:	6f 00 c0 0e 	j	236
   10544:	13 05 00 00 	mv	a0, zero
   10548:	23 28 a4 fe 	sw	a0, -16(s0)
   1054c:	6f 00 40 00 	j	4
   10550:	03 25 04 ff 	lw	a0, -16(s0)
   10554:	93 05 f0 7f 	addi	a1, zero, 2047
   10558:	63 cc a5 04 	blt	a1, a0, 88
   1055c:	6f 00 40 00 	j	4
   10560:	37 45 02 00 	lui	a0, 36
   10564:	83 25 45 ae 	lw	a1, -1308(a0)
   10568:	83 a5 05 03 	lw	a1, 48(a1)
   1056c:	03 26 04 ff 	lw	a2, -16(s0)
   10570:	13 16 46 00 	slli	a2, a2, 4
   10574:	b3 85 c5 00 	add	a1, a1, a2
   10578:	13 06 00 00 	mv	a2, zero
   1057c:	23 a2 c5 00 	sw	a2, 4(a1)
   10580:	23 a0 c5 00 	sw	a2, 0(a1)
   10584:	03 25 45 ae 	lw	a0, -1308(a0)
   10588:	03 25 05 03 	lw	a0, 48(a0)
   1058c:	83 25 04 ff 	lw	a1, -16(s0)
   10590:	93 95 45 00 	slli	a1, a1, 4
   10594:	33 05 b5 00 	add	a0, a0, a1
   10598:	23 24 c5 00 	sw	a2, 8(a0)
   1059c:	6f 00 40 00 	j	4
   105a0:	03 25 04 ff 	lw	a0, -16(s0)
   105a4:	13 05 15 00 	addi	a0, a0, 1
   105a8:	23 28 a4 fe 	sw	a0, -16(s0)
   105ac:	6f f0 5f fa 	j	-92
   105b0:	13 05 00 00 	mv	a0, zero
   105b4:	23 28 a4 fe 	sw	a0, -16(s0)
   105b8:	6f 00 40 00 	j	4
   105bc:	03 25 04 ff 	lw	a0, -16(s0)
   105c0:	b7 45 02 00 	lui	a1, 36
   105c4:	83 a5 45 ae 	lw	a1, -1308(a1)
   105c8:	83 a5 85 00 	lw	a1, 8(a1)
   105cc:	63 5a b5 04 	bge	a0, a1, 84
   105d0:	6f 00 40 00 	j	4
   105d4:	03 25 04 ff 	lw	a0, -16(s0)
   105d8:	b7 45 02 00 	lui	a1, 36
   105dc:	03 a6 45 ae 	lw	a2, -1308(a1)
   105e0:	03 26 46 03 	lw	a2, 52(a2)
   105e4:	93 16 45 00 	slli	a3, a0, 4
   105e8:	33 06 d6 00 	add	a2, a2, a3
   105ec:	23 20 a6 00 	sw	a0, 0(a2)
   105f0:	03 25 04 ff 	lw	a0, -16(s0)
   105f4:	13 06 15 00 	addi	a2, a0, 1
   105f8:	83 a5 45 ae 	lw	a1, -1308(a1)
   105fc:	83 a5 45 03 	lw	a1, 52(a1)
   10600:	13 15 45 00 	slli	a0, a0, 4
   10604:	33 85 a5 00 	add	a0, a1, a0
   10608:	23 22 c5 00 	sw	a2, 4(a0)
   1060c:	6f 00 40 00 	j	4
   10610:	03 25 04 ff 	lw	a0, -16(s0)
   10614:	13 05 15 00 	addi	a0, a0, 1
   10618:	23 28 a4 fe 	sw	a0, -16(s0)
   1061c:	6f f0 1f fa 	j	-96
   10620:	13 05 00 00 	mv	a0, zero
   10624:	23 2a a4 fe 	sw	a0, -12(s0)
   10628:	6f 00 40 00 	j	4
   1062c:	03 25 44 ff 	lw	a0, -12(s0)
   10630:	03 24 81 01 	lw	s0, 24(sp)
   10634:	83 20 c1 01 	lw	ra, 28(sp)
   10638:	13 01 01 02 	addi	sp, sp, 32
   1063c:	67 80 00 00 	ret

xbrtime_mype:
   10640:	13 01 01 ff 	addi	sp, sp, -16
   10644:	23 26 11 00 	sw	ra, 12(sp)
   10648:	23 24 81 00 	sw	s0, 8(sp)
   1064c:	13 04 01 01 	addi	s0, sp, 16
   10650:	37 45 02 00 	lui	a0, 36
   10654:	03 25 45 ae 	lw	a0, -1308(a0)
   10658:	93 05 00 00 	mv	a1, zero
   1065c:	63 1a b5 00 	bne	a0, a1, 20
   10660:	6f 00 40 00 	j	4
   10664:	13 05 f0 ff 	addi	a0, zero, -1
   10668:	23 2a a4 fe 	sw	a0, -12(s0)
   1066c:	6f 00 80 01 	j	24
   10670:	37 45 02 00 	lui	a0, 36
   10674:	03 25 45 ae 	lw	a0, -1308(a0)
   10678:	03 25 45 00 	lw	a0, 4(a0)
   1067c:	23 2a a4 fe 	sw	a0, -12(s0)
   10680:	6f 00 40 00 	j	4
   10684:	03 25 44 ff 	lw	a0, -12(s0)
   10688:	03 24 81 00 	lw	s0, 8(sp)
   1068c:	83 20 c1 00 	lw	ra, 12(sp)
   10690:	13 01 01 01 	addi	sp, sp, 16
   10694:	67 80 00 00 	ret

xbrtime_num_pes:
   10698:	13 01 01 ff 	addi	sp, sp, -16
   1069c:	23 26 11 00 	sw	ra, 12(sp)
   106a0:	23 24 81 00 	sw	s0, 8(sp)
   106a4:	13 04 01 01 	addi	s0, sp, 16
   106a8:	37 45 02 00 	lui	a0, 36
   106ac:	03 25 45 ae 	lw	a0, -1308(a0)
   106b0:	93 05 00 00 	mv	a1, zero
   106b4:	63 1a b5 00 	bne	a0, a1, 20
   106b8:	6f 00 40 00 	j	4
   106bc:	13 05 f0 ff 	addi	a0, zero, -1
   106c0:	23 2a a4 fe 	sw	a0, -12(s0)
   106c4:	6f 00 80 01 	j	24
   106c8:	37 45 02 00 	lui	a0, 36
   106cc:	03 25 45 ae 	lw	a0, -1308(a0)
   106d0:	03 25 85 00 	lw	a0, 8(a0)
   106d4:	23 2a a4 fe 	sw	a0, -12(s0)
   106d8:	6f 00 40 00 	j	4
   106dc:	03 25 44 ff 	lw	a0, -12(s0)
   106e0:	03 24 81 00 	lw	s0, 8(sp)
   106e4:	83 20 c1 00 	lw	ra, 12(sp)
   106e8:	13 01 01 01 	addi	sp, sp, 16
   106ec:	67 80 00 00 	ret

__xbrtime_ltor:
   106f0:	13 01 01 fa 	addi	sp, sp, -96
   106f4:	23 2e 11 04 	sw	ra, 92(sp)
   106f8:	23 2c 81 04 	sw	s0, 88(sp)
   106fc:	13 04 01 06 	addi	s0, sp, 96
   10700:	93 86 05 00 	mv	a3, a1
   10704:	13 07 05 00 	mv	a4, a0
   10708:	93 07 06 00 	mv	a5, a2
   1070c:	23 26 b4 fe 	sw	a1, -20(s0)
   10710:	23 24 a4 fe 	sw	a0, -24(s0)
   10714:	23 22 c4 fe 	sw	a2, -28(s0)
   10718:	13 05 00 00 	mv	a0, zero
   1071c:	23 20 a4 fe 	sw	a0, -32(s0)
   10720:	23 2e a4 fc 	sw	a0, -36(s0)
   10724:	23 2c a4 fc 	sw	a0, -40(s0)
   10728:	23 2a a4 fc 	sw	a0, -44(s0)
   1072c:	23 28 a4 fc 	sw	a0, -48(s0)
   10730:	23 26 a4 fc 	sw	a0, -52(s0)
   10734:	23 24 a4 fc 	sw	a0, -56(s0)
   10738:	23 22 d4 fc 	sw	a3, -60(s0)
   1073c:	23 20 f4 fc 	sw	a5, -64(s0)
   10740:	23 2e e4 fa 	sw	a4, -68(s0)
   10744:	97 00 00 00 	auipc	ra, 0
   10748:	e7 80 c0 ef 	jalr	ra, ra, -260
   1074c:	83 25 44 fe 	lw	a1, -28(s0)
   10750:	63 1e b5 00 	bne	a0, a1, 28
   10754:	6f 00 40 00 	j	4
   10758:	03 25 84 fe 	lw	a0, -24(s0)
   1075c:	83 25 c4 fe 	lw	a1, -20(s0)
   10760:	23 2a b4 fe 	sw	a1, -12(s0)
   10764:	23 28 a4 fe 	sw	a0, -16(s0)
   10768:	6f 00 00 1d 	j	464
   1076c:	13 05 00 00 	mv	a0, zero
   10770:	23 20 a4 fe 	sw	a0, -32(s0)
   10774:	6f 00 40 00 	j	4
   10778:	03 25 04 fe 	lw	a0, -32(s0)
   1077c:	93 05 f0 7f 	addi	a1, zero, 2047
   10780:	63 c2 a5 1a 	blt	a1, a0, 420
   10784:	6f 00 40 00 	j	4
   10788:	03 25 84 fe 	lw	a0, -24(s0)
   1078c:	83 25 c4 fe 	lw	a1, -20(s0)
   10790:	37 46 02 00 	lui	a2, 36
   10794:	03 26 46 ae 	lw	a2, -1308(a2)
   10798:	03 26 06 03 	lw	a2, 48(a2)
   1079c:	83 26 04 fe 	lw	a3, -32(s0)
   107a0:	93 96 46 00 	slli	a3, a3, 4
   107a4:	33 06 d6 00 	add	a2, a2, a3
   107a8:	83 26 06 00 	lw	a3, 0(a2)
   107ac:	03 26 46 00 	lw	a2, 4(a2)
   107b0:	33 b7 c5 00 	sltu	a4, a1, a2
   107b4:	33 35 d5 00 	sltu	a0, a0, a3
   107b8:	23 2c e4 fa 	sw	a4, -72(s0)
   107bc:	23 2a a4 fa 	sw	a0, -76(s0)
   107c0:	63 86 c5 00 	beq	a1, a2, 12
   107c4:	03 25 84 fb 	lw	a0, -72(s0)
   107c8:	23 2a a4 fa 	sw	a0, -76(s0)
   107cc:	03 25 44 fb 	lw	a0, -76(s0)
   107d0:	63 10 05 14 	bnez	a0, 320
   107d4:	6f 00 40 00 	j	4
   107d8:	03 25 c4 fe 	lw	a0, -20(s0)
   107dc:	83 25 84 fe 	lw	a1, -24(s0)
   107e0:	37 46 02 00 	lui	a2, 36
   107e4:	03 26 46 ae 	lw	a2, -1308(a2)
   107e8:	03 26 06 03 	lw	a2, 48(a2)
   107ec:	83 26 04 fe 	lw	a3, -32(s0)
   107f0:	93 96 46 00 	slli	a3, a3, 4
   107f4:	33 06 d6 00 	add	a2, a2, a3
   107f8:	83 26 46 00 	lw	a3, 4(a2)
   107fc:	03 27 06 00 	lw	a4, 0(a2)
   10800:	03 26 86 00 	lw	a2, 8(a2)
   10804:	33 06 c7 00 	add	a2, a4, a2
   10808:	33 37 e6 00 	sltu	a4, a2, a4
   1080c:	b3 86 e6 00 	add	a3, a3, a4
   10810:	b3 b5 c5 00 	sltu	a1, a1, a2
   10814:	93 c5 15 00 	xori	a1, a1, 1
   10818:	33 36 d5 00 	sltu	a2, a0, a3
   1081c:	13 46 16 00 	xori	a2, a2, 1
   10820:	23 28 b4 fa 	sw	a1, -80(s0)
   10824:	23 26 c4 fa 	sw	a2, -84(s0)
   10828:	63 06 d5 00 	beq	a0, a3, 12
   1082c:	03 25 c4 fa 	lw	a0, -84(s0)
   10830:	23 28 a4 fa 	sw	a0, -80(s0)
   10834:	03 25 04 fb 	lw	a0, -80(s0)
   10838:	63 1c 05 0c 	bnez	a0, 216
   1083c:	6f 00 40 00 	j	4
   10840:	37 45 02 00 	lui	a0, 36
   10844:	83 25 45 ae 	lw	a1, -1308(a0)
   10848:	83 a5 05 03 	lw	a1, 48(a1)
   1084c:	03 26 04 fe 	lw	a2, -32(s0)
   10850:	13 16 46 00 	slli	a2, a2, 4
   10854:	b3 85 c5 00 	add	a1, a1, a2
   10858:	13 06 00 00 	mv	a2, zero
   1085c:	23 2e c4 fc 	sw	a2, -36(s0)
   10860:	23 2c b4 fc 	sw	a1, -40(s0)
   10864:	83 25 c4 fe 	lw	a1, -20(s0)
   10868:	03 26 84 fe 	lw	a2, -24(s0)
   1086c:	03 25 45 ae 	lw	a0, -1308(a0)
   10870:	03 25 05 03 	lw	a0, 48(a0)
   10874:	83 26 04 fe 	lw	a3, -32(s0)
   10878:	93 96 46 00 	slli	a3, a3, 4
   1087c:	33 05 d5 00 	add	a0, a0, a3
   10880:	83 26 45 00 	lw	a3, 4(a0)
   10884:	03 25 05 00 	lw	a0, 0(a0)
   10888:	33 37 a6 00 	sltu	a4, a2, a0
   1088c:	b3 85 d5 40 	sub	a1, a1, a3
   10890:	b3 85 e5 40 	sub	a1, a1, a4
   10894:	33 05 a6 40 	sub	a0, a2, a0
   10898:	23 28 a4 fc 	sw	a0, -48(s0)
   1089c:	23 2a b4 fc 	sw	a1, -44(s0)
   108a0:	83 25 c4 fd 	lw	a1, -36(s0)
   108a4:	03 25 84 fd 	lw	a0, -40(s0)
   108a8:	03 26 44 fe 	lw	a2, -28(s0)
   108ac:	23 24 a4 fa 	sw	a0, -88(s0)
   108b0:	13 05 06 00 	mv	a0, a2
   108b4:	23 22 b4 fa 	sw	a1, -92(s0)
   108b8:	97 00 00 00 	auipc	ra, 0
   108bc:	e7 80 c0 61 	jalr	ra, ra, 1564
   108c0:	83 25 84 fa 	lw	a1, -88(s0)
   108c4:	23 20 a4 fa 	sw	a0, -96(s0)
   108c8:	13 85 05 00 	mv	a0, a1
   108cc:	83 25 44 fa 	lw	a1, -92(s0)
   108d0:	03 26 04 fa 	lw	a2, -96(s0)
   108d4:	97 00 00 00 	auipc	ra, 0
   108d8:	e7 80 80 4d 	jalr	ra, ra, 1240
   108dc:	03 26 44 fd 	lw	a2, -44(s0)
   108e0:	83 26 04 fd 	lw	a3, -48(s0)
   108e4:	b3 06 d5 00 	add	a3, a0, a3
   108e8:	33 b5 a6 00 	sltu	a0, a3, a0
   108ec:	b3 85 c5 00 	add	a1, a1, a2
   108f0:	33 85 a5 00 	add	a0, a1, a0
   108f4:	23 24 d4 fc 	sw	a3, -56(s0)
   108f8:	23 26 a4 fc 	sw	a0, -52(s0)
   108fc:	03 25 84 fc 	lw	a0, -56(s0)
   10900:	83 25 c4 fc 	lw	a1, -52(s0)
   10904:	23 2a b4 fe 	sw	a1, -12(s0)
   10908:	23 28 a4 fe 	sw	a0, -16(s0)
   1090c:	6f 00 c0 02 	j	44
   10910:	6f 00 40 00 	j	4
   10914:	03 25 04 fe 	lw	a0, -32(s0)
   10918:	13 05 15 00 	addi	a0, a0, 1
   1091c:	23 20 a4 fe 	sw	a0, -32(s0)
   10920:	6f f0 9f e5 	j	-424
   10924:	6f 00 40 00 	j	4
   10928:	13 05 00 00 	mv	a0, zero
   1092c:	23 2a a4 fe 	sw	a0, -12(s0)
   10930:	23 28 a4 fe 	sw	a0, -16(s0)
   10934:	6f 00 40 00 	j	4
   10938:	03 25 04 ff 	lw	a0, -16(s0)
   1093c:	83 25 44 ff 	lw	a1, -12(s0)
   10940:	03 24 81 05 	lw	s0, 88(sp)
   10944:	83 20 c1 05 	lw	ra, 92(sp)
   10948:	13 01 01 06 	addi	sp, sp, 96
   1094c:	67 80 00 00 	ret

__xbrtime_shared_malloc:
   10950:	13 01 01 fd 	addi	sp, sp, -48
   10954:	23 26 11 02 	sw	ra, 44(sp)
   10958:	23 24 81 02 	sw	s0, 40(sp)
   1095c:	13 04 01 03 	addi	s0, sp, 48
   10960:	93 05 05 00 	mv	a1, a0
   10964:	23 28 a4 fe 	sw	a0, -16(s0)
   10968:	13 05 00 00 	mv	a0, zero
   1096c:	23 26 a4 fe 	sw	a0, -20(s0)
   10970:	13 06 f0 ff 	addi	a2, zero, -1
   10974:	23 24 c4 fe 	sw	a2, -24(s0)
   10978:	23 22 a4 fe 	sw	a0, -28(s0)
   1097c:	23 20 a4 fe 	sw	a0, -32(s0)
   10980:	23 2e b4 fc 	sw	a1, -36(s0)
   10984:	6f 00 40 00 	j	4
   10988:	03 25 84 fe 	lw	a0, -24(s0)
   1098c:	93 05 00 00 	mv	a1, zero
   10990:	13 06 f0 ff 	addi	a2, zero, -1
   10994:	23 2c b4 fc 	sw	a1, -40(s0)
   10998:	63 10 c5 02 	bne	a0, a2, 32
   1099c:	6f 00 40 00 	j	4
   109a0:	03 25 04 fe 	lw	a0, -32(s0)
   109a4:	93 05 10 00 	addi	a1, zero, 1
   109a8:	33 45 b5 00 	xor	a0, a0, a1
   109ac:	33 35 a0 00 	snez	a0, a0
   109b0:	23 2c a4 fc 	sw	a0, -40(s0)
   109b4:	6f 00 40 00 	j	4
   109b8:	03 25 84 fd 	lw	a0, -40(s0)
   109bc:	13 75 15 00 	andi	a0, a0, 1
   109c0:	93 05 00 00 	mv	a1, zero
   109c4:	63 0a b5 06 	beq	a0, a1, 116
   109c8:	6f 00 40 00 	j	4
   109cc:	37 45 02 00 	lui	a0, 36
   109d0:	03 25 45 ae 	lw	a0, -1308(a0)
   109d4:	03 25 05 03 	lw	a0, 48(a0)
   109d8:	83 25 44 fe 	lw	a1, -28(s0)
   109dc:	93 95 45 00 	slli	a1, a1, 4
   109e0:	33 05 b5 00 	add	a0, a0, a1
   109e4:	03 25 85 00 	lw	a0, 8(a0)
   109e8:	93 05 00 00 	mv	a1, zero
   109ec:	63 1e b5 00 	bne	a0, a1, 28
   109f0:	6f 00 40 00 	j	4
   109f4:	03 25 44 fe 	lw	a0, -28(s0)
   109f8:	23 24 a4 fe 	sw	a0, -24(s0)
   109fc:	13 05 10 00 	addi	a0, zero, 1
   10a00:	23 20 a4 fe 	sw	a0, -32(s0)
   10a04:	6f 00 40 00 	j	4
   10a08:	03 25 44 fe 	lw	a0, -28(s0)
   10a0c:	13 05 15 00 	addi	a0, a0, 1
   10a10:	23 22 a4 fe 	sw	a0, -28(s0)
   10a14:	03 25 44 fe 	lw	a0, -28(s0)
   10a18:	b7 15 00 00 	lui	a1, 1
   10a1c:	93 85 05 80 	addi	a1, a1, -2048
   10a20:	63 1a b5 00 	bne	a0, a1, 20
   10a24:	6f 00 40 00 	j	4
   10a28:	13 05 10 00 	addi	a0, zero, 1
   10a2c:	23 20 a4 fe 	sw	a0, -32(s0)
   10a30:	6f 00 40 00 	j	4
   10a34:	6f f0 5f f5 	j	-172
   10a38:	03 25 84 fe 	lw	a0, -24(s0)
   10a3c:	93 05 f0 ff 	addi	a1, zero, -1
   10a40:	63 1a b5 00 	bne	a0, a1, 20
   10a44:	6f 00 40 00 	j	4
   10a48:	13 05 00 00 	mv	a0, zero
   10a4c:	23 2a a4 fe 	sw	a0, -12(s0)
   10a50:	6f 00 00 08 	j	128
   10a54:	03 25 04 ff 	lw	a0, -16(s0)
   10a58:	97 00 00 00 	auipc	ra, 0
   10a5c:	e7 80 c0 6a 	jalr	ra, ra, 1708
   10a60:	23 26 a4 fe 	sw	a0, -20(s0)
   10a64:	03 25 c4 fe 	lw	a0, -20(s0)
   10a68:	93 05 00 00 	mv	a1, zero
   10a6c:	63 1a b5 00 	bne	a0, a1, 20
   10a70:	6f 00 40 00 	j	4
   10a74:	13 05 00 00 	mv	a0, zero
   10a78:	23 2a a4 fe 	sw	a0, -12(s0)
   10a7c:	6f 00 40 05 	j	84
   10a80:	03 25 04 ff 	lw	a0, -16(s0)
   10a84:	b7 45 02 00 	lui	a1, 36
   10a88:	03 a6 45 ae 	lw	a2, -1308(a1)
   10a8c:	03 26 06 03 	lw	a2, 48(a2)
   10a90:	83 26 84 fe 	lw	a3, -24(s0)
   10a94:	93 96 46 00 	slli	a3, a3, 4
   10a98:	33 06 d6 00 	add	a2, a2, a3
   10a9c:	23 24 a6 00 	sw	a0, 8(a2)
   10aa0:	03 25 c4 fe 	lw	a0, -20(s0)
   10aa4:	83 a5 45 ae 	lw	a1, -1308(a1)
   10aa8:	83 a5 05 03 	lw	a1, 48(a1)
   10aac:	03 26 84 fe 	lw	a2, -24(s0)
   10ab0:	13 16 46 00 	slli	a2, a2, 4
   10ab4:	b3 85 c5 00 	add	a1, a1, a2
   10ab8:	13 06 00 00 	mv	a2, zero
   10abc:	23 a2 c5 00 	sw	a2, 4(a1)
   10ac0:	23 a0 a5 00 	sw	a0, 0(a1)
   10ac4:	03 25 c4 fe 	lw	a0, -20(s0)
   10ac8:	23 2a a4 fe 	sw	a0, -12(s0)
   10acc:	6f 00 40 00 	j	4
   10ad0:	03 25 44 ff 	lw	a0, -12(s0)
   10ad4:	03 24 81 02 	lw	s0, 40(sp)
   10ad8:	83 20 c1 02 	lw	ra, 44(sp)
   10adc:	13 01 01 03 	addi	sp, sp, 48
   10ae0:	67 80 00 00 	ret

__xbrtime_shared_free:
   10ae4:	13 01 01 fd 	addi	sp, sp, -48
   10ae8:	23 26 11 02 	sw	ra, 44(sp)
   10aec:	23 24 81 02 	sw	s0, 40(sp)
   10af0:	13 04 01 03 	addi	s0, sp, 48
   10af4:	93 05 05 00 	mv	a1, a0
   10af8:	23 2a a4 fe 	sw	a0, -12(s0)
   10afc:	03 25 44 ff 	lw	a0, -12(s0)
   10b00:	13 06 00 00 	mv	a2, zero
   10b04:	23 26 c4 fe 	sw	a2, -20(s0)
   10b08:	23 24 a4 fe 	sw	a0, -24(s0)
   10b0c:	23 22 c4 fe 	sw	a2, -28(s0)
   10b10:	23 20 b4 fe 	sw	a1, -32(s0)
   10b14:	6f 00 40 00 	j	4
   10b18:	03 25 44 fe 	lw	a0, -28(s0)
   10b1c:	93 05 f0 7f 	addi	a1, zero, 2047
   10b20:	63 c0 a5 12 	blt	a1, a0, 288
   10b24:	6f 00 40 00 	j	4
   10b28:	03 25 84 fe 	lw	a0, -24(s0)
   10b2c:	83 25 c4 fe 	lw	a1, -20(s0)
   10b30:	37 46 02 00 	lui	a2, 36
   10b34:	03 26 46 ae 	lw	a2, -1308(a2)
   10b38:	03 26 06 03 	lw	a2, 48(a2)
   10b3c:	83 26 44 fe 	lw	a3, -28(s0)
   10b40:	93 96 46 00 	slli	a3, a3, 4
   10b44:	33 06 d6 00 	add	a2, a2, a3
   10b48:	83 26 06 00 	lw	a3, 0(a2)
   10b4c:	03 26 46 00 	lw	a2, 4(a2)
   10b50:	33 b7 c5 00 	sltu	a4, a1, a2
   10b54:	33 35 d5 00 	sltu	a0, a0, a3
   10b58:	23 2e e4 fc 	sw	a4, -36(s0)
   10b5c:	23 2c a4 fc 	sw	a0, -40(s0)
   10b60:	63 86 c5 00 	beq	a1, a2, 12
   10b64:	03 25 c4 fd 	lw	a0, -36(s0)
   10b68:	23 2c a4 fc 	sw	a0, -40(s0)
   10b6c:	03 25 84 fd 	lw	a0, -40(s0)
   10b70:	63 1e 05 0a 	bnez	a0, 188
   10b74:	6f 00 40 00 	j	4
   10b78:	03 25 c4 fe 	lw	a0, -20(s0)
   10b7c:	83 25 84 fe 	lw	a1, -24(s0)
   10b80:	37 46 02 00 	lui	a2, 36
   10b84:	03 26 46 ae 	lw	a2, -1308(a2)
   10b88:	03 26 06 03 	lw	a2, 48(a2)
   10b8c:	83 26 44 fe 	lw	a3, -28(s0)
   10b90:	93 96 46 00 	slli	a3, a3, 4
   10b94:	33 06 d6 00 	add	a2, a2, a3
   10b98:	83 26 46 00 	lw	a3, 4(a2)
   10b9c:	03 27 06 00 	lw	a4, 0(a2)
   10ba0:	03 26 86 00 	lw	a2, 8(a2)
   10ba4:	33 06 c7 00 	add	a2, a4, a2
   10ba8:	33 37 e6 00 	sltu	a4, a2, a4
   10bac:	b3 86 e6 00 	add	a3, a3, a4
   10bb0:	b3 b5 c5 00 	sltu	a1, a1, a2
   10bb4:	93 c5 15 00 	xori	a1, a1, 1
   10bb8:	33 36 d5 00 	sltu	a2, a0, a3
   10bbc:	13 46 16 00 	xori	a2, a2, 1
   10bc0:	23 2a b4 fc 	sw	a1, -44(s0)
   10bc4:	23 28 c4 fc 	sw	a2, -48(s0)
   10bc8:	63 06 d5 00 	beq	a0, a3, 12
   10bcc:	03 25 04 fd 	lw	a0, -48(s0)
   10bd0:	23 2a a4 fc 	sw	a0, -44(s0)
   10bd4:	03 25 44 fd 	lw	a0, -44(s0)
   10bd8:	63 1a 05 04 	bnez	a0, 84
   10bdc:	6f 00 40 00 	j	4
   10be0:	03 25 44 ff 	lw	a0, -12(s0)
   10be4:	97 00 00 00 	auipc	ra, 0
   10be8:	e7 80 c0 52 	jalr	ra, ra, 1324
   10bec:	37 45 02 00 	lui	a0, 36
   10bf0:	83 25 45 ae 	lw	a1, -1308(a0)
   10bf4:	83 a5 05 03 	lw	a1, 48(a1)
   10bf8:	03 26 44 fe 	lw	a2, -28(s0)
   10bfc:	13 16 46 00 	slli	a2, a2, 4
   10c00:	b3 85 c5 00 	add	a1, a1, a2
   10c04:	13 06 00 00 	mv	a2, zero
   10c08:	23 a2 c5 00 	sw	a2, 4(a1)
   10c0c:	23 a0 c5 00 	sw	a2, 0(a1)
   10c10:	03 25 45 ae 	lw	a0, -1308(a0)
   10c14:	03 25 05 03 	lw	a0, 48(a0)
   10c18:	83 25 44 fe 	lw	a1, -28(s0)
   10c1c:	93 95 45 00 	slli	a1, a1, 4
   10c20:	33 05 b5 00 	add	a0, a0, a1
   10c24:	23 24 c5 00 	sw	a2, 8(a0)
   10c28:	6f 00 80 01 	j	24
   10c2c:	6f 00 40 00 	j	4
   10c30:	03 25 44 fe 	lw	a0, -28(s0)
   10c34:	13 05 15 00 	addi	a0, a0, 1
   10c38:	23 22 a4 fe 	sw	a0, -28(s0)
   10c3c:	6f f0 df ed 	j	-292
   10c40:	03 24 81 02 	lw	s0, 40(sp)
   10c44:	83 20 c1 02 	lw	ra, 44(sp)
   10c48:	13 01 01 03 	addi	sp, sp, 48
   10c4c:	67 80 00 00 	ret

xbrtime_malloc:
   10c50:	13 01 01 fe 	addi	sp, sp, -32
   10c54:	23 2e 11 00 	sw	ra, 28(sp)
   10c58:	23 2c 81 00 	sw	s0, 24(sp)
   10c5c:	13 04 01 02 	addi	s0, sp, 32
   10c60:	93 05 05 00 	mv	a1, a0
   10c64:	23 28 a4 fe 	sw	a0, -16(s0)
   10c68:	13 05 00 00 	mv	a0, zero
   10c6c:	23 26 a4 fe 	sw	a0, -20(s0)
   10c70:	03 26 04 ff 	lw	a2, -16(s0)
   10c74:	23 24 b4 fe 	sw	a1, -24(s0)
   10c78:	63 1a a6 00 	bne	a2, a0, 20
   10c7c:	6f 00 40 00 	j	4
   10c80:	13 05 00 00 	mv	a0, zero
   10c84:	23 2a a4 fe 	sw	a0, -12(s0)
   10c88:	6f 00 c0 04 	j	76
   10c8c:	37 45 02 00 	lui	a0, 36
   10c90:	03 25 45 ae 	lw	a0, -1308(a0)
   10c94:	93 05 00 00 	mv	a1, zero
   10c98:	63 1a b5 00 	bne	a0, a1, 20
   10c9c:	6f 00 40 00 	j	4
   10ca0:	13 05 00 00 	mv	a0, zero
   10ca4:	23 2a a4 fe 	sw	a0, -12(s0)
   10ca8:	6f 00 c0 02 	j	44
   10cac:	6f 00 40 00 	j	4
   10cb0:	03 25 04 ff 	lw	a0, -16(s0)
   10cb4:	97 00 00 00 	auipc	ra, 0
   10cb8:	e7 80 c0 c9 	jalr	ra, ra, -868
   10cbc:	23 26 a4 fe 	sw	a0, -20(s0)
   10cc0:	97 00 00 00 	auipc	ra, 0
   10cc4:	e7 80 40 0e 	jalr	ra, ra, 228
   10cc8:	03 25 c4 fe 	lw	a0, -20(s0)
   10ccc:	23 2a a4 fe 	sw	a0, -12(s0)
   10cd0:	6f 00 40 00 	j	4
   10cd4:	03 25 44 ff 	lw	a0, -12(s0)
   10cd8:	03 24 81 01 	lw	s0, 24(sp)
   10cdc:	83 20 c1 01 	lw	ra, 28(sp)
   10ce0:	13 01 01 02 	addi	sp, sp, 32
   10ce4:	67 80 00 00 	ret

xbrtime_free:
   10ce8:	13 01 01 ff 	addi	sp, sp, -16
   10cec:	23 26 11 00 	sw	ra, 12(sp)
   10cf0:	23 24 81 00 	sw	s0, 8(sp)
   10cf4:	13 04 01 01 	addi	s0, sp, 16
   10cf8:	93 05 05 00 	mv	a1, a0
   10cfc:	23 2a a4 fe 	sw	a0, -12(s0)
   10d00:	03 25 44 ff 	lw	a0, -12(s0)
   10d04:	13 06 00 00 	mv	a2, zero
   10d08:	23 28 b4 fe 	sw	a1, -16(s0)
   10d0c:	63 16 c5 00 	bne	a0, a2, 12
   10d10:	6f 00 40 00 	j	4
   10d14:	6f 00 80 05 	j	88
   10d18:	37 45 02 00 	lui	a0, 36
   10d1c:	03 25 45 ae 	lw	a0, -1308(a0)
   10d20:	93 05 00 00 	mv	a1, zero
   10d24:	63 16 b5 00 	bne	a0, a1, 12
   10d28:	6f 00 40 00 	j	4
   10d2c:	6f 00 00 04 	j	64
   10d30:	37 45 02 00 	lui	a0, 36
   10d34:	03 25 45 ae 	lw	a0, -1308(a0)
   10d38:	03 25 05 03 	lw	a0, 48(a0)
   10d3c:	93 05 00 00 	mv	a1, zero
   10d40:	63 16 b5 00 	bne	a0, a1, 12
   10d44:	6f 00 40 00 	j	4
   10d48:	6f 00 40 02 	j	36
   10d4c:	6f 00 40 00 	j	4
   10d50:	6f 00 40 00 	j	4
   10d54:	03 25 44 ff 	lw	a0, -12(s0)
   10d58:	97 00 00 00 	auipc	ra, 0
   10d5c:	e7 80 c0 d8 	jalr	ra, ra, -628
   10d60:	97 00 00 00 	auipc	ra, 0
   10d64:	e7 80 40 04 	jalr	ra, ra, 68
   10d68:	6f 00 40 00 	j	4
   10d6c:	03 24 81 00 	lw	s0, 8(sp)
   10d70:	83 20 c1 00 	lw	ra, 12(sp)
   10d74:	13 01 01 01 	addi	sp, sp, 16
   10d78:	67 80 00 00 	ret

__xbrtime_asm_get_id:
   10d7c:	13 70 10 00 	andi	zero, zero, 1
   10d80:	67 80 00 00 	ret

__xbrtime_asm_get_npes:
   10d84:	13 70 10 00 	andi	zero, zero, 1
   10d88:	67 80 00 00 	ret

__xbrtime_asm_get_memsize:
   10d8c:	13 70 10 00 	andi	zero, zero, 1
   10d90:	67 80 00 00 	ret

__xbrtime_asm_get_startaddr:
   10d94:	13 70 10 00 	andi	zero, zero, 1
   10d98:	67 80 00 00 	ret

__xbrtime_asm_fence:
   10d9c:	0f 10 00 00 	fence.i	
   10da0:	67 80 00 00 	ret

__xbrtime_asm_quiet_fence:
   10da4:	0f 00 f0 0f 	fence
   10da8:	67 80 00 00 	ret

__xbrtime_get_remote_alloc:
   10dac:	13 70 00 00 	andi	zero, zero, 0
   10db0:	13 00 00 00 	nop
   10db4:	67 80 00 00 	ret

__xbrtime_remote_touch:
   10db8:	13 70 00 00 	andi	zero, zero, 0
   10dbc:	13 00 00 00 	nop
   10dc0:	67 80 00 00 	ret

xbrtime_addr_accessible:
   10dc4:	13 01 01 fd 	addi	sp, sp, -48
   10dc8:	23 26 11 02 	sw	ra, 44(sp)
   10dcc:	23 24 81 02 	sw	s0, 40(sp)
   10dd0:	13 04 01 03 	addi	s0, sp, 48
   10dd4:	13 86 05 00 	mv	a2, a1
   10dd8:	93 06 05 00 	mv	a3, a0
   10ddc:	23 28 a4 fe 	sw	a0, -16(s0)
   10de0:	23 26 b4 fe 	sw	a1, -20(s0)
   10de4:	03 25 c4 fe 	lw	a0, -20(s0)
   10de8:	b7 45 02 00 	lui	a1, 36
   10dec:	83 a5 45 ae 	lw	a1, -1308(a1)
   10df0:	83 a5 85 00 	lw	a1, 8(a1)
   10df4:	93 85 f5 ff 	addi	a1, a1, -1
   10df8:	23 24 c4 fe 	sw	a2, -24(s0)
   10dfc:	23 22 d4 fe 	sw	a3, -28(s0)
   10e00:	63 da a5 00 	bge	a1, a0, 20
   10e04:	6f 00 40 00 	j	4
   10e08:	13 05 00 00 	mv	a0, zero
   10e0c:	23 2a a4 fe 	sw	a0, -12(s0)
   10e10:	6f 00 00 0b 	j	176
   10e14:	03 25 04 ff 	lw	a0, -16(s0)
   10e18:	b7 45 02 00 	lui	a1, 36
   10e1c:	83 a5 45 ae 	lw	a1, -1308(a1)
   10e20:	03 a6 45 01 	lw	a2, 20(a1)
   10e24:	83 a6 05 01 	lw	a3, 16(a1)
   10e28:	83 a5 05 00 	lw	a1, 0(a1)
   10e2c:	b3 85 b6 00 	add	a1, a3, a1
   10e30:	b3 b6 d5 00 	sltu	a3, a1, a3
   10e34:	33 06 d6 00 	add	a2, a2, a3
   10e38:	33 b5 a5 00 	sltu	a0, a1, a0
   10e3c:	93 05 00 00 	mv	a1, zero
   10e40:	23 20 a4 fe 	sw	a0, -32(s0)
   10e44:	23 2e b4 fc 	sw	a1, -36(s0)
   10e48:	63 06 b6 00 	beq	a2, a1, 12
   10e4c:	03 25 c4 fd 	lw	a0, -36(s0)
   10e50:	23 20 a4 fe 	sw	a0, -32(s0)
   10e54:	03 25 04 fe 	lw	a0, -32(s0)
   10e58:	63 18 05 04 	bnez	a0, 80
   10e5c:	6f 00 40 00 	j	4
   10e60:	03 25 04 ff 	lw	a0, -16(s0)
   10e64:	b7 45 02 00 	lui	a1, 36
   10e68:	83 a5 45 ae 	lw	a1, -1308(a1)
   10e6c:	03 a6 05 01 	lw	a2, 16(a1)
   10e70:	83 a5 45 01 	lw	a1, 20(a1)
   10e74:	93 06 00 00 	mv	a3, zero
   10e78:	33 c7 d5 00 	xor	a4, a1, a3
   10e7c:	13 37 17 00 	seqz	a4, a4
   10e80:	33 35 c5 00 	sltu	a0, a0, a2
   10e84:	13 45 15 00 	xori	a0, a0, 1
   10e88:	23 2c e4 fc 	sw	a4, -40(s0)
   10e8c:	23 2a a4 fc 	sw	a0, -44(s0)
   10e90:	63 86 d5 00 	beq	a1, a3, 12
   10e94:	03 25 84 fd 	lw	a0, -40(s0)
   10e98:	23 2a a4 fc 	sw	a0, -44(s0)
   10e9c:	03 25 44 fd 	lw	a0, -44(s0)
   10ea0:	63 1a 05 00 	bnez	a0, 20
   10ea4:	6f 00 40 00 	j	4
   10ea8:	13 05 00 00 	mv	a0, zero
   10eac:	23 2a a4 fe 	sw	a0, -12(s0)
   10eb0:	6f 00 00 01 	j	16
   10eb4:	13 05 10 00 	addi	a0, zero, 1
   10eb8:	23 2a a4 fe 	sw	a0, -12(s0)
   10ebc:	6f 00 40 00 	j	4
   10ec0:	03 25 44 ff 	lw	a0, -12(s0)
   10ec4:	03 24 81 02 	lw	s0, 40(sp)
   10ec8:	83 20 c1 02 	lw	ra, 44(sp)
   10ecc:	13 01 01 03 	addi	sp, sp, 48
   10ed0:	67 80 00 00 	ret

xbrtime_decode_pe:
   10ed4:	13 01 01 fe 	addi	sp, sp, -32
   10ed8:	23 2e 11 00 	sw	ra, 28(sp)
   10edc:	23 2c 81 00 	sw	s0, 24(sp)
   10ee0:	13 04 01 02 	addi	s0, sp, 32
   10ee4:	93 05 05 00 	mv	a1, a0
   10ee8:	23 28 a4 fe 	sw	a0, -16(s0)
   10eec:	13 05 00 00 	mv	a0, zero
   10ef0:	23 26 a4 fe 	sw	a0, -20(s0)
   10ef4:	23 24 a4 fe 	sw	a0, -24(s0)
   10ef8:	37 46 02 00 	lui	a2, 36
   10efc:	03 26 46 ae 	lw	a2, -1308(a2)
   10f00:	23 22 b4 fe 	sw	a1, -28(s0)
   10f04:	63 1a a6 00 	bne	a2, a0, 20
   10f08:	6f 00 40 00 	j	4
   10f0c:	03 25 c4 fe 	lw	a0, -20(s0)
   10f10:	23 2a a4 fe 	sw	a0, -12(s0)
   10f14:	6f 00 40 09 	j	148
   10f18:	13 05 00 00 	mv	a0, zero
   10f1c:	23 24 a4 fe 	sw	a0, -24(s0)
   10f20:	6f 00 40 00 	j	4
   10f24:	03 25 84 fe 	lw	a0, -24(s0)
   10f28:	b7 45 02 00 	lui	a1, 36
   10f2c:	83 a5 45 ae 	lw	a1, -1308(a1)
   10f30:	83 a5 85 00 	lw	a1, 8(a1)
   10f34:	63 54 b5 06 	bge	a0, a1, 104
   10f38:	6f 00 40 00 	j	4
   10f3c:	37 45 02 00 	lui	a0, 36
   10f40:	03 25 45 ae 	lw	a0, -1308(a0)
   10f44:	03 25 45 03 	lw	a0, 52(a0)
   10f48:	83 25 84 fe 	lw	a1, -24(s0)
   10f4c:	93 95 45 00 	slli	a1, a1, 4
   10f50:	33 05 b5 00 	add	a0, a0, a1
   10f54:	03 25 05 00 	lw	a0, 0(a0)
   10f58:	83 25 04 ff 	lw	a1, -16(s0)
   10f5c:	63 16 b5 02 	bne	a0, a1, 44
   10f60:	6f 00 40 00 	j	4
   10f64:	37 45 02 00 	lui	a0, 36
   10f68:	03 25 45 ae 	lw	a0, -1308(a0)
   10f6c:	03 25 45 03 	lw	a0, 52(a0)
   10f70:	83 25 84 fe 	lw	a1, -24(s0)
   10f74:	93 95 45 00 	slli	a1, a1, 4
   10f78:	33 05 b5 00 	add	a0, a0, a1
   10f7c:	03 25 45 00 	lw	a0, 4(a0)
   10f80:	23 2a a4 fe 	sw	a0, -12(s0)
   10f84:	6f 00 40 02 	j	36
   10f88:	6f 00 40 00 	j	4
   10f8c:	03 25 84 fe 	lw	a0, -24(s0)
   10f90:	13 05 15 00 	addi	a0, a0, 1
   10f94:	23 24 a4 fe 	sw	a0, -24(s0)
   10f98:	6f f0 df f8 	j	-116
   10f9c:	03 25 c4 fe 	lw	a0, -20(s0)
   10fa0:	23 2a a4 fe 	sw	a0, -12(s0)
   10fa4:	6f 00 40 00 	j	4
   10fa8:	03 25 44 ff 	lw	a0, -12(s0)
   10fac:	03 24 81 01 	lw	s0, 24(sp)
   10fb0:	83 20 c1 01 	lw	ra, 28(sp)
   10fb4:	13 01 01 02 	addi	sp, sp, 32
   10fb8:	67 80 00 00 	ret

atexit:
   10fbc:	93 05 05 00 	mv	a1, a0
   10fc0:	93 06 00 00 	mv	a3, zero
   10fc4:	13 06 00 00 	mv	a2, zero
   10fc8:	13 05 00 00 	mv	a0, zero
   10fcc:	6f 20 90 31 	j	11032

exit:
   10fd0:	13 01 01 ff 	addi	sp, sp, -16
   10fd4:	93 05 00 00 	mv	a1, zero
   10fd8:	23 24 81 00 	sw	s0, 8(sp)
   10fdc:	23 26 11 00 	sw	ra, 12(sp)
   10fe0:	13 04 05 00 	mv	s0, a0
   10fe4:	ef 20 d0 37 	jal	11132
   10fe8:	03 a5 81 1b 	lw	a0, 440(gp)
   10fec:	83 27 c5 03 	lw	a5, 60(a0)
   10ff0:	63 84 07 00 	beqz	a5, 8
   10ff4:	e7 80 07 00 	jalr	a5
   10ff8:	13 05 04 00 	mv	a0, s0
   10ffc:	ef b0 10 44 	jal	48192

__libc_fini_array:
   11000:	13 01 01 ff 	addi	sp, sp, -16
   11004:	b7 37 02 00 	lui	a5, 35
   11008:	23 24 81 00 	sw	s0, 8(sp)
   1100c:	37 34 02 00 	lui	s0, 35
   11010:	13 87 87 0b 	addi	a4, a5, 184
   11014:	13 04 c4 0b 	addi	s0, s0, 188
   11018:	33 04 e4 40 	sub	s0, s0, a4
   1101c:	23 22 91 00 	sw	s1, 4(sp)
   11020:	23 26 11 00 	sw	ra, 12(sp)
   11024:	13 54 24 40 	srai	s0, s0, 2
   11028:	93 84 87 0b 	addi	s1, a5, 184
   1102c:	63 1c 04 00 	bnez	s0, 24
   11030:	03 24 81 00 	lw	s0, 8(sp)
   11034:	83 20 c1 00 	lw	ra, 12(sp)
   11038:	83 24 41 00 	lw	s1, 4(sp)
   1103c:	13 01 01 01 	addi	sp, sp, 16
   11040:	6f f0 4f 89 	j	-3948
   11044:	13 04 f4 ff 	addi	s0, s0, -1
   11048:	93 17 24 00 	slli	a5, s0, 2
   1104c:	b3 87 f4 00 	add	a5, s1, a5
   11050:	83 a7 07 00 	lw	a5, 0(a5)
   11054:	e7 80 07 00 	jalr	a5
   11058:	6f f0 5f fd 	j	-44

__libc_init_array:
   1105c:	13 01 01 ff 	addi	sp, sp, -16
   11060:	b7 37 02 00 	lui	a5, 35
   11064:	23 24 81 00 	sw	s0, 8(sp)
   11068:	37 34 02 00 	lui	s0, 35
   1106c:	13 87 47 0b 	addi	a4, a5, 180
   11070:	13 04 44 0b 	addi	s0, s0, 180
   11074:	33 04 e4 40 	sub	s0, s0, a4
   11078:	23 22 91 00 	sw	s1, 4(sp)
   1107c:	23 20 21 01 	sw	s2, 0(sp)
   11080:	23 26 11 00 	sw	ra, 12(sp)
   11084:	13 54 24 40 	srai	s0, s0, 2
   11088:	93 04 00 00 	mv	s1, zero
   1108c:	13 89 47 0b 	addi	s2, a5, 180
   11090:	63 92 84 04 	bne	s1, s0, 68
   11094:	ef f0 0f 84 	jal	-4032
   11098:	b7 37 02 00 	lui	a5, 35
   1109c:	37 34 02 00 	lui	s0, 35
   110a0:	13 87 47 0b 	addi	a4, a5, 180
   110a4:	13 04 84 0b 	addi	s0, s0, 184
   110a8:	33 04 e4 40 	sub	s0, s0, a4
   110ac:	13 54 24 40 	srai	s0, s0, 2
   110b0:	93 04 00 00 	mv	s1, zero
   110b4:	13 89 47 0b 	addi	s2, a5, 180
   110b8:	63 9a 84 02 	bne	s1, s0, 52
   110bc:	83 20 c1 00 	lw	ra, 12(sp)
   110c0:	03 24 81 00 	lw	s0, 8(sp)
   110c4:	83 24 41 00 	lw	s1, 4(sp)
   110c8:	03 29 01 00 	lw	s2, 0(sp)
   110cc:	13 01 01 01 	addi	sp, sp, 16
   110d0:	67 80 00 00 	ret
   110d4:	93 97 24 00 	slli	a5, s1, 2
   110d8:	b3 07 f9 00 	add	a5, s2, a5
   110dc:	83 a7 07 00 	lw	a5, 0(a5)
   110e0:	93 84 14 00 	addi	s1, s1, 1
   110e4:	e7 80 07 00 	jalr	a5
   110e8:	6f f0 9f fa 	j	-88
   110ec:	93 97 24 00 	slli	a5, s1, 2
   110f0:	b3 07 f9 00 	add	a5, s2, a5
   110f4:	83 a7 07 00 	lw	a5, 0(a5)
   110f8:	93 84 14 00 	addi	s1, s1, 1
   110fc:	e7 80 07 00 	jalr	a5
   11100:	6f f0 9f fb 	j	-72

malloc:
   11104:	93 05 05 00 	mv	a1, a0
   11108:	03 a5 01 1c 	lw	a0, 448(gp)
   1110c:	6f 00 00 01 	j	16

free:
   11110:	93 05 05 00 	mv	a1, a0
   11114:	03 a5 01 1c 	lw	a0, 448(gp)
   11118:	6f 30 c0 1a 	j	12716

_malloc_r:
   1111c:	13 01 01 fd 	addi	sp, sp, -48
   11120:	23 26 11 02 	sw	ra, 44(sp)
   11124:	23 24 81 02 	sw	s0, 40(sp)
   11128:	23 22 91 02 	sw	s1, 36(sp)
   1112c:	23 20 21 03 	sw	s2, 32(sp)
   11130:	23 2e 31 01 	sw	s3, 28(sp)
   11134:	23 2c 41 01 	sw	s4, 24(sp)
   11138:	23 2a 51 01 	sw	s5, 20(sp)
   1113c:	23 28 61 01 	sw	s6, 16(sp)
   11140:	23 26 71 01 	sw	s7, 12(sp)
   11144:	23 24 81 01 	sw	s8, 8(sp)
   11148:	23 22 91 01 	sw	s9, 4(sp)
   1114c:	93 87 b5 00 	addi	a5, a1, 11
   11150:	13 07 60 01 	addi	a4, zero, 22
   11154:	63 76 f7 04 	bgeu	a4, a5, 76
   11158:	93 f4 87 ff 	andi	s1, a5, -8
   1115c:	63 d4 04 04 	bgez	s1, 72
   11160:	93 07 c0 00 	addi	a5, zero, 12
   11164:	23 20 f5 00 	sw	a5, 0(a0)
   11168:	13 05 00 00 	mv	a0, zero
   1116c:	83 20 c1 02 	lw	ra, 44(sp)
   11170:	03 24 81 02 	lw	s0, 40(sp)
   11174:	83 24 41 02 	lw	s1, 36(sp)
   11178:	03 29 01 02 	lw	s2, 32(sp)
   1117c:	83 29 c1 01 	lw	s3, 28(sp)
   11180:	03 2a 81 01 	lw	s4, 24(sp)
   11184:	83 2a 41 01 	lw	s5, 20(sp)
   11188:	03 2b 01 01 	lw	s6, 16(sp)
   1118c:	83 2b c1 00 	lw	s7, 12(sp)
   11190:	03 2c 81 00 	lw	s8, 8(sp)
   11194:	83 2c 41 00 	lw	s9, 4(sp)
   11198:	13 01 01 03 	addi	sp, sp, 48
   1119c:	67 80 00 00 	ret
   111a0:	93 04 00 01 	addi	s1, zero, 16
   111a4:	e3 ee b4 fa 	bltu	s1, a1, -68
   111a8:	93 09 05 00 	mv	s3, a0
   111ac:	ef 00 40 6a 	jal	1700
   111b0:	93 07 70 1f 	addi	a5, zero, 503
   111b4:	13 89 81 c2 	addi	s2, gp, -984
   111b8:	63 ea 97 04 	bltu	a5, s1, 84
   111bc:	13 87 84 00 	addi	a4, s1, 8
   111c0:	33 07 e9 00 	add	a4, s2, a4
   111c4:	03 24 47 00 	lw	s0, 4(a4)
   111c8:	93 06 87 ff 	addi	a3, a4, -8
   111cc:	93 d7 34 00 	srli	a5, s1, 3
   111d0:	63 18 d4 00 	bne	s0, a3, 16
   111d4:	03 24 c7 00 	lw	s0, 12(a4)
   111d8:	93 87 27 00 	addi	a5, a5, 2
   111dc:	63 00 87 08 	beq	a4, s0, 128
   111e0:	83 27 44 00 	lw	a5, 4(s0)
   111e4:	03 27 c4 00 	lw	a4, 12(s0)
   111e8:	83 26 84 00 	lw	a3, 8(s0)
   111ec:	93 f7 c7 ff 	andi	a5, a5, -4
   111f0:	b3 07 f4 00 	add	a5, s0, a5
   111f4:	23 a6 e6 00 	sw	a4, 12(a3)
   111f8:	23 24 d7 00 	sw	a3, 8(a4)
   111fc:	03 a7 47 00 	lw	a4, 4(a5)
   11200:	13 67 17 00 	ori	a4, a4, 1
   11204:	23 a2 e7 00 	sw	a4, 4(a5)
   11208:	6f 00 40 0a 	j	164
   1120c:	13 d7 94 00 	srli	a4, s1, 9
   11210:	93 07 f0 03 	addi	a5, zero, 63
   11214:	63 0a 07 00 	beqz	a4, 20
   11218:	93 07 40 00 	addi	a5, zero, 4
   1121c:	63 e0 e7 0a 	bltu	a5, a4, 160
   11220:	93 d7 64 00 	srli	a5, s1, 6
   11224:	93 87 87 03 	addi	a5, a5, 56
   11228:	13 87 17 00 	addi	a4, a5, 1
   1122c:	13 17 37 00 	slli	a4, a4, 3
   11230:	33 07 e9 00 	add	a4, s2, a4
   11234:	03 24 47 00 	lw	s0, 4(a4)
   11238:	93 05 87 ff 	addi	a1, a4, -8
   1123c:	13 05 f0 00 	addi	a0, zero, 15
   11240:	63 0c b4 00 	beq	s0, a1, 24
   11244:	03 27 44 00 	lw	a4, 4(s0)
   11248:	13 77 c7 ff 	andi	a4, a4, -4
   1124c:	33 06 97 40 	sub	a2, a4, s1
   11250:	63 5e c5 0a 	bge	a0, a2, 188
   11254:	93 87 f7 ff 	addi	a5, a5, -1
   11258:	93 87 17 00 	addi	a5, a5, 1
   1125c:	03 24 09 01 	lw	s0, 16(s2)
   11260:	93 06 89 00 	addi	a3, s2, 8
   11264:	93 85 01 c3 	addi	a1, gp, -976
   11268:	63 08 d4 12 	beq	s0, a3, 304
   1126c:	03 27 44 00 	lw	a4, 4(s0)
   11270:	13 06 f0 00 	addi	a2, zero, 15
   11274:	13 77 c7 ff 	andi	a4, a4, -4
   11278:	33 05 97 40 	sub	a0, a4, s1
   1127c:	63 5a a6 0a 	bge	a2, a0, 180
   11280:	93 e7 14 00 	ori	a5, s1, 1
   11284:	23 22 f4 00 	sw	a5, 4(s0)
   11288:	33 06 94 00 	add	a2, s0, s1
   1128c:	23 2a c9 00 	sw	a2, 20(s2)
   11290:	23 28 c9 00 	sw	a2, 16(s2)
   11294:	93 67 15 00 	ori	a5, a0, 1
   11298:	23 26 d6 00 	sw	a3, 12(a2)
   1129c:	23 24 d6 00 	sw	a3, 8(a2)
   112a0:	23 22 f6 00 	sw	a5, 4(a2)
   112a4:	33 07 e4 00 	add	a4, s0, a4
   112a8:	23 20 a7 00 	sw	a0, 0(a4)
   112ac:	13 85 09 00 	mv	a0, s3
   112b0:	ef 00 40 5a 	jal	1444
   112b4:	13 05 84 00 	addi	a0, s0, 8
   112b8:	6f f0 5f eb 	j	-332
   112bc:	93 07 40 01 	addi	a5, zero, 20
   112c0:	63 e6 e7 00 	bltu	a5, a4, 12
   112c4:	93 07 b7 05 	addi	a5, a4, 91
   112c8:	6f f0 1f f6 	j	-160
   112cc:	93 07 40 05 	addi	a5, zero, 84
   112d0:	63 e8 e7 00 	bltu	a5, a4, 16
   112d4:	93 d7 c4 00 	srli	a5, s1, 12
   112d8:	93 87 e7 06 	addi	a5, a5, 110
   112dc:	6f f0 df f4 	j	-180
   112e0:	93 07 40 15 	addi	a5, zero, 340
   112e4:	63 e8 e7 00 	bltu	a5, a4, 16
   112e8:	93 d7 f4 00 	srli	a5, s1, 15
   112ec:	93 87 77 07 	addi	a5, a5, 119
   112f0:	6f f0 9f f3 	j	-200
   112f4:	93 06 40 55 	addi	a3, zero, 1364
   112f8:	93 07 e0 07 	addi	a5, zero, 126
   112fc:	e3 e6 e6 f2 	bltu	a3, a4, -212
   11300:	93 d7 24 01 	srli	a5, s1, 18
   11304:	93 87 c7 07 	addi	a5, a5, 124
   11308:	6f f0 1f f2 	j	-224
   1130c:	83 26 c4 00 	lw	a3, 12(s0)
   11310:	63 4c 06 00 	bltz	a2, 24
   11314:	83 27 84 00 	lw	a5, 8(s0)
   11318:	23 a6 d7 00 	sw	a3, 12(a5)
   1131c:	23 a4 f6 00 	sw	a5, 8(a3)
   11320:	b3 07 e4 00 	add	a5, s0, a4
   11324:	6f f0 9f ed 	j	-296
   11328:	13 84 06 00 	mv	s0, a3
   1132c:	6f f0 5f f1 	j	-236
   11330:	23 2a d9 00 	sw	a3, 20(s2)
   11334:	23 28 d9 00 	sw	a3, 16(s2)
   11338:	63 4c 05 00 	bltz	a0, 24
   1133c:	33 07 e4 00 	add	a4, s0, a4
   11340:	83 27 47 00 	lw	a5, 4(a4)
   11344:	93 e7 17 00 	ori	a5, a5, 1
   11348:	23 22 f7 00 	sw	a5, 4(a4)
   1134c:	6f f0 1f f6 	j	-160
   11350:	93 06 f0 1f 	addi	a3, zero, 511
   11354:	03 28 49 00 	lw	a6, 4(s2)
   11358:	63 e6 e6 16 	bltu	a3, a4, 364
   1135c:	13 57 37 00 	srli	a4, a4, 3
   11360:	13 56 27 40 	srai	a2, a4, 2
   11364:	93 06 10 00 	addi	a3, zero, 1
   11368:	13 07 17 00 	addi	a4, a4, 1
   1136c:	b3 96 c6 00 	sll	a3, a3, a2
   11370:	13 17 37 00 	slli	a4, a4, 3
   11374:	33 07 e9 00 	add	a4, s2, a4
   11378:	b3 e6 06 01 	or	a3, a3, a6
   1137c:	23 22 d9 00 	sw	a3, 4(s2)
   11380:	83 26 07 00 	lw	a3, 0(a4)
   11384:	13 06 87 ff 	addi	a2, a4, -8
   11388:	23 26 c4 00 	sw	a2, 12(s0)
   1138c:	23 24 d4 00 	sw	a3, 8(s0)
   11390:	23 20 87 00 	sw	s0, 0(a4)
   11394:	23 a6 86 00 	sw	s0, 12(a3)
   11398:	13 d7 27 40 	srai	a4, a5, 2
   1139c:	13 03 10 00 	addi	t1, zero, 1
   113a0:	33 13 e3 00 	sll	t1, t1, a4
   113a4:	03 27 49 00 	lw	a4, 4(s2)
   113a8:	63 6a 67 06 	bltu	a4, t1, 116
   113ac:	b3 76 67 00 	and	a3, a4, t1
   113b0:	63 9c 06 00 	bnez	a3, 24
   113b4:	93 f7 c7 ff 	andi	a5, a5, -4
   113b8:	13 13 13 00 	slli	t1, t1, 1
   113bc:	b3 76 67 00 	and	a3, a4, t1
   113c0:	93 87 47 00 	addi	a5, a5, 4
   113c4:	e3 8a 06 fe 	beqz	a3, -12
   113c8:	13 0e f0 00 	addi	t3, zero, 15
   113cc:	93 96 37 00 	slli	a3, a5, 3
   113d0:	b3 06 d9 00 	add	a3, s2, a3
   113d4:	13 88 06 00 	mv	a6, a3
   113d8:	13 85 07 00 	mv	a0, a5
   113dc:	03 24 c8 00 	lw	s0, 12(a6)
   113e0:	63 12 04 1b 	bne	s0, a6, 420
   113e4:	13 05 15 00 	addi	a0, a0, 1
   113e8:	13 77 35 00 	andi	a4, a0, 3
   113ec:	13 08 88 00 	addi	a6, a6, 8
   113f0:	e3 16 07 fe 	bnez	a4, -20
   113f4:	13 f7 37 00 	andi	a4, a5, 3
   113f8:	63 14 07 20 	bnez	a4, 520
   113fc:	03 27 49 00 	lw	a4, 4(s2)
   11400:	93 47 f3 ff 	not	a5, t1
   11404:	b3 77 f7 00 	and	a5, a4, a5
   11408:	23 22 f9 00 	sw	a5, 4(s2)
   1140c:	03 27 49 00 	lw	a4, 4(s2)
   11410:	13 13 13 00 	slli	t1, t1, 1
   11414:	63 64 67 00 	bltu	a4, t1, 8
   11418:	63 18 03 20 	bnez	t1, 528
   1141c:	83 2b 89 00 	lw	s7, 8(s2)
   11420:	03 a4 4b 00 	lw	s0, 4(s7)
   11424:	93 7a c4 ff 	andi	s5, s0, -4
   11428:	63 e8 9a 00 	bltu	s5, s1, 16
   1142c:	33 87 9a 40 	sub	a4, s5, s1
   11430:	93 07 f0 00 	addi	a5, zero, 15
   11434:	63 c4 e7 32 	blt	a5, a4, 808
   11438:	03 a4 41 1d 	lw	s0, 468(gp)
   1143c:	03 a7 41 1c 	lw	a4, 452(gp)
   11440:	93 07 f0 ff 	addi	a5, zero, -1
   11444:	b3 8c 5b 01 	add	s9, s7, s5
   11448:	33 84 84 00 	add	s0, s1, s0
   1144c:	63 12 f7 1e 	bne	a4, a5, 484
   11450:	13 04 04 01 	addi	s0, s0, 16
   11454:	93 05 04 00 	mv	a1, s0
   11458:	13 85 09 00 	mv	a0, s3
   1145c:	ef 00 80 48 	jal	1160
   11460:	93 07 f0 ff 	addi	a5, zero, -1
   11464:	13 0b 05 00 	mv	s6, a0
   11468:	63 00 f5 28 	beq	a0, a5, 640
   1146c:	63 74 95 01 	bgeu	a0, s9, 8
   11470:	63 9c 2b 27 	bne	s7, s2, 632
   11474:	93 86 c1 1f 	addi	a3, gp, 508
   11478:	03 a7 06 00 	lw	a4, 0(a3)
   1147c:	13 8c c1 1f 	addi	s8, gp, 508
   11480:	33 07 e4 00 	add	a4, s0, a4
   11484:	23 a0 e6 00 	sw	a4, 0(a3)
   11488:	63 90 6c 1d 	bne	s9, s6, 448
   1148c:	93 97 4c 01 	slli	a5, s9, 20
   11490:	63 9c 07 1a 	bnez	a5, 440
   11494:	83 27 89 00 	lw	a5, 8(s2)
   11498:	33 84 8a 00 	add	s0, s5, s0
   1149c:	13 64 14 00 	ori	s0, s0, 1
   114a0:	23 a2 87 00 	sw	s0, 4(a5)
   114a4:	83 27 0c 00 	lw	a5, 0(s8)
   114a8:	83 a6 01 1d 	lw	a3, 464(gp)
   114ac:	63 f4 f6 00 	bgeu	a3, a5, 8
   114b0:	23 a8 f1 1c 	sw	a5, 464(gp)
   114b4:	83 a6 c1 1c 	lw	a3, 460(gp)
   114b8:	63 f8 f6 22 	bgeu	a3, a5, 560
   114bc:	23 a6 f1 1c 	sw	a5, 460(gp)
   114c0:	6f 00 80 22 	j	552
   114c4:	13 56 97 00 	srli	a2, a4, 9
   114c8:	93 06 40 00 	addi	a3, zero, 4
   114cc:	63 e6 c6 04 	bltu	a3, a2, 76
   114d0:	93 56 67 00 	srli	a3, a4, 6
   114d4:	93 86 86 03 	addi	a3, a3, 56
   114d8:	13 86 16 00 	addi	a2, a3, 1
   114dc:	13 16 36 00 	slli	a2, a2, 3
   114e0:	33 06 c9 00 	add	a2, s2, a2
   114e4:	13 05 86 ff 	addi	a0, a2, -8
   114e8:	03 26 06 00 	lw	a2, 0(a2)
   114ec:	63 12 c5 08 	bne	a0, a2, 132
   114f0:	93 d6 26 40 	srai	a3, a3, 2
   114f4:	13 07 10 00 	addi	a4, zero, 1
   114f8:	b3 16 d7 00 	sll	a3, a4, a3
   114fc:	b3 e6 06 01 	or	a3, a3, a6
   11500:	23 22 d9 00 	sw	a3, 4(s2)
   11504:	23 26 a4 00 	sw	a0, 12(s0)
   11508:	23 24 c4 00 	sw	a2, 8(s0)
   1150c:	23 24 85 00 	sw	s0, 8(a0)
   11510:	23 26 86 00 	sw	s0, 12(a2)
   11514:	6f f0 5f e8 	j	-380
   11518:	93 06 40 01 	addi	a3, zero, 20
   1151c:	63 e6 c6 00 	bltu	a3, a2, 12
   11520:	93 06 b6 05 	addi	a3, a2, 91
   11524:	6f f0 5f fb 	j	-76
   11528:	93 06 40 05 	addi	a3, zero, 84
   1152c:	63 e8 c6 00 	bltu	a3, a2, 16
   11530:	93 56 c7 00 	srli	a3, a4, 12
   11534:	93 86 e6 06 	addi	a3, a3, 110
   11538:	6f f0 1f fa 	j	-96
   1153c:	93 06 40 15 	addi	a3, zero, 340
   11540:	63 e8 c6 00 	bltu	a3, a2, 16
   11544:	93 56 f7 00 	srli	a3, a4, 15
   11548:	93 86 76 07 	addi	a3, a3, 119
   1154c:	6f f0 df f8 	j	-116
   11550:	13 05 40 55 	addi	a0, zero, 1364
   11554:	93 06 e0 07 	addi	a3, zero, 126
   11558:	e3 60 c5 f8 	bltu	a0, a2, -128
   1155c:	93 56 27 01 	srli	a3, a4, 18
   11560:	93 86 c6 07 	addi	a3, a3, 124
   11564:	6f f0 5f f7 	j	-140
   11568:	03 26 86 00 	lw	a2, 8(a2)
   1156c:	63 08 c5 00 	beq	a0, a2, 16
   11570:	83 26 46 00 	lw	a3, 4(a2)
   11574:	93 f6 c6 ff 	andi	a3, a3, -4
   11578:	e3 68 d7 fe 	bltu	a4, a3, -16
   1157c:	03 25 c6 00 	lw	a0, 12(a2)
   11580:	6f f0 5f f8 	j	-124
   11584:	03 27 44 00 	lw	a4, 4(s0)
   11588:	03 26 c4 00 	lw	a2, 12(s0)
   1158c:	13 77 c7 ff 	andi	a4, a4, -4
   11590:	b3 08 97 40 	sub	a7, a4, s1
   11594:	63 50 1e 05 	bge	t3, a7, 64
   11598:	93 e7 14 00 	ori	a5, s1, 1
   1159c:	23 22 f4 00 	sw	a5, 4(s0)
   115a0:	83 27 84 00 	lw	a5, 8(s0)
   115a4:	b3 06 94 00 	add	a3, s0, s1
   115a8:	33 07 e4 00 	add	a4, s0, a4
   115ac:	23 a6 c7 00 	sw	a2, 12(a5)
   115b0:	23 24 f6 00 	sw	a5, 8(a2)
   115b4:	23 2a d9 00 	sw	a3, 20(s2)
   115b8:	23 28 d9 00 	sw	a3, 16(s2)
   115bc:	93 e7 18 00 	ori	a5, a7, 1
   115c0:	23 a6 b6 00 	sw	a1, 12(a3)
   115c4:	23 a4 b6 00 	sw	a1, 8(a3)
   115c8:	23 a2 f6 00 	sw	a5, 4(a3)
   115cc:	23 20 17 01 	sw	a7, 0(a4)
   115d0:	6f f0 df cd 	j	-804
   115d4:	63 c2 08 02 	bltz	a7, 36
   115d8:	33 07 e4 00 	add	a4, s0, a4
   115dc:	83 27 47 00 	lw	a5, 4(a4)
   115e0:	93 e7 17 00 	ori	a5, a5, 1
   115e4:	23 22 f7 00 	sw	a5, 4(a4)
   115e8:	83 27 84 00 	lw	a5, 8(s0)
   115ec:	23 a6 c7 00 	sw	a2, 12(a5)
   115f0:	23 24 f6 00 	sw	a5, 8(a2)
   115f4:	6f f0 9f cb 	j	-840
   115f8:	13 04 06 00 	mv	s0, a2
   115fc:	6f f0 5f de 	j	-540
   11600:	93 86 86 ff 	addi	a3, a3, -8
   11604:	03 a7 86 00 	lw	a4, 8(a3)
   11608:	93 87 f7 ff 	addi	a5, a5, -1
   1160c:	e3 04 d7 de 	beq	a4, a3, -536
   11610:	6f f0 df df 	j	-516
   11614:	93 87 47 00 	addi	a5, a5, 4
   11618:	13 13 13 00 	slli	t1, t1, 1
   1161c:	b3 76 67 00 	and	a3, a4, t1
   11620:	e3 8a 06 fe 	beqz	a3, -12
   11624:	6f f0 9f da 	j	-600
   11628:	93 07 05 00 	mv	a5, a0
   1162c:	6f f0 1f ff 	j	-16
   11630:	37 17 00 00 	lui	a4, 1
   11634:	13 07 f7 00 	addi	a4, a4, 15
   11638:	33 04 e4 00 	add	s0, s0, a4
   1163c:	b7 f7 ff ff 	lui	a5, 1048575
   11640:	33 74 f4 00 	and	s0, s0, a5
   11644:	6f f0 1f e1 	j	-496
   11648:	83 a6 41 1c 	lw	a3, 452(gp)
   1164c:	93 07 f0 ff 	addi	a5, zero, -1
   11650:	63 90 f6 0c 	bne	a3, a5, 192
   11654:	23 a2 61 1d 	sw	s6, 452(gp)
   11658:	93 7c 7b 00 	andi	s9, s6, 7
   1165c:	93 07 00 00 	mv	a5, zero
   11660:	63 88 0c 00 	beqz	s9, 16
   11664:	93 07 80 00 	addi	a5, zero, 8
   11668:	b3 87 97 41 	sub	a5, a5, s9
   1166c:	33 0b fb 00 	add	s6, s6, a5
   11670:	37 15 00 00 	lui	a0, 1
   11674:	33 8a a7 00 	add	s4, a5, a0
   11678:	33 04 8b 00 	add	s0, s6, s0
   1167c:	13 05 f5 ff 	addi	a0, a0, -1
   11680:	b3 77 a4 00 	and	a5, s0, a0
   11684:	33 0a fa 40 	sub	s4, s4, a5
   11688:	33 7a aa 00 	and	s4, s4, a0
   1168c:	93 05 0a 00 	mv	a1, s4
   11690:	13 85 09 00 	mv	a0, s3
   11694:	ef 00 00 25 	jal	592
   11698:	93 07 f0 ff 	addi	a5, zero, -1
   1169c:	63 1c f5 00 	bne	a0, a5, 24
   116a0:	13 05 04 00 	mv	a0, s0
   116a4:	63 86 0c 00 	beqz	s9, 12
   116a8:	13 85 8c ff 	addi	a0, s9, -8
   116ac:	33 05 a4 00 	add	a0, s0, a0
   116b0:	13 0a 00 00 	mv	s4, zero
   116b4:	83 27 0c 00 	lw	a5, 0(s8)
   116b8:	33 05 65 41 	sub	a0, a0, s6
   116bc:	23 24 69 01 	sw	s6, 8(s2)
   116c0:	b3 87 47 01 	add	a5, a5, s4
   116c4:	33 0a 45 01 	add	s4, a0, s4
   116c8:	13 6a 1a 00 	ori	s4, s4, 1
   116cc:	23 20 fc 00 	sw	a5, 0(s8)
   116d0:	23 22 4b 01 	sw	s4, 4(s6)
   116d4:	e3 88 2b dd 	beq	s7, s2, -560
   116d8:	13 07 f0 00 	addi	a4, zero, 15
   116dc:	63 62 57 05 	bltu	a4, s5, 68
   116e0:	93 07 10 00 	addi	a5, zero, 1
   116e4:	23 22 fb 00 	sw	a5, 4(s6)
   116e8:	83 27 89 00 	lw	a5, 8(s2)
   116ec:	83 a7 47 00 	lw	a5, 4(a5)
   116f0:	93 f7 c7 ff 	andi	a5, a5, -4
   116f4:	33 87 97 40 	sub	a4, a5, s1
   116f8:	63 e6 97 00 	bltu	a5, s1, 12
   116fc:	93 07 f0 00 	addi	a5, zero, 15
   11700:	63 ce e7 04 	blt	a5, a4, 92
   11704:	13 85 09 00 	mv	a0, s3
   11708:	ef 00 c0 14 	jal	332
   1170c:	6f f0 df a5 	j	-1444
   11710:	b3 07 9b 41 	sub	a5, s6, s9
   11714:	b3 87 e7 00 	add	a5, a5, a4
   11718:	23 20 fc 00 	sw	a5, 0(s8)
   1171c:	6f f0 df f3 	j	-196
   11720:	83 a7 4b 00 	lw	a5, 4(s7)
   11724:	13 84 4a ff 	addi	s0, s5, -12
   11728:	13 74 84 ff 	andi	s0, s0, -8
   1172c:	93 f7 17 00 	andi	a5, a5, 1
   11730:	b3 e7 87 00 	or	a5, a5, s0
   11734:	23 a2 fb 00 	sw	a5, 4(s7)
   11738:	93 06 50 00 	addi	a3, zero, 5
   1173c:	b3 87 8b 00 	add	a5, s7, s0
   11740:	23 a2 d7 00 	sw	a3, 4(a5)
   11744:	23 a4 d7 00 	sw	a3, 8(a5)
   11748:	e3 7e 87 d4 	bgeu	a4, s0, -676
   1174c:	93 85 8b 00 	addi	a1, s7, 8
   11750:	13 85 09 00 	mv	a0, s3
   11754:	ef 20 10 37 	jal	11120
   11758:	6f f0 df d4 	j	-692
   1175c:	03 24 89 00 	lw	s0, 8(s2)
   11760:	93 e7 14 00 	ori	a5, s1, 1
   11764:	23 22 f4 00 	sw	a5, 4(s0)
   11768:	b3 07 94 00 	add	a5, s0, s1
   1176c:	23 24 f9 00 	sw	a5, 8(s2)
   11770:	6f f0 1f a9 	j	-1392

memset:
   11774:	13 03 f0 00 	addi	t1, zero, 15
   11778:	13 07 05 00 	mv	a4, a0
   1177c:	63 7e c3 02 	bgeu	t1, a2, 60
   11780:	93 77 f7 00 	andi	a5, a4, 15
   11784:	63 90 07 0a 	bnez	a5, 160
   11788:	63 92 05 08 	bnez	a1, 132
   1178c:	93 76 06 ff 	andi	a3, a2, -16
   11790:	13 76 f6 00 	andi	a2, a2, 15
   11794:	b3 86 e6 00 	add	a3, a3, a4
   11798:	23 20 b7 00 	sw	a1, 0(a4)
   1179c:	23 22 b7 00 	sw	a1, 4(a4)
   117a0:	23 24 b7 00 	sw	a1, 8(a4)
   117a4:	23 26 b7 00 	sw	a1, 12(a4)
   117a8:	13 07 07 01 	addi	a4, a4, 16
   117ac:	e3 66 d7 fe 	bltu	a4, a3, -20
   117b0:	63 14 06 00 	bnez	a2, 8
   117b4:	67 80 00 00 	ret
   117b8:	b3 06 c3 40 	sub	a3, t1, a2
   117bc:	93 96 26 00 	slli	a3, a3, 2
   117c0:	97 02 00 00 	auipc	t0, 0
   117c4:	b3 86 56 00 	add	a3, a3, t0
   117c8:	67 80 c6 00 	jalr	zero, a3, 12
   117cc:	23 07 b7 00 	sb	a1, 14(a4)
   117d0:	a3 06 b7 00 	sb	a1, 13(a4)
   117d4:	23 06 b7 00 	sb	a1, 12(a4)
   117d8:	a3 05 b7 00 	sb	a1, 11(a4)
   117dc:	23 05 b7 00 	sb	a1, 10(a4)
   117e0:	a3 04 b7 00 	sb	a1, 9(a4)
   117e4:	23 04 b7 00 	sb	a1, 8(a4)
   117e8:	a3 03 b7 00 	sb	a1, 7(a4)
   117ec:	23 03 b7 00 	sb	a1, 6(a4)
   117f0:	a3 02 b7 00 	sb	a1, 5(a4)
   117f4:	23 02 b7 00 	sb	a1, 4(a4)
   117f8:	a3 01 b7 00 	sb	a1, 3(a4)
   117fc:	23 01 b7 00 	sb	a1, 2(a4)
   11800:	a3 00 b7 00 	sb	a1, 1(a4)
   11804:	23 00 b7 00 	sb	a1, 0(a4)
   11808:	67 80 00 00 	ret
   1180c:	93 f5 f5 0f 	andi	a1, a1, 255
   11810:	93 96 85 00 	slli	a3, a1, 8
   11814:	b3 e5 d5 00 	or	a1, a1, a3
   11818:	93 96 05 01 	slli	a3, a1, 16
   1181c:	b3 e5 d5 00 	or	a1, a1, a3
   11820:	6f f0 df f6 	j	-148
   11824:	93 96 27 00 	slli	a3, a5, 2
   11828:	97 02 00 00 	auipc	t0, 0
   1182c:	b3 86 56 00 	add	a3, a3, t0
   11830:	93 82 00 00 	mv	t0, ra
   11834:	e7 80 06 fa 	jalr	ra, a3, -96
   11838:	93 80 02 00 	mv	ra, t0
   1183c:	93 87 07 ff 	addi	a5, a5, -16
   11840:	33 07 f7 40 	sub	a4, a4, a5
   11844:	33 06 f6 00 	add	a2, a2, a5
   11848:	e3 78 c3 f6 	bgeu	t1, a2, -144
   1184c:	6f f0 df f3 	j	-196

__malloc_lock:
   11850:	67 80 00 00 	ret

__malloc_unlock:
   11854:	67 80 00 00 	ret

_printf_r:
   11858:	13 01 01 fc 	addi	sp, sp, -64
   1185c:	23 24 c1 02 	sw	a2, 40(sp)
   11860:	23 26 d1 02 	sw	a3, 44(sp)
   11864:	23 28 e1 02 	sw	a4, 48(sp)
   11868:	23 2a f1 02 	sw	a5, 52(sp)
   1186c:	23 2c 01 03 	sw	a6, 56(sp)
   11870:	23 2e 11 03 	sw	a7, 60(sp)
   11874:	13 86 05 00 	mv	a2, a1
   11878:	83 25 85 00 	lw	a1, 8(a0)
   1187c:	93 06 81 02 	addi	a3, sp, 40
   11880:	23 2e 11 00 	sw	ra, 28(sp)
   11884:	23 26 d1 00 	sw	a3, 12(sp)
   11888:	ef 00 40 0a 	jal	164
   1188c:	83 20 c1 01 	lw	ra, 28(sp)
   11890:	13 01 01 04 	addi	sp, sp, 64
   11894:	67 80 00 00 	ret

printf:
   11898:	13 01 01 fc 	addi	sp, sp, -64
   1189c:	23 2a f1 02 	sw	a5, 52(sp)
   118a0:	83 a7 01 1c 	lw	a5, 448(gp)
   118a4:	23 24 c1 02 	sw	a2, 40(sp)
   118a8:	23 26 d1 02 	sw	a3, 44(sp)
   118ac:	23 22 b1 02 	sw	a1, 36(sp)
   118b0:	23 28 e1 02 	sw	a4, 48(sp)
   118b4:	23 2c 01 03 	sw	a6, 56(sp)
   118b8:	23 2e 11 03 	sw	a7, 60(sp)
   118bc:	83 a5 87 00 	lw	a1, 8(a5)
   118c0:	93 06 41 02 	addi	a3, sp, 36
   118c4:	13 06 05 00 	mv	a2, a0
   118c8:	13 85 07 00 	mv	a0, a5
   118cc:	23 2e 11 00 	sw	ra, 28(sp)
   118d0:	23 26 d1 00 	sw	a3, 12(sp)
   118d4:	ef 00 80 05 	jal	88
   118d8:	83 20 c1 01 	lw	ra, 28(sp)
   118dc:	13 01 01 04 	addi	sp, sp, 64
   118e0:	67 80 00 00 	ret

_sbrk_r:
   118e4:	13 01 01 ff 	addi	sp, sp, -16
   118e8:	23 24 81 00 	sw	s0, 8(sp)
   118ec:	23 22 91 00 	sw	s1, 4(sp)
   118f0:	93 04 05 00 	mv	s1, a0
   118f4:	13 85 05 00 	mv	a0, a1
   118f8:	23 26 11 00 	sw	ra, 12(sp)
   118fc:	23 a4 01 22 	sw	zero, 552(gp)
   11900:	ef b0 c0 4b 	jal	46268
   11904:	93 07 f0 ff 	addi	a5, zero, -1
   11908:	63 18 f5 00 	bne	a0, a5, 16
   1190c:	83 a7 81 22 	lw	a5, 552(gp)
   11910:	63 84 07 00 	beqz	a5, 8
   11914:	23 a0 f4 00 	sw	a5, 0(s1)
   11918:	83 20 c1 00 	lw	ra, 12(sp)
   1191c:	03 24 81 00 	lw	s0, 8(sp)
   11920:	83 24 41 00 	lw	s1, 4(sp)
   11924:	13 01 01 01 	addi	sp, sp, 16
   11928:	67 80 00 00 	ret

_vfprintf_r:
   1192c:	13 01 01 e2 	addi	sp, sp, -480
   11930:	23 2e 11 1c 	sw	ra, 476(sp)
   11934:	23 2a 91 1c 	sw	s1, 468(sp)
   11938:	23 28 21 1d 	sw	s2, 464(sp)
   1193c:	23 26 31 1d 	sw	s3, 460(sp)
   11940:	23 22 51 1d 	sw	s5, 452(sp)
   11944:	13 89 05 00 	mv	s2, a1
   11948:	93 04 06 00 	mv	s1, a2
   1194c:	93 8a 06 00 	mv	s5, a3
   11950:	23 2c 81 1c 	sw	s0, 472(sp)
   11954:	23 24 41 1d 	sw	s4, 456(sp)
   11958:	23 20 61 1d 	sw	s6, 448(sp)
   1195c:	23 2e 71 1b 	sw	s7, 444(sp)
   11960:	23 2c 81 1b 	sw	s8, 440(sp)
   11964:	23 2a 91 1b 	sw	s9, 436(sp)
   11968:	23 28 a1 1b 	sw	s10, 432(sp)
   1196c:	23 26 b1 1b 	sw	s11, 428(sp)
   11970:	93 09 05 00 	mv	s3, a0
   11974:	ef 40 d0 4a 	jal	19628
   11978:	83 27 05 00 	lw	a5, 0(a0)
   1197c:	13 85 07 00 	mv	a0, a5
   11980:	23 2a f1 02 	sw	a5, 52(sp)
   11984:	ef 60 00 1d 	jal	25040
   11988:	23 20 a1 02 	sw	a0, 32(sp)
   1198c:	23 20 01 0e 	sw	zero, 224(sp)
   11990:	23 22 01 0e 	sw	zero, 228(sp)
   11994:	23 24 01 0e 	sw	zero, 232(sp)
   11998:	23 26 01 0e 	sw	zero, 236(sp)
   1199c:	63 8a 09 00 	beqz	s3, 20
   119a0:	83 a7 89 03 	lw	a5, 56(s3)
   119a4:	63 96 07 00 	bnez	a5, 12
   119a8:	13 85 09 00 	mv	a0, s3
   119ac:	ef 20 40 67 	jal	9844
   119b0:	83 17 c9 00 	lh	a5, 12(s2)
   119b4:	13 97 27 01 	slli	a4, a5, 18
   119b8:	63 42 07 02 	bltz	a4, 36
   119bc:	b7 26 00 00 	lui	a3, 2
   119c0:	03 27 49 06 	lw	a4, 100(s2)
   119c4:	b3 e7 d7 00 	or	a5, a5, a3
   119c8:	23 16 f9 00 	sh	a5, 12(s2)
   119cc:	b7 e7 ff ff 	lui	a5, 1048574
   119d0:	93 87 f7 ff 	addi	a5, a5, -1
   119d4:	b3 77 f7 00 	and	a5, a4, a5
   119d8:	23 22 f9 06 	sw	a5, 100(s2)
   119dc:	83 57 c9 00 	lhu	a5, 12(s2)
   119e0:	93 f7 87 00 	andi	a5, a5, 8
   119e4:	63 80 07 04 	beqz	a5, 64
   119e8:	83 27 09 01 	lw	a5, 16(s2)
   119ec:	63 8c 07 02 	beqz	a5, 56
   119f0:	83 57 c9 00 	lhu	a5, 12(s2)
   119f4:	13 07 a0 00 	addi	a4, zero, 10
   119f8:	93 f7 a7 01 	andi	a5, a5, 26
   119fc:	63 90 e7 08 	bne	a5, a4, 128
   11a00:	83 17 e9 00 	lh	a5, 14(s2)
   11a04:	63 cc 07 06 	bltz	a5, 120
   11a08:	93 86 0a 00 	mv	a3, s5
   11a0c:	13 86 04 00 	mv	a2, s1
   11a10:	93 05 09 00 	mv	a1, s2
   11a14:	13 85 09 00 	mv	a0, s3
   11a18:	ef 10 d0 6d 	jal	7900
   11a1c:	23 22 a1 02 	sw	a0, 36(sp)
   11a20:	6f 00 c0 01 	j	28
   11a24:	93 05 09 00 	mv	a1, s2
   11a28:	13 85 09 00 	mv	a0, s3
   11a2c:	ef 10 50 78 	jal	8068
   11a30:	e3 00 05 fc 	beqz	a0, -64
   11a34:	93 07 f0 ff 	addi	a5, zero, -1
   11a38:	23 22 f1 02 	sw	a5, 36(sp)
   11a3c:	83 20 c1 1d 	lw	ra, 476(sp)
   11a40:	03 24 81 1d 	lw	s0, 472(sp)
   11a44:	03 25 41 02 	lw	a0, 36(sp)
   11a48:	83 24 41 1d 	lw	s1, 468(sp)
   11a4c:	03 29 01 1d 	lw	s2, 464(sp)
   11a50:	83 29 c1 1c 	lw	s3, 460(sp)
   11a54:	03 2a 81 1c 	lw	s4, 456(sp)
   11a58:	83 2a 41 1c 	lw	s5, 452(sp)
   11a5c:	03 2b 01 1c 	lw	s6, 448(sp)
   11a60:	83 2b c1 1b 	lw	s7, 444(sp)
   11a64:	03 2c 81 1b 	lw	s8, 440(sp)
   11a68:	83 2c 41 1b 	lw	s9, 436(sp)
   11a6c:	03 2d 01 1b 	lw	s10, 432(sp)
   11a70:	83 2d c1 1a 	lw	s11, 428(sp)
   11a74:	13 01 01 1e 	addi	sp, sp, 480
   11a78:	67 80 00 00 	ret
   11a7c:	b7 27 02 00 	lui	a5, 34
   11a80:	93 87 47 e3 	addi	a5, a5, -460
   11a84:	23 26 f1 04 	sw	a5, 76(sp)
   11a88:	b7 27 02 00 	lui	a5, 34
   11a8c:	93 08 c1 0f 	addi	a7, sp, 252
   11a90:	93 87 07 fb 	addi	a5, a5, -80
   11a94:	23 2a 11 0d 	sw	a7, 212(sp)
   11a98:	23 2e 01 0c 	sw	zero, 220(sp)
   11a9c:	23 2c 01 0c 	sw	zero, 216(sp)
   11aa0:	13 0a 00 00 	mv	s4, zero
   11aa4:	93 8b 08 00 	mv	s7, a7
   11aa8:	23 20 01 04 	sw	zero, 64(sp)
   11aac:	23 2e 01 02 	sw	zero, 60(sp)
   11ab0:	23 28 01 00 	sw	zero, 16(sp)
   11ab4:	23 28 01 02 	sw	zero, 48(sp)
   11ab8:	23 2c 01 02 	sw	zero, 56(sp)
   11abc:	23 22 01 02 	sw	zero, 36(sp)
   11ac0:	23 2a f1 00 	sw	a5, 20(sp)
   11ac4:	13 84 04 00 	mv	s0, s1
   11ac8:	13 07 50 02 	addi	a4, zero, 37
   11acc:	83 47 04 00 	lbu	a5, 0(s0)
   11ad0:	63 84 07 00 	beqz	a5, 8
   11ad4:	63 9a e7 0a 	bne	a5, a4, 180
   11ad8:	33 0b 94 40 	sub	s6, s0, s1
   11adc:	63 0a 0b 04 	beqz	s6, 84
   11ae0:	83 27 c1 0d 	lw	a5, 220(sp)
   11ae4:	23 a0 9b 00 	sw	s1, 0(s7)
   11ae8:	23 a2 6b 01 	sw	s6, 4(s7)
   11aec:	b3 87 67 01 	add	a5, a5, s6
   11af0:	23 2e f1 0c 	sw	a5, 220(sp)
   11af4:	83 27 81 0d 	lw	a5, 216(sp)
   11af8:	13 07 70 00 	addi	a4, zero, 7
   11afc:	93 8b 8b 00 	addi	s7, s7, 8
   11b00:	93 87 17 00 	addi	a5, a5, 1
   11b04:	23 2c f1 0c 	sw	a5, 216(sp)
   11b08:	63 5e f7 00 	bge	a4, a5, 28
   11b0c:	13 06 41 0d 	addi	a2, sp, 212
   11b10:	93 05 09 00 	mv	a1, s2
   11b14:	13 85 09 00 	mv	a0, s3
   11b18:	ef 70 90 7e 	jal	32744
   11b1c:	63 1a 05 72 	bnez	a0, 1844
   11b20:	93 0b c1 0f 	addi	s7, sp, 252
   11b24:	83 27 41 02 	lw	a5, 36(sp)
   11b28:	b3 87 67 01 	add	a5, a5, s6
   11b2c:	23 22 f1 02 	sw	a5, 36(sp)
   11b30:	83 47 04 00 	lbu	a5, 0(s0)
   11b34:	63 94 07 00 	bnez	a5, 8
   11b38:	6f 10 50 56 	j	7524
   11b3c:	93 07 14 00 	addi	a5, s0, 1
   11b40:	a3 0b 01 0a 	sb	zero, 183(sp)
   11b44:	13 0d f0 ff 	addi	s10, zero, -1
   11b48:	23 24 01 02 	sw	zero, 40(sp)
   11b4c:	13 04 00 00 	mv	s0, zero
   11b50:	13 0c a0 05 	addi	s8, zero, 90
   11b54:	93 0d 90 00 	addi	s11, zero, 9
   11b58:	93 0c a0 02 	addi	s9, zero, 42
   11b5c:	03 cb 07 00 	lbu	s6, 0(a5)
   11b60:	13 87 17 00 	addi	a4, a5, 1
   11b64:	23 2e e1 00 	sw	a4, 28(sp)
   11b68:	93 07 0b fe 	addi	a5, s6, -32
   11b6c:	63 74 fc 00 	bgeu	s8, a5, 8
   11b70:	6f 10 40 24 	j	4676
   11b74:	03 27 c1 04 	lw	a4, 76(sp)
   11b78:	93 97 27 00 	slli	a5, a5, 2
   11b7c:	b3 87 e7 00 	add	a5, a5, a4
   11b80:	83 a7 07 00 	lw	a5, 0(a5)
   11b84:	67 80 07 00 	jr	a5
   11b88:	13 04 14 00 	addi	s0, s0, 1
   11b8c:	6f f0 1f f4 	j	-192
   11b90:	13 85 09 00 	mv	a0, s3
   11b94:	ef 40 d0 28 	jal	19084
   11b98:	83 27 45 00 	lw	a5, 4(a0)
   11b9c:	13 85 07 00 	mv	a0, a5
   11ba0:	23 2c f1 02 	sw	a5, 56(sp)
   11ba4:	ef 50 10 7b 	jal	24496
   11ba8:	23 28 a1 02 	sw	a0, 48(sp)
   11bac:	13 85 09 00 	mv	a0, s3
   11bb0:	ef 40 10 27 	jal	19056
   11bb4:	83 27 85 00 	lw	a5, 8(a0)
   11bb8:	23 28 f1 00 	sw	a5, 16(sp)
   11bbc:	83 27 01 03 	lw	a5, 48(sp)
   11bc0:	63 8c 07 00 	beqz	a5, 24
   11bc4:	83 27 01 01 	lw	a5, 16(sp)
   11bc8:	63 88 07 00 	beqz	a5, 16
   11bcc:	83 c7 07 00 	lbu	a5, 0(a5)
   11bd0:	63 84 07 00 	beqz	a5, 8
   11bd4:	13 64 04 40 	ori	s0, s0, 1024
   11bd8:	83 27 c1 01 	lw	a5, 28(sp)
   11bdc:	6f f0 1f f8 	j	-128
   11be0:	83 47 71 0b 	lbu	a5, 183(sp)
   11be4:	e3 9a 07 fe 	bnez	a5, -12
   11be8:	93 07 00 02 	addi	a5, zero, 32
   11bec:	a3 0b f1 0a 	sb	a5, 183(sp)
   11bf0:	6f f0 9f fe 	j	-24
   11bf4:	13 64 14 00 	ori	s0, s0, 1
   11bf8:	6f f0 1f fe 	j	-32
   11bfc:	83 a7 0a 00 	lw	a5, 0(s5)
   11c00:	93 8a 4a 00 	addi	s5, s5, 4
   11c04:	23 24 f1 02 	sw	a5, 40(sp)
   11c08:	e3 d8 07 fc 	bgez	a5, -48
   11c0c:	b3 07 f0 40 	neg	a5, a5
   11c10:	23 24 f1 02 	sw	a5, 40(sp)
   11c14:	13 64 44 00 	ori	s0, s0, 4
   11c18:	6f f0 1f fc 	j	-64
   11c1c:	93 07 b0 02 	addi	a5, zero, 43
   11c20:	6f f0 df fc 	j	-52
   11c24:	03 27 c1 01 	lw	a4, 28(sp)
   11c28:	83 27 c1 01 	lw	a5, 28(sp)
   11c2c:	03 4b 07 00 	lbu	s6, 0(a4)
   11c30:	93 87 17 00 	addi	a5, a5, 1
   11c34:	63 14 9b 05 	bne	s6, s9, 72
   11c38:	03 ad 0a 00 	lw	s10, 0(s5)
   11c3c:	13 87 4a 00 	addi	a4, s5, 4
   11c40:	63 54 0d 00 	bgez	s10, 8
   11c44:	13 0d f0 ff 	addi	s10, zero, -1
   11c48:	93 0a 07 00 	mv	s5, a4
   11c4c:	23 2e f1 00 	sw	a5, 28(sp)
   11c50:	6f f0 9f f8 	j	-120
   11c54:	13 17 2d 00 	slli	a4, s10, 2
   11c58:	93 87 17 00 	addi	a5, a5, 1
   11c5c:	33 03 a7 01 	add	t1, a4, s10
   11c60:	03 cb f7 ff 	lbu	s6, -1(a5)
   11c64:	13 13 13 00 	slli	t1, t1, 1
   11c68:	33 0d d3 00 	add	s10, t1, a3
   11c6c:	93 06 0b fd 	addi	a3, s6, -48
   11c70:	e3 f2 dd fe 	bgeu	s11, a3, -28
   11c74:	23 2e f1 00 	sw	a5, 28(sp)
   11c78:	6f f0 1f ef 	j	-272
   11c7c:	13 0d 00 00 	mv	s10, zero
   11c80:	6f f0 df fe 	j	-20
   11c84:	13 64 04 08 	ori	s0, s0, 128
   11c88:	6f f0 1f f5 	j	-176
   11c8c:	83 27 c1 01 	lw	a5, 28(sp)
   11c90:	23 24 01 02 	sw	zero, 40(sp)
   11c94:	03 27 81 02 	lw	a4, 40(sp)
   11c98:	83 26 81 02 	lw	a3, 40(sp)
   11c9c:	13 0b 0b fd 	addi	s6, s6, -48
   11ca0:	13 17 27 00 	slli	a4, a4, 2
   11ca4:	33 07 d7 00 	add	a4, a4, a3
   11ca8:	13 17 17 00 	slli	a4, a4, 1
   11cac:	93 87 17 00 	addi	a5, a5, 1
   11cb0:	33 07 eb 00 	add	a4, s6, a4
   11cb4:	03 cb f7 ff 	lbu	s6, -1(a5)
   11cb8:	23 24 e1 02 	sw	a4, 40(sp)
   11cbc:	13 07 0b fd 	addi	a4, s6, -48
   11cc0:	e3 fa ed fc 	bgeu	s11, a4, -44
   11cc4:	6f f0 1f fb 	j	-80
   11cc8:	13 64 84 00 	ori	s0, s0, 8
   11ccc:	6f f0 df f0 	j	-244
   11cd0:	83 27 c1 01 	lw	a5, 28(sp)
   11cd4:	03 c7 07 00 	lbu	a4, 0(a5)
   11cd8:	93 07 80 06 	addi	a5, zero, 104
   11cdc:	63 1c f7 00 	bne	a4, a5, 24
   11ce0:	83 27 c1 01 	lw	a5, 28(sp)
   11ce4:	13 64 04 20 	ori	s0, s0, 512
   11ce8:	93 87 17 00 	addi	a5, a5, 1
   11cec:	23 2e f1 00 	sw	a5, 28(sp)
   11cf0:	6f f0 9f ee 	j	-280
   11cf4:	13 64 04 04 	ori	s0, s0, 64
   11cf8:	6f f0 1f ee 	j	-288
   11cfc:	83 27 c1 01 	lw	a5, 28(sp)
   11d00:	03 c7 07 00 	lbu	a4, 0(a5)
   11d04:	93 07 c0 06 	addi	a5, zero, 108
   11d08:	63 1c f7 00 	bne	a4, a5, 24
   11d0c:	83 27 c1 01 	lw	a5, 28(sp)
   11d10:	93 87 17 00 	addi	a5, a5, 1
   11d14:	23 2e f1 00 	sw	a5, 28(sp)
   11d18:	13 64 04 02 	ori	s0, s0, 32
   11d1c:	6f f0 df eb 	j	-324
   11d20:	13 64 04 01 	ori	s0, s0, 16
   11d24:	6f f0 5f eb 	j	-332
   11d28:	93 87 4a 00 	addi	a5, s5, 4
   11d2c:	23 2c f1 00 	sw	a5, 24(sp)
   11d30:	83 a7 0a 00 	lw	a5, 0(s5)
   11d34:	a3 0b 01 0a 	sb	zero, 183(sp)
   11d38:	23 0e f1 12 	sb	a5, 316(sp)
   11d3c:	23 26 01 00 	sw	zero, 12(sp)
   11d40:	13 0d 10 00 	addi	s10, zero, 1
   11d44:	13 07 00 00 	mv	a4, zero
   11d48:	93 0c 00 00 	mv	s9, zero
   11d4c:	13 0c 00 00 	mv	s8, zero
   11d50:	93 0d 00 00 	mv	s11, zero
   11d54:	93 04 c1 13 	addi	s1, sp, 316
   11d58:	23 26 e1 02 	sw	a4, 44(sp)
   11d5c:	63 54 a7 01 	bge	a4, s10, 8
   11d60:	23 26 a1 03 	sw	s10, 44(sp)
   11d64:	83 46 71 0b 	lbu	a3, 183(sp)
   11d68:	63 88 06 00 	beqz	a3, 16
   11d6c:	83 27 c1 02 	lw	a5, 44(sp)
   11d70:	93 87 17 00 	addi	a5, a5, 1
   11d74:	23 26 f1 02 	sw	a5, 44(sp)
   11d78:	93 7a 24 00 	andi	s5, s0, 2
   11d7c:	63 88 0a 00 	beqz	s5, 16
   11d80:	83 27 c1 02 	lw	a5, 44(sp)
   11d84:	93 87 27 00 	addi	a5, a5, 2
   11d88:	23 26 f1 02 	sw	a5, 44(sp)
   11d8c:	93 77 44 08 	andi	a5, s0, 132
   11d90:	23 22 f1 04 	sw	a5, 68(sp)
   11d94:	63 90 07 08 	bnez	a5, 128
   11d98:	83 27 81 02 	lw	a5, 40(sp)
   11d9c:	83 26 c1 02 	lw	a3, 44(sp)
   11da0:	b3 86 d7 40 	sub	a3, a5, a3
   11da4:	63 58 d0 06 	blez	a3, 112
   11da8:	b7 27 02 00 	lui	a5, 34
   11dac:	13 0e 00 01 	addi	t3, zero, 16
   11db0:	13 88 07 fa 	addi	a6, a5, -96
   11db4:	93 0e 70 00 	addi	t4, zero, 7
   11db8:	03 26 81 0d 	lw	a2, 216(sp)
   11dbc:	23 a0 0b 01 	sw	a6, 0(s7)
   11dc0:	83 25 c1 0d 	lw	a1, 220(sp)
   11dc4:	13 06 16 00 	addi	a2, a2, 1
   11dc8:	13 85 8b 00 	addi	a0, s7, 8
   11dcc:	63 54 de 00 	bge	t3, a3, 8
   11dd0:	6f 00 90 7f 	j	4088
   11dd4:	23 a2 db 00 	sw	a3, 4(s7)
   11dd8:	b3 86 b6 00 	add	a3, a3, a1
   11ddc:	23 2e d1 0c 	sw	a3, 220(sp)
   11de0:	23 2c c1 0c 	sw	a2, 216(sp)
   11de4:	93 06 70 00 	addi	a3, zero, 7
   11de8:	93 0b 05 00 	mv	s7, a0
   11dec:	63 d4 c6 02 	bge	a3, a2, 40
   11df0:	13 06 41 0d 	addi	a2, sp, 212
   11df4:	93 05 09 00 	mv	a1, s2
   11df8:	13 85 09 00 	mv	a0, s3
   11dfc:	23 24 e1 04 	sw	a4, 72(sp)
   11e00:	ef 70 10 50 	jal	32000
   11e04:	63 04 05 00 	beqz	a0, 8
   11e08:	6f 10 10 23 	j	6704
   11e0c:	03 27 81 04 	lw	a4, 72(sp)
   11e10:	93 0b c1 0f 	addi	s7, sp, 252
   11e14:	83 46 71 0b 	lbu	a3, 183(sp)
   11e18:	63 8e 06 04 	beqz	a3, 92
   11e1c:	93 06 71 0b 	addi	a3, sp, 183
   11e20:	23 a0 db 00 	sw	a3, 0(s7)
   11e24:	93 06 10 00 	addi	a3, zero, 1
   11e28:	23 a2 db 00 	sw	a3, 4(s7)
   11e2c:	83 26 c1 0d 	lw	a3, 220(sp)
   11e30:	13 06 70 00 	addi	a2, zero, 7
   11e34:	93 8b 8b 00 	addi	s7, s7, 8
   11e38:	93 86 16 00 	addi	a3, a3, 1
   11e3c:	23 2e d1 0c 	sw	a3, 220(sp)
   11e40:	83 26 81 0d 	lw	a3, 216(sp)
   11e44:	93 86 16 00 	addi	a3, a3, 1
   11e48:	23 2c d1 0c 	sw	a3, 216(sp)
   11e4c:	63 54 d6 02 	bge	a2, a3, 40
   11e50:	13 06 41 0d 	addi	a2, sp, 212
   11e54:	93 05 09 00 	mv	a1, s2
   11e58:	13 85 09 00 	mv	a0, s3
   11e5c:	23 24 e1 04 	sw	a4, 72(sp)
   11e60:	ef 70 10 4a 	jal	31904
   11e64:	63 04 05 00 	beqz	a0, 8
   11e68:	6f 10 10 1d 	j	6608
   11e6c:	03 27 81 04 	lw	a4, 72(sp)
   11e70:	93 0b c1 0f 	addi	s7, sp, 252
   11e74:	63 8e 0a 04 	beqz	s5, 92
   11e78:	93 06 81 0b 	addi	a3, sp, 184
   11e7c:	23 a0 db 00 	sw	a3, 0(s7)
   11e80:	93 06 20 00 	addi	a3, zero, 2
   11e84:	23 a2 db 00 	sw	a3, 4(s7)
   11e88:	83 26 c1 0d 	lw	a3, 220(sp)
   11e8c:	13 06 70 00 	addi	a2, zero, 7
   11e90:	93 8b 8b 00 	addi	s7, s7, 8
   11e94:	93 86 26 00 	addi	a3, a3, 2
   11e98:	23 2e d1 0c 	sw	a3, 220(sp)
   11e9c:	83 26 81 0d 	lw	a3, 216(sp)
   11ea0:	93 86 16 00 	addi	a3, a3, 1
   11ea4:	23 2c d1 0c 	sw	a3, 216(sp)
   11ea8:	63 54 d6 02 	bge	a2, a3, 40
   11eac:	13 06 41 0d 	addi	a2, sp, 212
   11eb0:	93 05 09 00 	mv	a1, s2
   11eb4:	13 85 09 00 	mv	a0, s3
   11eb8:	23 24 e1 04 	sw	a4, 72(sp)
   11ebc:	ef 70 50 44 	jal	31812
   11ec0:	63 04 05 00 	beqz	a0, 8
   11ec4:	6f 10 50 17 	j	6516
   11ec8:	03 27 81 04 	lw	a4, 72(sp)
   11ecc:	93 0b c1 0f 	addi	s7, sp, 252
   11ed0:	83 27 41 04 	lw	a5, 68(sp)
   11ed4:	93 06 00 08 	addi	a3, zero, 128
   11ed8:	63 9c d7 06 	bne	a5, a3, 120
   11edc:	83 27 81 02 	lw	a5, 40(sp)
   11ee0:	83 26 c1 02 	lw	a3, 44(sp)
   11ee4:	b3 8a d7 40 	sub	s5, a5, a3
   11ee8:	63 54 50 07 	blez	s5, 104
   11eec:	13 08 00 01 	addi	a6, zero, 16
   11ef0:	13 0e 70 00 	addi	t3, zero, 7
   11ef4:	83 27 41 01 	lw	a5, 20(sp)
   11ef8:	83 26 81 0d 	lw	a3, 216(sp)
   11efc:	03 26 c1 0d 	lw	a2, 220(sp)
   11f00:	23 a0 fb 00 	sw	a5, 0(s7)
   11f04:	93 86 16 00 	addi	a3, a3, 1
   11f08:	93 85 8b 00 	addi	a1, s7, 8
   11f0c:	e3 4a 58 71 	blt	a6, s5, 3860
   11f10:	23 a2 5b 01 	sw	s5, 4(s7)
   11f14:	b3 8a ca 00 	add	s5, s5, a2
   11f18:	23 2e 51 0d 	sw	s5, 220(sp)
   11f1c:	23 2c d1 0c 	sw	a3, 216(sp)
   11f20:	13 06 70 00 	addi	a2, zero, 7
   11f24:	93 8b 05 00 	mv	s7, a1
   11f28:	63 54 d6 02 	bge	a2, a3, 40
   11f2c:	13 06 41 0d 	addi	a2, sp, 212
   11f30:	93 05 09 00 	mv	a1, s2
   11f34:	13 85 09 00 	mv	a0, s3
   11f38:	23 22 e1 04 	sw	a4, 68(sp)
   11f3c:	ef 70 50 3c 	jal	31684
   11f40:	63 04 05 00 	beqz	a0, 8
   11f44:	6f 10 50 0f 	j	6388
   11f48:	03 27 41 04 	lw	a4, 68(sp)
   11f4c:	93 0b c1 0f 	addi	s7, sp, 252
   11f50:	b3 0a a7 41 	sub	s5, a4, s10
   11f54:	63 50 50 07 	blez	s5, 96
   11f58:	13 08 00 01 	addi	a6, zero, 16
   11f5c:	13 0e 70 00 	addi	t3, zero, 7
   11f60:	83 27 41 01 	lw	a5, 20(sp)
   11f64:	83 26 81 0d 	lw	a3, 216(sp)
   11f68:	03 27 c1 0d 	lw	a4, 220(sp)
   11f6c:	23 a0 fb 00 	sw	a5, 0(s7)
   11f70:	93 86 16 00 	addi	a3, a3, 1
   11f74:	13 86 8b 00 	addi	a2, s7, 8
   11f78:	e3 48 58 6f 	blt	a6, s5, 3824
   11f7c:	33 87 ea 00 	add	a4, s5, a4
   11f80:	23 a2 5b 01 	sw	s5, 4(s7)
   11f84:	23 2e e1 0c 	sw	a4, 220(sp)
   11f88:	23 2c d1 0c 	sw	a3, 216(sp)
   11f8c:	13 07 70 00 	addi	a4, zero, 7
   11f90:	93 0b 06 00 	mv	s7, a2
   11f94:	63 50 d7 02 	bge	a4, a3, 32
   11f98:	13 06 41 0d 	addi	a2, sp, 212
   11f9c:	93 05 09 00 	mv	a1, s2
   11fa0:	13 85 09 00 	mv	a0, s3
   11fa4:	ef 70 d0 35 	jal	31580
   11fa8:	63 04 05 00 	beqz	a0, 8
   11fac:	6f 10 d0 08 	j	6284
   11fb0:	93 0b c1 0f 	addi	s7, sp, 252
   11fb4:	93 76 04 10 	andi	a3, s0, 256
   11fb8:	03 27 c1 0d 	lw	a4, 220(sp)
   11fbc:	e3 96 06 6e 	bnez	a3, 3820
   11fc0:	83 27 81 0d 	lw	a5, 216(sp)
   11fc4:	33 03 ed 00 	add	t1, s10, a4
   11fc8:	23 a0 9b 00 	sw	s1, 0(s7)
   11fcc:	93 87 17 00 	addi	a5, a5, 1
   11fd0:	23 a2 ab 01 	sw	s10, 4(s7)
   11fd4:	23 2e 61 0c 	sw	t1, 220(sp)
   11fd8:	23 2c f1 0c 	sw	a5, 216(sp)
   11fdc:	13 07 70 00 	addi	a4, zero, 7
   11fe0:	93 8b 8b 00 	addi	s7, s7, 8
   11fe4:	63 44 f7 00 	blt	a4, a5, 8
   11fe8:	6f 10 80 18 	j	4488
   11fec:	13 06 41 0d 	addi	a2, sp, 212
   11ff0:	93 05 09 00 	mv	a1, s2
   11ff4:	13 85 09 00 	mv	a0, s3
   11ff8:	ef 70 90 30 	jal	31496
   11ffc:	63 04 05 00 	beqz	a0, 8
   12000:	6f 10 90 03 	j	6200
   12004:	93 0b c1 0f 	addi	s7, sp, 252
   12008:	6f 10 80 16 	j	4456
   1200c:	13 64 04 01 	ori	s0, s0, 16
   12010:	93 77 04 02 	andi	a5, s0, 32
   12014:	63 84 07 06 	beqz	a5, 104
   12018:	93 8a 7a 00 	addi	s5, s5, 7
   1201c:	93 fa 8a ff 	andi	s5, s5, -8
   12020:	83 ac 0a 00 	lw	s9, 0(s5)
   12024:	83 ad 4a 00 	lw	s11, 4(s5)
   12028:	93 87 8a 00 	addi	a5, s5, 8
   1202c:	23 2c f1 00 	sw	a5, 24(sp)
   12030:	63 c4 0d 00 	bltz	s11, 8
   12034:	6f 10 90 08 	j	6280
   12038:	b3 0c 90 41 	neg	s9, s9
   1203c:	b3 37 90 01 	snez	a5, s9
   12040:	b3 0d b0 41 	neg	s11, s11
   12044:	b3 8d fd 40 	sub	s11, s11, a5
   12048:	93 07 d0 02 	addi	a5, zero, 45
   1204c:	a3 0b f1 0a 	sb	a5, 183(sp)
   12050:	93 07 10 00 	addi	a5, zero, 1
   12054:	13 07 f0 ff 	addi	a4, zero, -1
   12058:	e3 04 ed 3c 	beq	s10, a4, 3016
   1205c:	13 07 04 00 	mv	a4, s0
   12060:	b3 e6 bc 01 	or	a3, s9, s11
   12064:	13 74 f4 f7 	andi	s0, s0, -129
   12068:	e3 9c 06 3a 	bnez	a3, 3000
   1206c:	e3 06 0d 52 	beqz	s10, 3372
   12070:	13 07 10 00 	addi	a4, zero, 1
   12074:	e3 9a e7 3a 	bne	a5, a4, 2996
   12078:	6f 10 90 05 	j	6232
   1207c:	93 87 4a 00 	addi	a5, s5, 4
   12080:	23 2c f1 00 	sw	a5, 24(sp)
   12084:	93 77 04 01 	andi	a5, s0, 16
   12088:	63 88 07 00 	beqz	a5, 16
   1208c:	83 ac 0a 00 	lw	s9, 0(s5)
   12090:	93 dd fc 41 	srai	s11, s9, 31
   12094:	6f f0 df f9 	j	-100
   12098:	93 77 04 04 	andi	a5, s0, 64
   1209c:	83 ac 0a 00 	lw	s9, 0(s5)
   120a0:	63 88 07 00 	beqz	a5, 16
   120a4:	93 9c 0c 01 	slli	s9, s9, 16
   120a8:	93 dc 0c 41 	srai	s9, s9, 16
   120ac:	6f f0 5f fe 	j	-28
   120b0:	93 77 04 20 	andi	a5, s0, 512
   120b4:	e3 8e 07 fc 	beqz	a5, -36
   120b8:	93 9c 8c 01 	slli	s9, s9, 24
   120bc:	93 dc 8c 41 	srai	s9, s9, 24
   120c0:	6f f0 1f fd 	j	-48
   120c4:	93 77 84 00 	andi	a5, s0, 8
   120c8:	63 88 07 0a 	beqz	a5, 176
   120cc:	93 87 4a 00 	addi	a5, s5, 4
   120d0:	23 2c f1 00 	sw	a5, 24(sp)
   120d4:	83 a7 0a 00 	lw	a5, 0(s5)
   120d8:	03 a6 07 00 	lw	a2, 0(a5)
   120dc:	83 a6 47 00 	lw	a3, 4(a5)
   120e0:	03 a7 87 00 	lw	a4, 8(a5)
   120e4:	83 a7 c7 00 	lw	a5, 12(a5)
   120e8:	23 20 c1 0e 	sw	a2, 224(sp)
   120ec:	23 22 d1 0e 	sw	a3, 228(sp)
   120f0:	23 24 e1 0e 	sw	a4, 232(sp)
   120f4:	13 05 01 0e 	addi	a0, sp, 224
   120f8:	23 26 f1 0e 	sw	a5, 236(sp)
   120fc:	ef 40 80 4b 	jal	17592
   12100:	23 2e a1 0a 	sw	a0, 188(sp)
   12104:	93 07 20 00 	addi	a5, zero, 2
   12108:	63 1e f5 0a 	bne	a0, a5, 188
   1210c:	83 27 01 0e 	lw	a5, 224(sp)
   12110:	93 05 01 09 	addi	a1, sp, 144
   12114:	13 05 01 0a 	addi	a0, sp, 160
   12118:	23 20 f1 0a 	sw	a5, 160(sp)
   1211c:	83 27 41 0e 	lw	a5, 228(sp)
   12120:	23 28 01 08 	sw	zero, 144(sp)
   12124:	23 2a 01 08 	sw	zero, 148(sp)
   12128:	23 22 f1 0a 	sw	a5, 164(sp)
   1212c:	83 27 81 0e 	lw	a5, 232(sp)
   12130:	23 2c 01 08 	sw	zero, 152(sp)
   12134:	23 2e 01 08 	sw	zero, 156(sp)
   12138:	23 24 f1 0a 	sw	a5, 168(sp)
   1213c:	83 27 c1 0e 	lw	a5, 236(sp)
   12140:	23 26 f1 0a 	sw	a5, 172(sp)
   12144:	ef c0 50 12 	jal	51492
   12148:	63 56 05 00 	bgez	a0, 12
   1214c:	93 07 d0 02 	addi	a5, zero, 45
   12150:	a3 0b f1 0a 	sb	a5, 183(sp)
   12154:	93 07 70 04 	addi	a5, zero, 71
   12158:	63 d0 67 07 	bge	a5, s6, 96
   1215c:	b7 24 02 00 	lui	s1, 34
   12160:	93 84 44 fc 	addi	s1, s1, -60
   12164:	13 74 f4 f7 	andi	s0, s0, -129
   12168:	23 26 01 00 	sw	zero, 12(sp)
   1216c:	13 0d 30 00 	addi	s10, zero, 3
   12170:	13 07 00 00 	mv	a4, zero
   12174:	6f 00 10 31 	j	2832
   12178:	93 8a 7a 00 	addi	s5, s5, 7
   1217c:	93 fa 8a ff 	andi	s5, s5, -8
   12180:	83 a5 0a 00 	lw	a1, 0(s5)
   12184:	03 a6 4a 00 	lw	a2, 4(s5)
   12188:	93 87 8a 00 	addi	a5, s5, 8
   1218c:	13 05 01 0a 	addi	a0, sp, 160
   12190:	23 2c f1 00 	sw	a5, 24(sp)
   12194:	ef f0 80 5f 	jal	62968
   12198:	83 27 01 0a 	lw	a5, 160(sp)
   1219c:	23 20 f1 0e 	sw	a5, 224(sp)
   121a0:	83 27 41 0a 	lw	a5, 164(sp)
   121a4:	23 22 f1 0e 	sw	a5, 228(sp)
   121a8:	83 27 81 0a 	lw	a5, 168(sp)
   121ac:	23 24 f1 0e 	sw	a5, 232(sp)
   121b0:	83 27 c1 0a 	lw	a5, 172(sp)
   121b4:	6f f0 1f f4 	j	-192
   121b8:	b7 24 02 00 	lui	s1, 34
   121bc:	93 84 04 fc 	addi	s1, s1, -64
   121c0:	6f f0 5f fa 	j	-92
   121c4:	93 07 10 00 	addi	a5, zero, 1
   121c8:	63 1a f5 02 	bne	a0, a5, 52
   121cc:	83 27 c1 0e 	lw	a5, 236(sp)
   121d0:	63 d6 07 00 	bgez	a5, 12
   121d4:	93 07 d0 02 	addi	a5, zero, 45
   121d8:	a3 0b f1 0a 	sb	a5, 183(sp)
   121dc:	93 07 70 04 	addi	a5, zero, 71
   121e0:	63 d8 67 01 	bge	a5, s6, 16
   121e4:	b7 24 02 00 	lui	s1, 34
   121e8:	93 84 c4 fc 	addi	s1, s1, -52
   121ec:	6f f0 9f f7 	j	-136
   121f0:	b7 24 02 00 	lui	s1, 34
   121f4:	93 84 84 fc 	addi	s1, s1, -56
   121f8:	6f f0 df f6 	j	-148
   121fc:	13 7c fb fd 	andi	s8, s6, -33
   12200:	93 07 10 04 	addi	a5, zero, 65
   12204:	63 1e fc 04 	bne	s8, a5, 92
   12208:	93 07 00 03 	addi	a5, zero, 48
   1220c:	23 0c f1 0a 	sb	a5, 184(sp)
   12210:	13 07 10 06 	addi	a4, zero, 97
   12214:	93 07 80 07 	addi	a5, zero, 120
   12218:	63 04 eb 00 	beq	s6, a4, 8
   1221c:	93 07 80 05 	addi	a5, zero, 88
   12220:	a3 0c f1 0a 	sb	a5, 185(sp)
   12224:	93 07 30 06 	addi	a5, zero, 99
   12228:	13 64 24 00 	ori	s0, s0, 2
   1222c:	63 d4 a7 4b 	bge	a5, s10, 1192
   12230:	93 05 1d 00 	addi	a1, s10, 1
   12234:	13 85 09 00 	mv	a0, s3
   12238:	ef e0 5f ee 	jal	-4380
   1223c:	93 04 05 00 	mv	s1, a0
   12240:	63 10 05 4a 	bnez	a0, 1184
   12244:	83 57 c9 00 	lhu	a5, 12(s2)
   12248:	93 e7 07 04 	ori	a5, a5, 64
   1224c:	23 16 f9 00 	sh	a5, 12(s2)
   12250:	83 57 c9 00 	lhu	a5, 12(s2)
   12254:	93 f7 07 04 	andi	a5, a5, 64
   12258:	63 82 07 fe 	beqz	a5, -2076
   1225c:	6f f0 8f fd 	j	-2088
   12260:	93 07 f0 ff 	addi	a5, zero, -1
   12264:	63 02 fd 48 	beq	s10, a5, 1156
   12268:	93 07 70 04 	addi	a5, zero, 71
   1226c:	23 26 01 00 	sw	zero, 12(sp)
   12270:	63 18 fc 00 	bne	s8, a5, 16
   12274:	63 16 0d 00 	bnez	s10, 12
   12278:	23 26 a1 01 	sw	s10, 12(sp)
   1227c:	13 0d 10 00 	addi	s10, zero, 1
   12280:	03 2a c1 0e 	lw	s4, 236(sp)
   12284:	93 67 04 10 	ori	a5, s0, 256
   12288:	23 26 f1 02 	sw	a5, 44(sp)
   1228c:	23 22 01 04 	sw	zero, 68(sp)
   12290:	83 2e 01 0e 	lw	t4, 224(sp)
   12294:	03 2e 41 0e 	lw	t3, 228(sp)
   12298:	83 2d 81 0e 	lw	s11, 232(sp)
   1229c:	63 5a 0a 00 	bgez	s4, 20
   122a0:	b7 07 00 80 	lui	a5, 524288
   122a4:	33 ca 47 01 	xor	s4, a5, s4
   122a8:	93 07 d0 02 	addi	a5, zero, 45
   122ac:	23 22 f1 04 	sw	a5, 68(sp)
   122b0:	93 07 10 04 	addi	a5, zero, 65
   122b4:	63 14 fc 48 	bne	s8, a5, 1160
   122b8:	13 05 01 0a 	addi	a0, sp, 160
   122bc:	23 20 d1 0b 	sw	t4, 160(sp)
   122c0:	23 22 c1 0b 	sw	t3, 164(sp)
   122c4:	23 24 b1 0b 	sw	s11, 168(sp)
   122c8:	23 26 41 0b 	sw	s4, 172(sp)
   122cc:	ef f0 80 6c 	jal	63176
   122d0:	13 06 c1 0b 	addi	a2, sp, 188
   122d4:	ef 50 40 5a 	jal	21924
   122d8:	13 86 05 00 	mv	a2, a1
   122dc:	93 05 05 00 	mv	a1, a0
   122e0:	13 05 01 0a 	addi	a0, sp, 160
   122e4:	ef f0 80 4a 	jal	62632
   122e8:	83 27 01 0a 	lw	a5, 160(sp)
   122ec:	13 06 01 07 	addi	a2, sp, 112
   122f0:	93 05 01 08 	addi	a1, sp, 128
   122f4:	23 20 f1 08 	sw	a5, 128(sp)
   122f8:	83 27 41 0a 	lw	a5, 164(sp)
   122fc:	13 05 01 09 	addi	a0, sp, 144
   12300:	23 28 01 06 	sw	zero, 112(sp)
   12304:	23 22 f1 08 	sw	a5, 132(sp)
   12308:	83 27 81 0a 	lw	a5, 168(sp)
   1230c:	23 2a 01 06 	sw	zero, 116(sp)
   12310:	23 2c 01 06 	sw	zero, 120(sp)
   12314:	23 24 f1 08 	sw	a5, 136(sp)
   12318:	83 27 c1 0a 	lw	a5, 172(sp)
   1231c:	23 26 f1 08 	sw	a5, 140(sp)
   12320:	b7 07 fc 3f 	lui	a5, 262080
   12324:	23 2e f1 06 	sw	a5, 124(sp)
   12328:	ef c0 50 08 	jal	51332
   1232c:	03 28 01 09 	lw	a6, 144(sp)
   12330:	03 26 41 09 	lw	a2, 148(sp)
   12334:	83 26 81 09 	lw	a3, 152(sp)
   12338:	83 2d c1 09 	lw	s11, 156(sp)
   1233c:	93 05 01 09 	addi	a1, sp, 144
   12340:	13 05 01 0a 	addi	a0, sp, 160
   12344:	23 20 01 0b 	sw	a6, 160(sp)
   12348:	23 2a 01 05 	sw	a6, 84(sp)
   1234c:	23 22 c1 0a 	sw	a2, 164(sp)
   12350:	23 28 c1 04 	sw	a2, 80(sp)
   12354:	23 24 d1 0a 	sw	a3, 168(sp)
   12358:	23 24 d1 04 	sw	a3, 72(sp)
   1235c:	23 26 b1 0b 	sw	s11, 172(sp)
   12360:	23 28 01 08 	sw	zero, 144(sp)
   12364:	23 2a 01 08 	sw	zero, 148(sp)
   12368:	23 2c 01 08 	sw	zero, 152(sp)
   1236c:	23 2e 01 08 	sw	zero, 156(sp)
   12370:	ef c0 80 4e 	jal	50408
   12374:	83 26 81 04 	lw	a3, 72(sp)
   12378:	03 26 01 05 	lw	a2, 80(sp)
   1237c:	03 28 41 05 	lw	a6, 84(sp)
   12380:	63 16 05 00 	bnez	a0, 12
   12384:	93 07 10 00 	addi	a5, zero, 1
   12388:	23 2e f1 0a 	sw	a5, 188(sp)
   1238c:	93 07 10 06 	addi	a5, zero, 97
   12390:	63 02 fb 36 	beq	s6, a5, 868
   12394:	37 2a 02 00 	lui	s4, 34
   12398:	13 0a 4a fe 	addi	s4, s4, -28
   1239c:	13 0e fd ff 	addi	t3, s10, -1
   123a0:	93 8c 04 00 	mv	s9, s1
   123a4:	b7 07 03 40 	lui	a5, 262192
   123a8:	93 05 01 09 	addi	a1, sp, 144
   123ac:	23 2a c1 08 	sw	a2, 148(sp)
   123b0:	13 05 01 0a 	addi	a0, sp, 160
   123b4:	13 06 01 08 	addi	a2, sp, 128
   123b8:	23 2c c1 05 	sw	t3, 88(sp)
   123bc:	23 26 f1 08 	sw	a5, 140(sp)
   123c0:	23 28 01 09 	sw	a6, 144(sp)
   123c4:	23 2c d1 08 	sw	a3, 152(sp)
   123c8:	23 2e b1 09 	sw	s11, 156(sp)
   123cc:	23 20 01 08 	sw	zero, 128(sp)
   123d0:	23 22 01 08 	sw	zero, 132(sp)
   123d4:	23 24 01 08 	sw	zero, 136(sp)
   123d8:	ef c0 40 7d 	jal	51156
   123dc:	03 26 01 0a 	lw	a2, 160(sp)
   123e0:	83 26 41 0a 	lw	a3, 164(sp)
   123e4:	03 27 81 0a 	lw	a4, 168(sp)
   123e8:	13 05 01 0a 	addi	a0, sp, 160
   123ec:	23 2a c1 04 	sw	a2, 84(sp)
   123f0:	23 28 d1 04 	sw	a3, 80(sp)
   123f4:	23 24 e1 04 	sw	a4, 72(sp)
   123f8:	ef f0 c0 0b 	jal	61628
   123fc:	93 05 05 00 	mv	a1, a0
   12400:	93 0a 05 00 	mv	s5, a0
   12404:	13 05 01 0a 	addi	a0, sp, 160
   12408:	83 2d c1 0a 	lw	s11, 172(sp)
   1240c:	ef f0 80 1f 	jal	61944
   12410:	03 27 81 04 	lw	a4, 72(sp)
   12414:	03 26 41 05 	lw	a2, 84(sp)
   12418:	83 26 01 05 	lw	a3, 80(sp)
   1241c:	23 24 e1 08 	sw	a4, 136(sp)
   12420:	03 27 01 0a 	lw	a4, 160(sp)
   12424:	23 20 c1 08 	sw	a2, 128(sp)
   12428:	93 05 01 08 	addi	a1, sp, 128
   1242c:	23 28 e1 06 	sw	a4, 112(sp)
   12430:	03 27 41 0a 	lw	a4, 164(sp)
   12434:	13 06 01 07 	addi	a2, sp, 112
   12438:	13 05 01 09 	addi	a0, sp, 144
   1243c:	23 2a e1 06 	sw	a4, 116(sp)
   12440:	03 27 81 0a 	lw	a4, 168(sp)
   12444:	23 26 b1 09 	sw	s11, 140(sp)
   12448:	23 22 d1 08 	sw	a3, 132(sp)
   1244c:	23 2c e1 06 	sw	a4, 120(sp)
   12450:	03 27 c1 0a 	lw	a4, 172(sp)
   12454:	93 8c 1c 00 	addi	s9, s9, 1
   12458:	23 2e e1 06 	sw	a4, 124(sp)
   1245c:	ef d0 90 2b 	jal	55992
   12460:	b3 05 5a 01 	add	a1, s4, s5
   12464:	83 c5 05 00 	lbu	a1, 0(a1)
   12468:	03 2e 81 05 	lw	t3, 88(sp)
   1246c:	83 2e c1 09 	lw	t4, 156(sp)
   12470:	83 22 01 09 	lw	t0, 144(sp)
   12474:	83 2f 41 09 	lw	t6, 148(sp)
   12478:	03 2f 81 09 	lw	t5, 152(sp)
   1247c:	23 24 c1 05 	sw	t3, 72(sp)
   12480:	a3 8f bc fe 	sb	a1, -1(s9)
   12484:	93 07 f0 ff 	addi	a5, zero, -1
   12488:	93 8d 0e 00 	mv	s11, t4
   1248c:	63 0c fe 06 	beq	t3, a5, 120
   12490:	13 0e fe ff 	addi	t3, t3, -1
   12494:	93 05 01 09 	addi	a1, sp, 144
   12498:	13 05 01 0a 	addi	a0, sp, 160
   1249c:	23 26 d1 07 	sw	t4, 108(sp)
   124a0:	23 24 e1 07 	sw	t5, 104(sp)
   124a4:	23 22 f1 07 	sw	t6, 100(sp)
   124a8:	23 20 51 06 	sw	t0, 96(sp)
   124ac:	23 2e c1 05 	sw	t3, 92(sp)
   124b0:	23 20 51 0a 	sw	t0, 160(sp)
   124b4:	23 2c 51 04 	sw	t0, 88(sp)
   124b8:	23 22 f1 0b 	sw	t6, 164(sp)
   124bc:	23 2a f1 05 	sw	t6, 84(sp)
   124c0:	23 24 e1 0b 	sw	t5, 168(sp)
   124c4:	23 28 e1 05 	sw	t5, 80(sp)
   124c8:	23 26 d1 0b 	sw	t4, 172(sp)
   124cc:	23 28 01 08 	sw	zero, 144(sp)
   124d0:	23 2a 01 08 	sw	zero, 148(sp)
   124d4:	23 2c 01 08 	sw	zero, 152(sp)
   124d8:	23 2e 01 08 	sw	zero, 156(sp)
   124dc:	ef c0 c0 37 	jal	50044
   124e0:	83 26 01 05 	lw	a3, 80(sp)
   124e4:	03 26 41 05 	lw	a2, 84(sp)
   124e8:	03 28 81 05 	lw	a6, 88(sp)
   124ec:	03 2e c1 05 	lw	t3, 92(sp)
   124f0:	83 22 01 06 	lw	t0, 96(sp)
   124f4:	83 2f 41 06 	lw	t6, 100(sp)
   124f8:	03 2f 81 06 	lw	t5, 104(sp)
   124fc:	83 2e c1 06 	lw	t4, 108(sp)
   12500:	e3 12 05 ea 	bnez	a0, -348
   12504:	b7 0d fe 3f 	lui	s11, 262112
   12508:	93 05 01 09 	addi	a1, sp, 144
   1250c:	13 05 01 0a 	addi	a0, sp, 160
   12510:	23 20 51 0a 	sw	t0, 160(sp)
   12514:	23 2e 51 04 	sw	t0, 92(sp)
   12518:	23 22 f1 0b 	sw	t6, 164(sp)
   1251c:	23 2c f1 05 	sw	t6, 88(sp)
   12520:	23 24 e1 0b 	sw	t5, 168(sp)
   12524:	23 2a e1 05 	sw	t5, 84(sp)
   12528:	23 26 d1 0b 	sw	t4, 172(sp)
   1252c:	23 28 d1 05 	sw	t4, 80(sp)
   12530:	23 28 01 08 	sw	zero, 144(sp)
   12534:	23 2a 01 08 	sw	zero, 148(sp)
   12538:	23 2c 01 08 	sw	zero, 152(sp)
   1253c:	23 2e b1 09 	sw	s11, 156(sp)
   12540:	ef c0 40 3e 	jal	50148
   12544:	63 46 a0 04 	bgtz	a0, 76
   12548:	83 22 c1 05 	lw	t0, 92(sp)
   1254c:	83 2f 81 05 	lw	t6, 88(sp)
   12550:	03 2f 41 05 	lw	t5, 84(sp)
   12554:	83 2e 01 05 	lw	t4, 80(sp)
   12558:	93 05 01 09 	addi	a1, sp, 144
   1255c:	13 05 01 0a 	addi	a0, sp, 160
   12560:	23 20 51 0a 	sw	t0, 160(sp)
   12564:	23 22 f1 0b 	sw	t6, 164(sp)
   12568:	23 24 e1 0b 	sw	t5, 168(sp)
   1256c:	23 26 d1 0b 	sw	t4, 172(sp)
   12570:	23 28 01 08 	sw	zero, 144(sp)
   12574:	23 2a 01 08 	sw	zero, 148(sp)
   12578:	23 2c 01 08 	sw	zero, 152(sp)
   1257c:	23 2e b1 09 	sw	s11, 156(sp)
   12580:	ef c0 80 2d 	jal	49880
   12584:	63 12 05 1a 	bnez	a0, 420
   12588:	93 fa 1a 00 	andi	s5, s5, 1
   1258c:	63 8e 0a 18 	beqz	s5, 412
   12590:	03 46 fa 00 	lbu	a2, 15(s4)
   12594:	23 26 91 0d 	sw	s9, 204(sp)
   12598:	93 05 00 03 	addi	a1, zero, 48
   1259c:	83 26 c1 0c 	lw	a3, 204(sp)
   125a0:	13 87 f6 ff 	addi	a4, a3, -1
   125a4:	23 26 e1 0c 	sw	a4, 204(sp)
   125a8:	03 c7 f6 ff 	lbu	a4, -1(a3)
   125ac:	63 0a c7 14 	beq	a4, a2, 340
   125b0:	13 06 90 03 	addi	a2, zero, 57
   125b4:	63 1a c7 14 	bne	a4, a2, 340
   125b8:	03 47 aa 00 	lbu	a4, 10(s4)
   125bc:	a3 8f e6 fe 	sb	a4, -1(a3)
   125c0:	13 8a 0c 00 	mv	s4, s9
   125c4:	13 07 70 04 	addi	a4, zero, 71
   125c8:	33 0a 9a 40 	sub	s4, s4, s1
   125cc:	83 2d c1 0b 	lw	s11, 188(sp)
   125d0:	63 16 ec 2a 	bne	s8, a4, 684
   125d4:	13 07 d0 ff 	addi	a4, zero, -3
   125d8:	63 c4 ed 00 	blt	s11, a4, 8
   125dc:	63 50 bd 33 	bge	s10, s11, 800
   125e0:	13 0b eb ff 	addi	s6, s6, -2
   125e4:	93 8a fd ff 	addi	s5, s11, -1
   125e8:	23 2e 51 0b 	sw	s5, 188(sp)
   125ec:	93 76 fb fd 	andi	a3, s6, -33
   125f0:	93 05 10 04 	addi	a1, zero, 65
   125f4:	13 77 fb 0f 	andi	a4, s6, 255
   125f8:	13 06 00 00 	mv	a2, zero
   125fc:	63 98 b6 00 	bne	a3, a1, 16
   12600:	13 07 f7 00 	addi	a4, a4, 15
   12604:	13 77 f7 0f 	andi	a4, a4, 255
   12608:	13 06 10 00 	addi	a2, zero, 1
   1260c:	23 02 e1 0c 	sb	a4, 196(sp)
   12610:	93 07 b0 02 	addi	a5, zero, 43
   12614:	63 d8 0a 00 	bgez	s5, 16
   12618:	93 0a 10 00 	addi	s5, zero, 1
   1261c:	b3 8a ba 41 	sub	s5, s5, s11
   12620:	93 07 d0 02 	addi	a5, zero, 45
   12624:	a3 02 f1 0c 	sb	a5, 197(sp)
   12628:	93 07 90 00 	addi	a5, zero, 9
   1262c:	63 de 57 29 	bge	a5, s5, 668
   12630:	13 0c 31 0d 	addi	s8, sp, 211
   12634:	93 0d 0c 00 	mv	s11, s8
   12638:	13 0d 30 06 	addi	s10, zero, 99
   1263c:	93 05 a0 00 	addi	a1, zero, 10
   12640:	13 85 0a 00 	mv	a0, s5
   12644:	ef f0 c0 72 	jal	63276
   12648:	13 05 05 03 	addi	a0, a0, 48
   1264c:	a3 0f ac fe 	sb	a0, -1(s8)
   12650:	93 05 a0 00 	addi	a1, zero, 10
   12654:	13 85 0a 00 	mv	a0, s5
   12658:	93 0c fc ff 	addi	s9, s8, -1
   1265c:	ef f0 00 69 	jal	63120
   12660:	63 44 5d 25 	blt	s10, s5, 584
   12664:	13 05 05 03 	addi	a0, a0, 48
   12668:	13 0c ec ff 	addi	s8, s8, -2
   1266c:	a3 8f ac fe 	sb	a0, -1(s9)
   12670:	93 07 61 0c 	addi	a5, sp, 198
   12674:	63 60 bc 25 	bltu	s8, s11, 576
   12678:	13 07 41 0c 	addi	a4, sp, 196
   1267c:	b3 87 e7 40 	sub	a5, a5, a4
   12680:	23 2e f1 02 	sw	a5, 60(sp)
   12684:	33 8d 47 01 	add	s10, a5, s4
   12688:	93 07 10 00 	addi	a5, zero, 1
   1268c:	63 c6 47 01 	blt	a5, s4, 12
   12690:	93 77 14 00 	andi	a5, s0, 1
   12694:	63 86 07 00 	beqz	a5, 12
   12698:	83 27 01 02 	lw	a5, 32(sp)
   1269c:	33 0d fd 00 	add	s10, s10, a5
   126a0:	13 74 f4 bf 	andi	s0, s0, -1025
   126a4:	93 67 04 10 	ori	a5, s0, 256
   126a8:	23 26 f1 02 	sw	a5, 44(sp)
   126ac:	93 0c 00 00 	mv	s9, zero
   126b0:	13 0c 00 00 	mv	s8, zero
   126b4:	93 0d 00 00 	mv	s11, zero
   126b8:	83 27 41 04 	lw	a5, 68(sp)
   126bc:	63 86 07 00 	beqz	a5, 12
   126c0:	13 07 d0 02 	addi	a4, zero, 45
   126c4:	a3 0b e1 0a 	sb	a4, 183(sp)
   126c8:	03 24 c1 02 	lw	s0, 44(sp)
   126cc:	13 07 00 00 	mv	a4, zero
   126d0:	6f f0 8f e8 	j	-2424
   126d4:	23 26 01 00 	sw	zero, 12(sp)
   126d8:	93 04 c1 13 	addi	s1, sp, 316
   126dc:	6f f0 5f ba 	j	-1116
   126e0:	23 26 a1 00 	sw	a0, 12(sp)
   126e4:	6f f0 df b9 	j	-1124
   126e8:	23 26 01 00 	sw	zero, 12(sp)
   126ec:	13 0d 60 00 	addi	s10, zero, 6
   126f0:	6f f0 1f b9 	j	-1136
   126f4:	37 2a 02 00 	lui	s4, 34
   126f8:	13 0a 0a fd 	addi	s4, s4, -48
   126fc:	6f f0 1f ca 	j	-864
   12700:	a3 8f b6 fe 	sb	a1, -1(a3)
   12704:	6f f0 9f e9 	j	-360
   12708:	13 07 17 00 	addi	a4, a4, 1
   1270c:	13 77 f7 0f 	andi	a4, a4, 255
   12710:	6f f0 df ea 	j	-340
   12714:	13 0a 1a 00 	addi	s4, s4, 1
   12718:	a3 0f ea fe 	sb	a4, -1(s4)
   1271c:	b3 87 4c 41 	sub	a5, s9, s4
   12720:	e3 da 07 fe 	bgez	a5, -12
   12724:	6f f0 1f ea 	j	-352
   12728:	83 27 81 04 	lw	a5, 72(sp)
   1272c:	13 8a 0c 00 	mv	s4, s9
   12730:	13 07 00 03 	addi	a4, zero, 48
   12734:	b3 8c fc 00 	add	s9, s9, a5
   12738:	6f f0 5f fe 	j	-28
   1273c:	93 07 60 04 	addi	a5, zero, 70
   12740:	63 0e fc 00 	beq	s8, a5, 28
   12744:	93 07 50 04 	addi	a5, zero, 69
   12748:	93 0a 1d 00 	addi	s5, s10, 1
   1274c:	63 04 fc 00 	beq	s8, a5, 8
   12750:	93 0a 0d 00 	mv	s5, s10
   12754:	13 06 20 00 	addi	a2, zero, 2
   12758:	6f 00 c0 00 	j	12
   1275c:	93 0a 0d 00 	mv	s5, s10
   12760:	13 06 30 00 	addi	a2, zero, 3
   12764:	93 07 01 0c 	addi	a5, sp, 192
   12768:	13 08 c1 0c 	addi	a6, sp, 204
   1276c:	13 07 c1 0b 	addi	a4, sp, 188
   12770:	93 86 0a 00 	mv	a3, s5
   12774:	93 05 01 0a 	addi	a1, sp, 160
   12778:	13 85 09 00 	mv	a0, s3
   1277c:	23 20 d1 0b 	sw	t4, 160(sp)
   12780:	23 28 d1 05 	sw	t4, 80(sp)
   12784:	23 22 c1 0b 	sw	t3, 164(sp)
   12788:	23 24 c1 05 	sw	t3, 72(sp)
   1278c:	23 24 b1 0b 	sw	s11, 168(sp)
   12790:	23 26 41 0b 	sw	s4, 172(sp)
   12794:	ef 30 00 22 	jal	12832
   12798:	93 07 70 04 	addi	a5, zero, 71
   1279c:	93 04 05 00 	mv	s1, a0
   127a0:	03 2e 81 04 	lw	t3, 72(sp)
   127a4:	83 2e 01 05 	lw	t4, 80(sp)
   127a8:	63 1a fc 00 	bne	s8, a5, 20
   127ac:	93 77 14 00 	andi	a5, s0, 1
   127b0:	63 96 07 00 	bnez	a5, 12
   127b4:	03 2a c1 0c 	lw	s4, 204(sp)
   127b8:	6f f0 df e0 	j	-500
   127bc:	93 07 60 04 	addi	a5, zero, 70
   127c0:	b3 8c 54 01 	add	s9, s1, s5
   127c4:	63 12 fc 06 	bne	s8, a5, 100
   127c8:	03 c7 04 00 	lbu	a4, 0(s1)
   127cc:	93 07 00 03 	addi	a5, zero, 48
   127d0:	63 18 f7 04 	bne	a4, a5, 80
   127d4:	93 05 01 09 	addi	a1, sp, 144
   127d8:	13 05 01 0a 	addi	a0, sp, 160
   127dc:	23 20 d1 0b 	sw	t4, 160(sp)
   127e0:	23 28 d1 05 	sw	t4, 80(sp)
   127e4:	23 22 c1 0b 	sw	t3, 164(sp)
   127e8:	23 24 c1 05 	sw	t3, 72(sp)
   127ec:	23 24 b1 0b 	sw	s11, 168(sp)
   127f0:	23 26 41 0b 	sw	s4, 172(sp)
   127f4:	23 28 01 08 	sw	zero, 144(sp)
   127f8:	23 2a 01 08 	sw	zero, 148(sp)
   127fc:	23 2c 01 08 	sw	zero, 152(sp)
   12800:	23 2e 01 08 	sw	zero, 156(sp)
   12804:	ef c0 40 05 	jal	49236
   12808:	03 2e 81 04 	lw	t3, 72(sp)
   1280c:	83 2e 01 05 	lw	t4, 80(sp)
   12810:	63 08 05 00 	beqz	a0, 16
   12814:	93 07 10 00 	addi	a5, zero, 1
   12818:	b3 8a 57 41 	sub	s5, a5, s5
   1281c:	23 2e 51 0b 	sw	s5, 188(sp)
   12820:	83 27 c1 0b 	lw	a5, 188(sp)
   12824:	b3 8c fc 00 	add	s9, s9, a5
   12828:	93 05 01 09 	addi	a1, sp, 144
   1282c:	13 05 01 0a 	addi	a0, sp, 160
   12830:	23 20 d1 0b 	sw	t4, 160(sp)
   12834:	23 22 c1 0b 	sw	t3, 164(sp)
   12838:	23 24 b1 0b 	sw	s11, 168(sp)
   1283c:	23 26 41 0b 	sw	s4, 172(sp)
   12840:	23 28 01 08 	sw	zero, 144(sp)
   12844:	23 2a 01 08 	sw	zero, 148(sp)
   12848:	23 2c 01 08 	sw	zero, 152(sp)
   1284c:	23 2e 01 08 	sw	zero, 156(sp)
   12850:	ef c0 80 00 	jal	49160
   12854:	63 14 05 00 	bnez	a0, 8
   12858:	23 26 91 0d 	sw	s9, 204(sp)
   1285c:	13 07 00 03 	addi	a4, zero, 48
   12860:	6f 00 00 01 	j	16
   12864:	93 86 17 00 	addi	a3, a5, 1
   12868:	23 26 d1 0c 	sw	a3, 204(sp)
   1286c:	23 80 e7 00 	sb	a4, 0(a5)
   12870:	83 27 c1 0c 	lw	a5, 204(sp)
   12874:	e3 e8 97 ff 	bltu	a5, s9, -16
   12878:	6f f0 df f3 	j	-196
   1287c:	13 07 60 04 	addi	a4, zero, 70
   12880:	e3 12 ec d6 	bne	s8, a4, -668
   12884:	13 77 14 00 	andi	a4, s0, 1
   12888:	33 67 a7 01 	or	a4, a4, s10
   1288c:	63 50 b0 07 	blez	s11, 96
   12890:	63 00 07 0c 	beqz	a4, 192
   12894:	83 27 01 02 	lw	a5, 32(sp)
   12898:	33 87 fd 00 	add	a4, s11, a5
   1289c:	33 0d ed 00 	add	s10, s10, a4
   128a0:	13 0b 60 06 	addi	s6, zero, 102
   128a4:	6f 00 00 09 	j	144
   128a8:	13 8c 0c 00 	mv	s8, s9
   128ac:	93 0a 05 00 	mv	s5, a0
   128b0:	6f f0 df d8 	j	-628
   128b4:	13 0c 1c 00 	addi	s8, s8, 1
   128b8:	03 47 fc ff 	lbu	a4, -1(s8)
   128bc:	93 87 17 00 	addi	a5, a5, 1
   128c0:	a3 8f e7 fe 	sb	a4, -1(a5)
   128c4:	6f f0 1f db 	j	-592
   128c8:	13 07 61 0c 	addi	a4, sp, 198
   128cc:	63 18 06 00 	bnez	a2, 16
   128d0:	93 07 00 03 	addi	a5, zero, 48
   128d4:	23 03 f1 0c 	sb	a5, 198(sp)
   128d8:	13 07 71 0c 	addi	a4, sp, 199
   128dc:	93 8a 0a 03 	addi	s5, s5, 48
   128e0:	93 07 17 00 	addi	a5, a4, 1
   128e4:	23 00 57 01 	sb	s5, 0(a4)
   128e8:	6f f0 1f d9 	j	-624
   128ec:	63 06 07 06 	beqz	a4, 108
   128f0:	83 27 01 02 	lw	a5, 32(sp)
   128f4:	13 87 17 00 	addi	a4, a5, 1
   128f8:	6f f0 5f fa 	j	-92
   128fc:	63 c0 4d 03 	blt	s11, s4, 32
   12900:	13 77 14 00 	andi	a4, s0, 1
   12904:	13 8d 0d 00 	mv	s10, s11
   12908:	63 06 07 00 	beqz	a4, 12
   1290c:	83 27 01 02 	lw	a5, 32(sp)
   12910:	33 8d fd 00 	add	s10, s11, a5
   12914:	13 0b 70 06 	addi	s6, zero, 103
   12918:	6f 00 c0 01 	j	28
   1291c:	83 27 01 02 	lw	a5, 32(sp)
   12920:	13 0b 70 06 	addi	s6, zero, 103
   12924:	33 0d fa 00 	add	s10, s4, a5
   12928:	63 46 b0 01 	bgtz	s11, 12
   1292c:	33 03 bd 41 	sub	t1, s10, s11
   12930:	13 0d 13 00 	addi	s10, t1, 1
   12934:	13 7c 04 40 	andi	s8, s0, 1024
   12938:	93 0c 00 00 	mv	s9, zero
   1293c:	e3 0e 0c d6 	beqz	s8, -644
   12940:	13 0c 00 00 	mv	s8, zero
   12944:	e3 5a b0 d7 	blez	s11, -652
   12948:	93 06 f0 0f 	addi	a3, zero, 255
   1294c:	6f 00 80 03 	j	56
   12950:	13 8d 0d 00 	mv	s10, s11
   12954:	6f f0 df f4 	j	-180
   12958:	13 0b 60 06 	addi	s6, zero, 102
   1295c:	13 0d 10 00 	addi	s10, zero, 1
   12960:	6f f0 5f fd 	j	-44
   12964:	63 56 b7 03 	bge	a4, s11, 44
   12968:	83 27 01 01 	lw	a5, 16(sp)
   1296c:	b3 8d ed 40 	sub	s11, s11, a4
   12970:	03 c7 17 00 	lbu	a4, 1(a5)
   12974:	63 08 07 02 	beqz	a4, 48
   12978:	93 87 17 00 	addi	a5, a5, 1
   1297c:	13 0c 1c 00 	addi	s8, s8, 1
   12980:	23 28 f1 00 	sw	a5, 16(sp)
   12984:	83 27 01 01 	lw	a5, 16(sp)
   12988:	03 c7 07 00 	lbu	a4, 0(a5)
   1298c:	e3 1c d7 fc 	bne	a4, a3, -40
   12990:	83 25 01 03 	lw	a1, 48(sp)
   12994:	33 05 9c 01 	add	a0, s8, s9
   12998:	ef f0 00 33 	jal	62256
   1299c:	33 0d a5 01 	add	s10, a0, s10
   129a0:	6f f0 9f d1 	j	-744
   129a4:	93 8c 1c 00 	addi	s9, s9, 1
   129a8:	6f f0 df fd 	j	-36
   129ac:	13 87 4a 00 	addi	a4, s5, 4
   129b0:	23 2c e1 00 	sw	a4, 24(sp)
   129b4:	13 77 04 02 	andi	a4, s0, 32
   129b8:	83 a7 0a 00 	lw	a5, 0(s5)
   129bc:	63 00 07 02 	beqz	a4, 32
   129c0:	03 27 41 02 	lw	a4, 36(sp)
   129c4:	23 a0 e7 00 	sw	a4, 0(a5)
   129c8:	13 57 f7 41 	srai	a4, a4, 31
   129cc:	23 a2 e7 00 	sw	a4, 4(a5)
   129d0:	83 2a 81 01 	lw	s5, 24(sp)
   129d4:	83 24 c1 01 	lw	s1, 28(sp)
   129d8:	6f f0 cf 8e 	j	-3860
   129dc:	13 77 04 01 	andi	a4, s0, 16
   129e0:	63 08 07 00 	beqz	a4, 16
   129e4:	03 27 41 02 	lw	a4, 36(sp)
   129e8:	23 a0 e7 00 	sw	a4, 0(a5)
   129ec:	6f f0 5f fe 	j	-28
   129f0:	13 77 04 04 	andi	a4, s0, 64
   129f4:	63 08 07 00 	beqz	a4, 16
   129f8:	03 27 41 02 	lw	a4, 36(sp)
   129fc:	23 90 e7 00 	sh	a4, 0(a5)
   12a00:	6f f0 1f fd 	j	-48
   12a04:	13 74 04 20 	andi	s0, s0, 512
   12a08:	e3 0e 04 fc 	beqz	s0, -36
   12a0c:	03 27 41 02 	lw	a4, 36(sp)
   12a10:	23 80 e7 00 	sb	a4, 0(a5)
   12a14:	6f f0 df fb 	j	-68
   12a18:	13 64 04 01 	ori	s0, s0, 16
   12a1c:	93 77 04 02 	andi	a5, s0, 32
   12a20:	63 86 07 02 	beqz	a5, 44
   12a24:	93 8a 7a 00 	addi	s5, s5, 7
   12a28:	93 fa 8a ff 	andi	s5, s5, -8
   12a2c:	83 ac 0a 00 	lw	s9, 0(s5)
   12a30:	83 ad 4a 00 	lw	s11, 4(s5)
   12a34:	93 87 8a 00 	addi	a5, s5, 8
   12a38:	23 2c f1 00 	sw	a5, 24(sp)
   12a3c:	13 74 f4 bf 	andi	s0, s0, -1025
   12a40:	93 07 00 00 	mv	a5, zero
   12a44:	a3 0b 01 0a 	sb	zero, 183(sp)
   12a48:	6f f0 cf e0 	j	-2548
   12a4c:	93 87 4a 00 	addi	a5, s5, 4
   12a50:	23 2c f1 00 	sw	a5, 24(sp)
   12a54:	93 77 04 01 	andi	a5, s0, 16
   12a58:	63 86 07 00 	beqz	a5, 12
   12a5c:	83 ac 0a 00 	lw	s9, 0(s5)
   12a60:	6f 00 00 01 	j	16
   12a64:	93 77 04 04 	andi	a5, s0, 64
   12a68:	63 88 07 00 	beqz	a5, 16
   12a6c:	83 dc 0a 00 	lhu	s9, 0(s5)
   12a70:	93 0d 00 00 	mv	s11, zero
   12a74:	6f f0 9f fc 	j	-56
   12a78:	93 77 04 20 	andi	a5, s0, 512
   12a7c:	e3 80 07 fe 	beqz	a5, -32
   12a80:	83 cc 0a 00 	lbu	s9, 0(s5)
   12a84:	6f f0 df fe 	j	-20
   12a88:	93 87 4a 00 	addi	a5, s5, 4
   12a8c:	23 2c f1 00 	sw	a5, 24(sp)
   12a90:	b7 87 ff ff 	lui	a5, 1048568
   12a94:	93 c7 07 83 	xori	a5, a5, -2000
   12a98:	23 1c f1 0a 	sh	a5, 184(sp)
   12a9c:	b7 27 02 00 	lui	a5, 34
   12aa0:	93 87 07 fd 	addi	a5, a5, -48
   12aa4:	23 20 f1 04 	sw	a5, 64(sp)
   12aa8:	83 ac 0a 00 	lw	s9, 0(s5)
   12aac:	93 0d 00 00 	mv	s11, zero
   12ab0:	13 64 24 00 	ori	s0, s0, 2
   12ab4:	93 07 20 00 	addi	a5, zero, 2
   12ab8:	13 0b 80 07 	addi	s6, zero, 120
   12abc:	6f f0 9f f8 	j	-120
   12ac0:	93 87 4a 00 	addi	a5, s5, 4
   12ac4:	23 2c f1 00 	sw	a5, 24(sp)
   12ac8:	a3 0b 01 0a 	sb	zero, 183(sp)
   12acc:	93 07 f0 ff 	addi	a5, zero, -1
   12ad0:	83 a4 0a 00 	lw	s1, 0(s5)
   12ad4:	63 04 fd 02 	beq	s10, a5, 40
   12ad8:	13 06 0d 00 	mv	a2, s10
   12adc:	93 05 00 00 	mv	a1, zero
   12ae0:	13 85 04 00 	mv	a0, s1
   12ae4:	ef 30 90 4f 	jal	15608
   12ae8:	23 26 a1 00 	sw	a0, 12(sp)
   12aec:	63 02 05 e8 	beqz	a0, -2428
   12af0:	33 0d 95 40 	sub	s10, a0, s1
   12af4:	23 26 01 00 	sw	zero, 12(sp)
   12af8:	6f f0 8f e7 	j	-2440
   12afc:	13 85 04 00 	mv	a0, s1
   12b00:	ef 50 40 05 	jal	20564
   12b04:	13 0d 05 00 	mv	s10, a0
   12b08:	6f f0 df fe 	j	-20
   12b0c:	13 64 04 01 	ori	s0, s0, 16
   12b10:	93 77 04 02 	andi	a5, s0, 32
   12b14:	63 82 07 02 	beqz	a5, 36
   12b18:	93 8a 7a 00 	addi	s5, s5, 7
   12b1c:	93 fa 8a ff 	andi	s5, s5, -8
   12b20:	83 ac 0a 00 	lw	s9, 0(s5)
   12b24:	83 ad 4a 00 	lw	s11, 4(s5)
   12b28:	93 87 8a 00 	addi	a5, s5, 8
   12b2c:	23 2c f1 00 	sw	a5, 24(sp)
   12b30:	93 07 10 00 	addi	a5, zero, 1
   12b34:	6f f0 1f f1 	j	-240
   12b38:	93 87 4a 00 	addi	a5, s5, 4
   12b3c:	23 2c f1 00 	sw	a5, 24(sp)
   12b40:	93 77 04 01 	andi	a5, s0, 16
   12b44:	63 86 07 00 	beqz	a5, 12
   12b48:	83 ac 0a 00 	lw	s9, 0(s5)
   12b4c:	6f 00 00 01 	j	16
   12b50:	93 77 04 04 	andi	a5, s0, 64
   12b54:	63 88 07 00 	beqz	a5, 16
   12b58:	83 dc 0a 00 	lhu	s9, 0(s5)
   12b5c:	93 0d 00 00 	mv	s11, zero
   12b60:	6f f0 1f fd 	j	-48
   12b64:	93 77 04 20 	andi	a5, s0, 512
   12b68:	e3 80 07 fe 	beqz	a5, -32
   12b6c:	83 cc 0a 00 	lbu	s9, 0(s5)
   12b70:	6f f0 df fe 	j	-20
   12b74:	b7 27 02 00 	lui	a5, 34
   12b78:	93 87 47 fe 	addi	a5, a5, -28
   12b7c:	23 20 f1 04 	sw	a5, 64(sp)
   12b80:	93 77 04 02 	andi	a5, s0, 32
   12b84:	63 8a 07 04 	beqz	a5, 84
   12b88:	93 8a 7a 00 	addi	s5, s5, 7
   12b8c:	93 fa 8a ff 	andi	s5, s5, -8
   12b90:	83 ac 0a 00 	lw	s9, 0(s5)
   12b94:	83 ad 4a 00 	lw	s11, 4(s5)
   12b98:	93 87 8a 00 	addi	a5, s5, 8
   12b9c:	23 2c f1 00 	sw	a5, 24(sp)
   12ba0:	93 77 14 00 	andi	a5, s0, 1
   12ba4:	63 8e 07 00 	beqz	a5, 28
   12ba8:	b3 e7 bc 01 	or	a5, s9, s11
   12bac:	63 8a 07 00 	beqz	a5, 20
   12bb0:	93 07 00 03 	addi	a5, zero, 48
   12bb4:	23 0c f1 0a 	sb	a5, 184(sp)
   12bb8:	a3 0c 61 0b 	sb	s6, 185(sp)
   12bbc:	13 64 24 00 	ori	s0, s0, 2
   12bc0:	13 74 f4 bf 	andi	s0, s0, -1025
   12bc4:	93 07 20 00 	addi	a5, zero, 2
   12bc8:	6f f0 df e7 	j	-388
   12bcc:	b7 27 02 00 	lui	a5, 34
   12bd0:	93 87 07 fd 	addi	a5, a5, -48
   12bd4:	6f f0 9f fa 	j	-88
   12bd8:	93 87 4a 00 	addi	a5, s5, 4
   12bdc:	23 2c f1 00 	sw	a5, 24(sp)
   12be0:	93 77 04 01 	andi	a5, s0, 16
   12be4:	63 86 07 00 	beqz	a5, 12
   12be8:	83 ac 0a 00 	lw	s9, 0(s5)
   12bec:	6f 00 00 01 	j	16
   12bf0:	93 77 04 04 	andi	a5, s0, 64
   12bf4:	63 88 07 00 	beqz	a5, 16
   12bf8:	83 dc 0a 00 	lhu	s9, 0(s5)
   12bfc:	93 0d 00 00 	mv	s11, zero
   12c00:	6f f0 1f fa 	j	-96
   12c04:	93 77 04 20 	andi	a5, s0, 512
   12c08:	e3 80 07 fe 	beqz	a5, -32
   12c0c:	83 cc 0a 00 	lbu	s9, 0(s5)
   12c10:	6f f0 df fe 	j	-20
   12c14:	13 07 04 00 	mv	a4, s0
   12c18:	93 07 10 00 	addi	a5, zero, 1
   12c1c:	6f f0 4f c4 	j	-3004
   12c20:	13 07 10 00 	addi	a4, zero, 1
   12c24:	e3 80 e7 4a 	beq	a5, a4, 3232
   12c28:	13 07 20 00 	addi	a4, zero, 2
   12c2c:	63 8a e7 12 	beq	a5, a4, 308
   12c30:	93 07 01 1a 	addi	a5, sp, 416
   12c34:	93 96 dd 01 	slli	a3, s11, 29
   12c38:	13 f7 7c 00 	andi	a4, s9, 7
   12c3c:	93 dc 3c 00 	srli	s9, s9, 3
   12c40:	13 07 07 03 	addi	a4, a4, 48
   12c44:	b3 ec 96 01 	or	s9, a3, s9
   12c48:	93 dd 3d 00 	srli	s11, s11, 3
   12c4c:	a3 8f e7 fe 	sb	a4, -1(a5)
   12c50:	b3 e6 bc 01 	or	a3, s9, s11
   12c54:	93 84 f7 ff 	addi	s1, a5, -1
   12c58:	63 9e 06 02 	bnez	a3, 60
   12c5c:	93 76 14 00 	andi	a3, s0, 1
   12c60:	63 8a 06 00 	beqz	a3, 20
   12c64:	93 06 00 03 	addi	a3, zero, 48
   12c68:	63 06 d7 00 	beq	a4, a3, 12
   12c6c:	a3 8f d4 fe 	sb	a3, -1(s1)
   12c70:	93 84 e7 ff 	addi	s1, a5, -2
   12c74:	93 07 01 1a 	addi	a5, sp, 416
   12c78:	13 07 0d 00 	mv	a4, s10
   12c7c:	23 26 01 00 	sw	zero, 12(sp)
   12c80:	33 8d 97 40 	sub	s10, a5, s1
   12c84:	93 0c 00 00 	mv	s9, zero
   12c88:	13 0c 00 00 	mv	s8, zero
   12c8c:	93 0d 00 00 	mv	s11, zero
   12c90:	6f f0 8f 8c 	j	-3896
   12c94:	93 87 04 00 	mv	a5, s1
   12c98:	6f f0 df f9 	j	-100
   12c9c:	13 77 04 40 	andi	a4, s0, 1024
   12ca0:	13 0a 00 00 	mv	s4, zero
   12ca4:	93 07 01 1a 	addi	a5, sp, 416
   12ca8:	23 26 e1 00 	sw	a4, 12(sp)
   12cac:	13 0c f0 0f 	addi	s8, zero, 255
   12cb0:	93 0a 90 00 	addi	s5, zero, 9
   12cb4:	13 06 a0 00 	addi	a2, zero, 10
   12cb8:	93 06 00 00 	mv	a3, zero
   12cbc:	13 85 0c 00 	mv	a0, s9
   12cc0:	93 85 0d 00 	mv	a1, s11
   12cc4:	93 84 f7 ff 	addi	s1, a5, -1
   12cc8:	23 26 f1 02 	sw	a5, 44(sp)
   12ccc:	ef a0 50 06 	jal	43108
   12cd0:	83 27 c1 02 	lw	a5, 44(sp)
   12cd4:	13 05 05 03 	addi	a0, a0, 48
   12cd8:	13 0a 1a 00 	addi	s4, s4, 1
   12cdc:	a3 8f a7 fe 	sb	a0, -1(a5)
   12ce0:	83 27 c1 00 	lw	a5, 12(sp)
   12ce4:	63 88 07 04 	beqz	a5, 80
   12ce8:	83 27 01 01 	lw	a5, 16(sp)
   12cec:	83 c7 07 00 	lbu	a5, 0(a5)
   12cf0:	63 12 fa 04 	bne	s4, a5, 68
   12cf4:	63 00 8a 05 	beq	s4, s8, 64
   12cf8:	63 94 0d 00 	bnez	s11, 8
   12cfc:	63 fc 9a 03 	bgeu	s5, s9, 56
   12d00:	83 27 01 03 	lw	a5, 48(sp)
   12d04:	83 25 81 03 	lw	a1, 56(sp)
   12d08:	13 0a 00 00 	mv	s4, zero
   12d0c:	b3 84 f4 40 	sub	s1, s1, a5
   12d10:	13 86 07 00 	mv	a2, a5
   12d14:	13 85 04 00 	mv	a0, s1
   12d18:	ef 40 90 65 	jal	20056
   12d1c:	83 27 01 01 	lw	a5, 16(sp)
   12d20:	83 c7 17 00 	lbu	a5, 1(a5)
   12d24:	63 88 07 00 	beqz	a5, 16
   12d28:	83 27 01 01 	lw	a5, 16(sp)
   12d2c:	93 87 17 00 	addi	a5, a5, 1
   12d30:	23 28 f1 00 	sw	a5, 16(sp)
   12d34:	13 06 a0 00 	addi	a2, zero, 10
   12d38:	93 06 00 00 	mv	a3, zero
   12d3c:	13 85 0c 00 	mv	a0, s9
   12d40:	93 85 0d 00 	mv	a1, s11
   12d44:	ef a0 80 21 	jal	41496
   12d48:	63 94 0d 00 	bnez	s11, 8
   12d4c:	e3 f4 9a f3 	bgeu	s5, s9, -216
   12d50:	93 0c 05 00 	mv	s9, a0
   12d54:	93 8d 05 00 	mv	s11, a1
   12d58:	93 87 04 00 	mv	a5, s1
   12d5c:	6f f0 9f f5 	j	-168
   12d60:	93 04 01 1a 	addi	s1, sp, 416
   12d64:	03 27 01 04 	lw	a4, 64(sp)
   12d68:	93 f7 fc 00 	andi	a5, s9, 15
   12d6c:	93 84 f4 ff 	addi	s1, s1, -1
   12d70:	b3 07 f7 00 	add	a5, a4, a5
   12d74:	83 c7 07 00 	lbu	a5, 0(a5)
   12d78:	93 dc 4c 00 	srli	s9, s9, 4
   12d7c:	23 80 f4 00 	sb	a5, 0(s1)
   12d80:	93 97 cd 01 	slli	a5, s11, 28
   12d84:	b3 ec 97 01 	or	s9, a5, s9
   12d88:	93 dd 4d 00 	srli	s11, s11, 4
   12d8c:	b3 e7 bc 01 	or	a5, s9, s11
   12d90:	e3 9a 07 fc 	bnez	a5, -44
   12d94:	6f f0 1f ee 	j	-288
   12d98:	93 04 01 1a 	addi	s1, sp, 416
   12d9c:	e3 9c 07 ec 	bnez	a5, -296
   12da0:	13 77 17 00 	andi	a4, a4, 1
   12da4:	e3 08 07 ec 	beqz	a4, -304
   12da8:	93 07 00 03 	addi	a5, zero, 48
   12dac:	a3 0f f1 18 	sb	a5, 415(sp)
   12db0:	6f 00 90 32 	j	2856
   12db4:	e3 04 0b 2e 	beqz	s6, 2792
   12db8:	23 0e 61 13 	sb	s6, 316(sp)
   12dbc:	a3 0b 01 0a 	sb	zero, 183(sp)
   12dc0:	23 2c 51 01 	sw	s5, 24(sp)
   12dc4:	6f e0 9f f7 	j	-4232
   12dc8:	93 85 05 01 	addi	a1, a1, 16
   12dcc:	23 a2 cb 01 	sw	t3, 4(s7)
   12dd0:	23 2e b1 0c 	sw	a1, 220(sp)
   12dd4:	23 2c c1 0c 	sw	a2, 216(sp)
   12dd8:	63 de ce 02 	bge	t4, a2, 60
   12ddc:	13 06 41 0d 	addi	a2, sp, 212
   12de0:	93 05 09 00 	mv	a1, s2
   12de4:	13 85 09 00 	mv	a0, s3
   12de8:	23 28 e1 04 	sw	a4, 80(sp)
   12dec:	23 24 d1 04 	sw	a3, 72(sp)
   12df0:	ef 60 10 51 	jal	27920
   12df4:	e3 12 05 24 	bnez	a0, 2628
   12df8:	03 27 01 05 	lw	a4, 80(sp)
   12dfc:	83 26 81 04 	lw	a3, 72(sp)
   12e00:	b7 27 02 00 	lui	a5, 34
   12e04:	13 05 c1 0f 	addi	a0, sp, 252
   12e08:	93 0e 70 00 	addi	t4, zero, 7
   12e0c:	13 88 07 fa 	addi	a6, a5, -96
   12e10:	13 0e 00 01 	addi	t3, zero, 16
   12e14:	93 86 06 ff 	addi	a3, a3, -16
   12e18:	93 0b 05 00 	mv	s7, a0
   12e1c:	6f e0 df f9 	j	-4196
   12e20:	13 06 06 01 	addi	a2, a2, 16
   12e24:	23 a2 0b 01 	sw	a6, 4(s7)
   12e28:	23 2e c1 0c 	sw	a2, 220(sp)
   12e2c:	23 2c d1 0c 	sw	a3, 216(sp)
   12e30:	63 56 de 02 	bge	t3, a3, 44
   12e34:	13 06 41 0d 	addi	a2, sp, 212
   12e38:	93 05 09 00 	mv	a1, s2
   12e3c:	13 85 09 00 	mv	a0, s3
   12e40:	23 22 e1 04 	sw	a4, 68(sp)
   12e44:	ef 60 d0 4b 	jal	27836
   12e48:	e3 18 05 1e 	bnez	a0, 2544
   12e4c:	03 27 41 04 	lw	a4, 68(sp)
   12e50:	93 05 c1 0f 	addi	a1, sp, 252
   12e54:	13 0e 70 00 	addi	t3, zero, 7
   12e58:	13 08 00 01 	addi	a6, zero, 16
   12e5c:	93 8a 0a ff 	addi	s5, s5, -16
   12e60:	93 8b 05 00 	mv	s7, a1
   12e64:	6f f0 0f 89 	j	-3952
   12e68:	13 07 07 01 	addi	a4, a4, 16
   12e6c:	23 a2 0b 01 	sw	a6, 4(s7)
   12e70:	23 2e e1 0c 	sw	a4, 220(sp)
   12e74:	23 2c d1 0c 	sw	a3, 216(sp)
   12e78:	63 52 de 02 	bge	t3, a3, 36
   12e7c:	13 06 41 0d 	addi	a2, sp, 212
   12e80:	93 05 09 00 	mv	a1, s2
   12e84:	13 85 09 00 	mv	a0, s3
   12e88:	ef 60 90 47 	jal	27768
   12e8c:	e3 16 05 1a 	bnez	a0, 2476
   12e90:	13 06 c1 0f 	addi	a2, sp, 252
   12e94:	13 0e 70 00 	addi	t3, zero, 7
   12e98:	13 08 00 01 	addi	a6, zero, 16
   12e9c:	93 8a 0a ff 	addi	s5, s5, -16
   12ea0:	93 0b 06 00 	mv	s7, a2
   12ea4:	6f f0 cf 8b 	j	-3908
   12ea8:	93 06 50 06 	addi	a3, zero, 101
   12eac:	63 d4 66 73 	bge	a3, s6, 1832
   12eb0:	83 26 01 0e 	lw	a3, 224(sp)
   12eb4:	93 05 01 09 	addi	a1, sp, 144
   12eb8:	13 05 01 0a 	addi	a0, sp, 160
   12ebc:	23 20 d1 0a 	sw	a3, 160(sp)
   12ec0:	83 26 41 0e 	lw	a3, 228(sp)
   12ec4:	23 22 e1 04 	sw	a4, 68(sp)
   12ec8:	23 28 01 08 	sw	zero, 144(sp)
   12ecc:	23 22 d1 0a 	sw	a3, 164(sp)
   12ed0:	83 26 81 0e 	lw	a3, 232(sp)
   12ed4:	23 2a 01 08 	sw	zero, 148(sp)
   12ed8:	23 2c 01 08 	sw	zero, 152(sp)
   12edc:	23 24 d1 0a 	sw	a3, 168(sp)
   12ee0:	83 26 c1 0e 	lw	a3, 236(sp)
   12ee4:	23 2e 01 08 	sw	zero, 156(sp)
   12ee8:	23 26 d1 0a 	sw	a3, 172(sp)
   12eec:	ef b0 d0 16 	jal	47468
   12ef0:	03 27 41 04 	lw	a4, 68(sp)
   12ef4:	63 1a 05 12 	bnez	a0, 308
   12ef8:	b7 27 02 00 	lui	a5, 34
   12efc:	93 87 87 ff 	addi	a5, a5, -8
   12f00:	23 a0 fb 00 	sw	a5, 0(s7)
   12f04:	93 07 10 00 	addi	a5, zero, 1
   12f08:	23 a2 fb 00 	sw	a5, 4(s7)
   12f0c:	83 27 81 0d 	lw	a5, 216(sp)
   12f10:	13 07 17 00 	addi	a4, a4, 1
   12f14:	23 2e e1 0c 	sw	a4, 220(sp)
   12f18:	93 87 17 00 	addi	a5, a5, 1
   12f1c:	23 2c f1 0c 	sw	a5, 216(sp)
   12f20:	13 07 70 00 	addi	a4, zero, 7
   12f24:	93 8b 8b 00 	addi	s7, s7, 8
   12f28:	63 5e f7 00 	bge	a4, a5, 28
   12f2c:	13 06 41 0d 	addi	a2, sp, 212
   12f30:	93 05 09 00 	mv	a1, s2
   12f34:	13 85 09 00 	mv	a0, s3
   12f38:	ef 60 90 3c 	jal	27592
   12f3c:	e3 1e 05 0e 	bnez	a0, 2300
   12f40:	93 0b c1 0f 	addi	s7, sp, 252
   12f44:	83 27 c1 0b 	lw	a5, 188(sp)
   12f48:	63 c6 47 01 	blt	a5, s4, 12
   12f4c:	93 77 14 00 	andi	a5, s0, 1
   12f50:	63 80 07 22 	beqz	a5, 544
   12f54:	83 27 41 03 	lw	a5, 52(sp)
   12f58:	03 27 01 02 	lw	a4, 32(sp)
   12f5c:	93 8b 8b 00 	addi	s7, s7, 8
   12f60:	23 ac fb fe 	sw	a5, -8(s7)
   12f64:	83 27 01 02 	lw	a5, 32(sp)
   12f68:	23 ae fb fe 	sw	a5, -4(s7)
   12f6c:	83 27 c1 0d 	lw	a5, 220(sp)
   12f70:	b3 87 e7 00 	add	a5, a5, a4
   12f74:	23 2e f1 0c 	sw	a5, 220(sp)
   12f78:	83 27 81 0d 	lw	a5, 216(sp)
   12f7c:	13 07 70 00 	addi	a4, zero, 7
   12f80:	93 87 17 00 	addi	a5, a5, 1
   12f84:	23 2c f1 0c 	sw	a5, 216(sp)
   12f88:	63 5e f7 00 	bge	a4, a5, 28
   12f8c:	13 06 41 0d 	addi	a2, sp, 212
   12f90:	93 05 09 00 	mv	a1, s2
   12f94:	13 85 09 00 	mv	a0, s3
   12f98:	ef 60 90 36 	jal	27496
   12f9c:	e3 1e 05 08 	bnez	a0, 2204
   12fa0:	93 0b c1 0f 	addi	s7, sp, 252
   12fa4:	93 04 fa ff 	addi	s1, s4, -1
   12fa8:	63 54 90 1c 	blez	s1, 456
   12fac:	93 0a 00 01 	addi	s5, zero, 16
   12fb0:	13 0b 70 00 	addi	s6, zero, 7
   12fb4:	03 26 41 01 	lw	a2, 20(sp)
   12fb8:	83 27 81 0d 	lw	a5, 216(sp)
   12fbc:	03 27 c1 0d 	lw	a4, 220(sp)
   12fc0:	23 a0 cb 00 	sw	a2, 0(s7)
   12fc4:	93 87 17 00 	addi	a5, a5, 1
   12fc8:	93 86 8b 00 	addi	a3, s7, 8
   12fcc:	63 c2 9a 02 	blt	s5, s1, 36
   12fd0:	23 a2 9b 00 	sw	s1, 4(s7)
   12fd4:	b3 84 e4 00 	add	s1, s1, a4
   12fd8:	23 2e 91 0c 	sw	s1, 220(sp)
   12fdc:	23 2c f1 0c 	sw	a5, 216(sp)
   12fe0:	13 07 70 00 	addi	a4, zero, 7
   12fe4:	93 8b 06 00 	mv	s7, a3
   12fe8:	63 54 f7 18 	bge	a4, a5, 392
   12fec:	6f f0 0f 80 	j	-4096
   12ff0:	13 07 07 01 	addi	a4, a4, 16
   12ff4:	23 a2 5b 01 	sw	s5, 4(s7)
   12ff8:	23 2e e1 0c 	sw	a4, 220(sp)
   12ffc:	23 2c f1 0c 	sw	a5, 216(sp)
   13000:	63 5e fb 00 	bge	s6, a5, 28
   13004:	13 06 41 0d 	addi	a2, sp, 212
   13008:	93 05 09 00 	mv	a1, s2
   1300c:	13 85 09 00 	mv	a0, s3
   13010:	ef 60 10 2f 	jal	27376
   13014:	e3 12 05 02 	bnez	a0, 2084
   13018:	93 06 c1 0f 	addi	a3, sp, 252
   1301c:	93 84 04 ff 	addi	s1, s1, -16
   13020:	93 8b 06 00 	mv	s7, a3
   13024:	6f f0 1f f9 	j	-112
   13028:	83 26 c1 0b 	lw	a3, 188(sp)
   1302c:	63 48 d0 1c 	bgtz	a3, 464
   13030:	b7 27 02 00 	lui	a5, 34
   13034:	93 87 87 ff 	addi	a5, a5, -8
   13038:	23 a0 fb 00 	sw	a5, 0(s7)
   1303c:	93 07 10 00 	addi	a5, zero, 1
   13040:	23 a2 fb 00 	sw	a5, 4(s7)
   13044:	83 27 81 0d 	lw	a5, 216(sp)
   13048:	13 07 17 00 	addi	a4, a4, 1
   1304c:	23 2e e1 0c 	sw	a4, 220(sp)
   13050:	93 87 17 00 	addi	a5, a5, 1
   13054:	23 2c f1 0c 	sw	a5, 216(sp)
   13058:	13 07 70 00 	addi	a4, zero, 7
   1305c:	93 8b 8b 00 	addi	s7, s7, 8
   13060:	63 5e f7 00 	bge	a4, a5, 28
   13064:	13 06 41 0d 	addi	a2, sp, 212
   13068:	93 05 09 00 	mv	a1, s2
   1306c:	13 85 09 00 	mv	a0, s3
   13070:	ef 60 10 29 	jal	27280
   13074:	63 12 05 7c 	bnez	a0, 1988
   13078:	93 0b c1 0f 	addi	s7, sp, 252
   1307c:	83 27 c1 0b 	lw	a5, 188(sp)
   13080:	93 76 14 00 	andi	a3, s0, 1
   13084:	03 27 c1 0d 	lw	a4, 220(sp)
   13088:	b3 67 fa 00 	or	a5, s4, a5
   1308c:	b3 e7 d7 00 	or	a5, a5, a3
   13090:	63 80 07 0e 	beqz	a5, 224
   13094:	83 27 41 03 	lw	a5, 52(sp)
   13098:	93 88 8b 00 	addi	a7, s7, 8
   1309c:	23 a0 fb 00 	sw	a5, 0(s7)
   130a0:	83 27 01 02 	lw	a5, 32(sp)
   130a4:	23 a2 fb 00 	sw	a5, 4(s7)
   130a8:	b3 87 e7 00 	add	a5, a5, a4
   130ac:	23 2e f1 0c 	sw	a5, 220(sp)
   130b0:	83 27 81 0d 	lw	a5, 216(sp)
   130b4:	13 07 70 00 	addi	a4, zero, 7
   130b8:	93 87 17 00 	addi	a5, a5, 1
   130bc:	23 2c f1 0c 	sw	a5, 216(sp)
   130c0:	63 5e f7 00 	bge	a4, a5, 28
   130c4:	13 06 41 0d 	addi	a2, sp, 212
   130c8:	93 05 09 00 	mv	a1, s2
   130cc:	13 85 09 00 	mv	a0, s3
   130d0:	ef 60 10 23 	jal	27184
   130d4:	63 12 05 76 	bnez	a0, 1892
   130d8:	93 08 c1 0f 	addi	a7, sp, 252
   130dc:	83 2a c1 0b 	lw	s5, 188(sp)
   130e0:	63 d0 0a 06 	bgez	s5, 96
   130e4:	b3 0a 50 41 	neg	s5, s5
   130e8:	13 87 08 00 	mv	a4, a7
   130ec:	13 0b 00 01 	addi	s6, zero, 16
   130f0:	13 0c 70 00 	addi	s8, zero, 7
   130f4:	03 26 41 01 	lw	a2, 20(sp)
   130f8:	83 27 81 0d 	lw	a5, 216(sp)
   130fc:	83 26 c1 0d 	lw	a3, 220(sp)
   13100:	23 20 c7 00 	sw	a2, 0(a4)
   13104:	93 87 17 00 	addi	a5, a5, 1
   13108:	93 88 88 00 	addi	a7, a7, 8
   1310c:	63 4c 5b 0b 	blt	s6, s5, 184
   13110:	23 22 57 01 	sw	s5, 4(a4)
   13114:	b3 8a da 00 	add	s5, s5, a3
   13118:	23 2e 51 0d 	sw	s5, 220(sp)
   1311c:	23 2c f1 0c 	sw	a5, 216(sp)
   13120:	13 07 70 00 	addi	a4, zero, 7
   13124:	63 5e f7 00 	bge	a4, a5, 28
   13128:	13 06 41 0d 	addi	a2, sp, 212
   1312c:	93 05 09 00 	mv	a1, s2
   13130:	13 85 09 00 	mv	a0, s3
   13134:	ef 60 d0 1c 	jal	27084
   13138:	63 10 05 70 	bnez	a0, 1792
   1313c:	93 08 c1 0f 	addi	a7, sp, 252
   13140:	83 27 c1 0d 	lw	a5, 220(sp)
   13144:	23 a0 98 00 	sw	s1, 0(a7)
   13148:	23 a2 48 01 	sw	s4, 4(a7)
   1314c:	b3 87 47 01 	add	a5, a5, s4
   13150:	23 2e f1 0c 	sw	a5, 220(sp)
   13154:	83 27 81 0d 	lw	a5, 216(sp)
   13158:	13 07 70 00 	addi	a4, zero, 7
   1315c:	93 8b 88 00 	addi	s7, a7, 8
   13160:	93 87 17 00 	addi	a5, a5, 1
   13164:	23 2c f1 0c 	sw	a5, 216(sp)
   13168:	63 54 f7 00 	bge	a4, a5, 8
   1316c:	6f e0 1f e8 	j	-4480
   13170:	13 74 44 00 	andi	s0, s0, 4
   13174:	63 12 04 66 	bnez	s0, 1636
   13178:	03 2b 81 02 	lw	s6, 40(sp)
   1317c:	83 27 c1 02 	lw	a5, 44(sp)
   13180:	63 54 fb 00 	bge	s6, a5, 8
   13184:	13 8b 07 00 	mv	s6, a5
   13188:	83 27 41 02 	lw	a5, 36(sp)
   1318c:	b3 87 67 01 	add	a5, a5, s6
   13190:	23 22 f1 02 	sw	a5, 36(sp)
   13194:	83 27 c1 0d 	lw	a5, 220(sp)
   13198:	63 8c 07 00 	beqz	a5, 24
   1319c:	13 06 41 0d 	addi	a2, sp, 212
   131a0:	93 05 09 00 	mv	a1, s2
   131a4:	13 85 09 00 	mv	a0, s3
   131a8:	ef 60 90 15 	jal	26968
   131ac:	63 16 05 68 	bnez	a0, 1676
   131b0:	83 27 c1 00 	lw	a5, 12(sp)
   131b4:	23 2c 01 0c 	sw	zero, 216(sp)
   131b8:	63 9a 07 6c 	bnez	a5, 1748
   131bc:	93 0b c1 0f 	addi	s7, sp, 252
   131c0:	6f f0 1f 81 	j	-2032
   131c4:	93 86 06 01 	addi	a3, a3, 16
   131c8:	23 22 67 01 	sw	s6, 4(a4)
   131cc:	23 2e d1 0c 	sw	a3, 220(sp)
   131d0:	23 2c f1 0c 	sw	a5, 216(sp)
   131d4:	63 5e fc 00 	bge	s8, a5, 28
   131d8:	13 06 41 0d 	addi	a2, sp, 212
   131dc:	93 05 09 00 	mv	a1, s2
   131e0:	13 85 09 00 	mv	a0, s3
   131e4:	ef 60 d0 11 	jal	26908
   131e8:	63 18 05 64 	bnez	a0, 1616
   131ec:	93 08 c1 0f 	addi	a7, sp, 252
   131f0:	93 8a 0a ff 	addi	s5, s5, -16
   131f4:	13 87 08 00 	mv	a4, a7
   131f8:	6f f0 df ef 	j	-260
   131fc:	93 8a 0d 00 	mv	s5, s11
   13200:	63 54 ba 01 	bge	s4, s11, 8
   13204:	93 0a 0a 00 	mv	s5, s4
   13208:	63 52 50 05 	blez	s5, 68
   1320c:	33 87 ea 00 	add	a4, s5, a4
   13210:	23 2e e1 0c 	sw	a4, 220(sp)
   13214:	03 27 81 0d 	lw	a4, 216(sp)
   13218:	23 a0 9b 00 	sw	s1, 0(s7)
   1321c:	23 a2 5b 01 	sw	s5, 4(s7)
   13220:	13 07 17 00 	addi	a4, a4, 1
   13224:	23 2c e1 0c 	sw	a4, 216(sp)
   13228:	93 06 70 00 	addi	a3, zero, 7
   1322c:	93 8b 8b 00 	addi	s7, s7, 8
   13230:	63 de e6 00 	bge	a3, a4, 28
   13234:	13 06 41 0d 	addi	a2, sp, 212
   13238:	93 05 09 00 	mv	a1, s2
   1323c:	13 85 09 00 	mv	a0, s3
   13240:	ef 60 10 0c 	jal	26816
   13244:	63 1a 05 5e 	bnez	a0, 1524
   13248:	93 0b c1 0f 	addi	s7, sp, 252
   1324c:	63 d4 0a 00 	bgez	s5, 8
   13250:	93 0a 00 00 	mv	s5, zero
   13254:	b3 8a 5d 41 	sub	s5, s11, s5
   13258:	63 5e 50 05 	blez	s5, 92
   1325c:	13 0b 00 01 	addi	s6, zero, 16
   13260:	13 0d 70 00 	addi	s10, zero, 7
   13264:	83 27 41 01 	lw	a5, 20(sp)
   13268:	03 27 81 0d 	lw	a4, 216(sp)
   1326c:	83 26 c1 0d 	lw	a3, 220(sp)
   13270:	23 a0 fb 00 	sw	a5, 0(s7)
   13274:	13 07 17 00 	addi	a4, a4, 1
   13278:	13 86 8b 00 	addi	a2, s7, 8
   1327c:	63 4c 5b 19 	blt	s6, s5, 408
   13280:	23 a2 5b 01 	sw	s5, 4(s7)
   13284:	b3 8a da 00 	add	s5, s5, a3
   13288:	23 2e 51 0d 	sw	s5, 220(sp)
   1328c:	23 2c e1 0c 	sw	a4, 216(sp)
   13290:	93 06 70 00 	addi	a3, zero, 7
   13294:	93 0b 06 00 	mv	s7, a2
   13298:	63 de e6 00 	bge	a3, a4, 28
   1329c:	13 06 41 0d 	addi	a2, sp, 212
   132a0:	93 05 09 00 	mv	a1, s2
   132a4:	13 85 09 00 	mv	a0, s3
   132a8:	ef 60 90 05 	jal	26712
   132ac:	63 16 05 58 	bnez	a0, 1420
   132b0:	93 0b c1 0f 	addi	s7, sp, 252
   132b4:	93 77 04 40 	andi	a5, s0, 1024
   132b8:	b3 8a b4 01 	add	s5, s1, s11
   132bc:	63 80 07 02 	beqz	a5, 32
   132c0:	13 0b 70 00 	addi	s6, zero, 7
   132c4:	33 8d 44 01 	add	s10, s1, s4
   132c8:	63 12 0c 18 	bnez	s8, 388
   132cc:	63 92 0c 18 	bnez	s9, 388
   132d0:	b3 87 44 01 	add	a5, s1, s4
   132d4:	63 f4 57 01 	bgeu	a5, s5, 8
   132d8:	93 8a 07 00 	mv	s5, a5
   132dc:	83 27 c1 0b 	lw	a5, 188(sp)
   132e0:	63 c6 47 01 	blt	a5, s4, 12
   132e4:	93 77 14 00 	andi	a5, s0, 1
   132e8:	63 8a 07 04 	beqz	a5, 84
   132ec:	83 27 41 03 	lw	a5, 52(sp)
   132f0:	03 27 01 02 	lw	a4, 32(sp)
   132f4:	93 8b 8b 00 	addi	s7, s7, 8
   132f8:	23 ac fb fe 	sw	a5, -8(s7)
   132fc:	83 27 01 02 	lw	a5, 32(sp)
   13300:	23 ae fb fe 	sw	a5, -4(s7)
   13304:	83 27 c1 0d 	lw	a5, 220(sp)
   13308:	b3 87 e7 00 	add	a5, a5, a4
   1330c:	23 2e f1 0c 	sw	a5, 220(sp)
   13310:	83 27 81 0d 	lw	a5, 216(sp)
   13314:	13 07 70 00 	addi	a4, zero, 7
   13318:	93 87 17 00 	addi	a5, a5, 1
   1331c:	23 2c f1 0c 	sw	a5, 216(sp)
   13320:	63 5e f7 00 	bge	a4, a5, 28
   13324:	13 06 41 0d 	addi	a2, sp, 212
   13328:	93 05 09 00 	mv	a1, s2
   1332c:	13 85 09 00 	mv	a0, s3
   13330:	ef 60 00 7d 	jal	26576
   13334:	63 12 05 50 	bnez	a0, 1284
   13338:	93 0b c1 0f 	addi	s7, sp, 252
   1333c:	b3 84 44 01 	add	s1, s1, s4
   13340:	b3 87 54 41 	sub	a5, s1, s5
   13344:	83 24 c1 0b 	lw	s1, 188(sp)
   13348:	b3 04 9a 40 	sub	s1, s4, s1
   1334c:	63 d4 97 00 	bge	a5, s1, 8
   13350:	93 84 07 00 	mv	s1, a5
   13354:	63 54 90 04 	blez	s1, 72
   13358:	83 27 c1 0d 	lw	a5, 220(sp)
   1335c:	23 a0 5b 01 	sw	s5, 0(s7)
   13360:	23 a2 9b 00 	sw	s1, 4(s7)
   13364:	b3 87 f4 00 	add	a5, s1, a5
   13368:	23 2e f1 0c 	sw	a5, 220(sp)
   1336c:	83 27 81 0d 	lw	a5, 216(sp)
   13370:	13 07 70 00 	addi	a4, zero, 7
   13374:	93 8b 8b 00 	addi	s7, s7, 8
   13378:	93 87 17 00 	addi	a5, a5, 1
   1337c:	23 2c f1 0c 	sw	a5, 216(sp)
   13380:	63 5e f7 00 	bge	a4, a5, 28
   13384:	13 06 41 0d 	addi	a2, sp, 212
   13388:	93 05 09 00 	mv	a1, s2
   1338c:	13 85 09 00 	mv	a0, s3
   13390:	ef 60 00 77 	jal	26480
   13394:	63 12 05 4a 	bnez	a0, 1188
   13398:	93 0b c1 0f 	addi	s7, sp, 252
   1339c:	93 87 04 00 	mv	a5, s1
   133a0:	63 d4 04 00 	bgez	s1, 8
   133a4:	93 07 00 00 	mv	a5, zero
   133a8:	83 24 c1 0b 	lw	s1, 188(sp)
   133ac:	b3 04 9a 40 	sub	s1, s4, s1
   133b0:	b3 84 f4 40 	sub	s1, s1, a5
   133b4:	e3 5e 90 da 	blez	s1, -580
   133b8:	93 0a 00 01 	addi	s5, zero, 16
   133bc:	13 0b 70 00 	addi	s6, zero, 7
   133c0:	03 26 41 01 	lw	a2, 20(sp)
   133c4:	83 27 81 0d 	lw	a5, 216(sp)
   133c8:	03 27 c1 0d 	lw	a4, 220(sp)
   133cc:	23 a0 cb 00 	sw	a2, 0(s7)
   133d0:	93 87 17 00 	addi	a5, a5, 1
   133d4:	93 86 8b 00 	addi	a3, s7, 8
   133d8:	e3 dc 9a be 	bge	s5, s1, -1032
   133dc:	13 07 07 01 	addi	a4, a4, 16
   133e0:	23 a2 5b 01 	sw	s5, 4(s7)
   133e4:	23 2e e1 0c 	sw	a4, 220(sp)
   133e8:	23 2c f1 0c 	sw	a5, 216(sp)
   133ec:	63 5e fb 00 	bge	s6, a5, 28
   133f0:	13 06 41 0d 	addi	a2, sp, 212
   133f4:	93 05 09 00 	mv	a1, s2
   133f8:	13 85 09 00 	mv	a0, s3
   133fc:	ef 60 40 70 	jal	26372
   13400:	63 1c 05 42 	bnez	a0, 1080
   13404:	93 06 c1 0f 	addi	a3, sp, 252
   13408:	93 84 04 ff 	addi	s1, s1, -16
   1340c:	93 8b 06 00 	mv	s7, a3
   13410:	6f f0 1f fb 	j	-80
   13414:	93 86 06 01 	addi	a3, a3, 16
   13418:	23 a2 6b 01 	sw	s6, 4(s7)
   1341c:	23 2e d1 0c 	sw	a3, 220(sp)
   13420:	23 2c e1 0c 	sw	a4, 216(sp)
   13424:	63 5e ed 00 	bge	s10, a4, 28
   13428:	13 06 41 0d 	addi	a2, sp, 212
   1342c:	93 05 09 00 	mv	a1, s2
   13430:	13 85 09 00 	mv	a0, s3
   13434:	ef 60 c0 6c 	jal	26316
   13438:	63 10 05 40 	bnez	a0, 1024
   1343c:	13 06 c1 0f 	addi	a2, sp, 252
   13440:	93 8a 0a ff 	addi	s5, s5, -16
   13444:	93 0b 06 00 	mv	s7, a2
   13448:	6f f0 df e1 	j	-484
   1344c:	63 82 0c 0e 	beqz	s9, 228
   13450:	93 8c fc ff 	addi	s9, s9, -1
   13454:	83 27 81 03 	lw	a5, 56(sp)
   13458:	03 27 01 03 	lw	a4, 48(sp)
   1345c:	93 8b 8b 00 	addi	s7, s7, 8
   13460:	23 ac fb fe 	sw	a5, -8(s7)
   13464:	83 27 01 03 	lw	a5, 48(sp)
   13468:	23 ae fb fe 	sw	a5, -4(s7)
   1346c:	83 27 c1 0d 	lw	a5, 220(sp)
   13470:	b3 87 e7 00 	add	a5, a5, a4
   13474:	23 2e f1 0c 	sw	a5, 220(sp)
   13478:	83 27 81 0d 	lw	a5, 216(sp)
   1347c:	93 87 17 00 	addi	a5, a5, 1
   13480:	23 2c f1 0c 	sw	a5, 216(sp)
   13484:	63 5e fb 00 	bge	s6, a5, 28
   13488:	13 06 41 0d 	addi	a2, sp, 212
   1348c:	93 05 09 00 	mv	a1, s2
   13490:	13 85 09 00 	mv	a0, s3
   13494:	ef 60 c0 66 	jal	26220
   13498:	63 10 05 3a 	bnez	a0, 928
   1349c:	93 0b c1 0f 	addi	s7, sp, 252
   134a0:	83 27 01 01 	lw	a5, 16(sp)
   134a4:	33 07 5d 41 	sub	a4, s10, s5
   134a8:	83 c7 07 00 	lbu	a5, 0(a5)
   134ac:	63 54 f7 00 	bge	a4, a5, 8
   134b0:	93 07 07 00 	mv	a5, a4
   134b4:	63 56 f0 04 	blez	a5, 76
   134b8:	03 27 c1 0d 	lw	a4, 220(sp)
   134bc:	23 a0 5b 01 	sw	s5, 0(s7)
   134c0:	23 a2 fb 00 	sw	a5, 4(s7)
   134c4:	33 87 e7 00 	add	a4, a5, a4
   134c8:	23 2e e1 0c 	sw	a4, 220(sp)
   134cc:	03 27 81 0d 	lw	a4, 216(sp)
   134d0:	93 8b 8b 00 	addi	s7, s7, 8
   134d4:	13 07 17 00 	addi	a4, a4, 1
   134d8:	23 2c e1 0c 	sw	a4, 216(sp)
   134dc:	63 52 eb 02 	bge	s6, a4, 36
   134e0:	13 06 41 0d 	addi	a2, sp, 212
   134e4:	93 05 09 00 	mv	a1, s2
   134e8:	13 85 09 00 	mv	a0, s3
   134ec:	23 22 f1 04 	sw	a5, 68(sp)
   134f0:	ef 60 00 61 	jal	26128
   134f4:	63 12 05 34 	bnez	a0, 836
   134f8:	83 27 41 04 	lw	a5, 68(sp)
   134fc:	93 0b c1 0f 	addi	s7, sp, 252
   13500:	13 87 07 00 	mv	a4, a5
   13504:	63 d4 07 00 	bgez	a5, 8
   13508:	13 07 00 00 	mv	a4, zero
   1350c:	83 27 01 01 	lw	a5, 16(sp)
   13510:	13 08 00 01 	addi	a6, zero, 16
   13514:	83 c7 07 00 	lbu	a5, 0(a5)
   13518:	b3 87 e7 40 	sub	a5, a5, a4
   1351c:	63 44 f0 06 	bgtz	a5, 104
   13520:	83 27 01 01 	lw	a5, 16(sp)
   13524:	83 c7 07 00 	lbu	a5, 0(a5)
   13528:	b3 8a fa 00 	add	s5, s5, a5
   1352c:	6f f0 df d9 	j	-612
   13530:	83 27 01 01 	lw	a5, 16(sp)
   13534:	13 0c fc ff 	addi	s8, s8, -1
   13538:	93 87 f7 ff 	addi	a5, a5, -1
   1353c:	23 28 f1 00 	sw	a5, 16(sp)
   13540:	6f f0 5f f1 	j	-236
   13544:	93 86 06 01 	addi	a3, a3, 16
   13548:	23 a2 0b 01 	sw	a6, 4(s7)
   1354c:	23 2e d1 0c 	sw	a3, 220(sp)
   13550:	23 2c e1 0c 	sw	a4, 216(sp)
   13554:	63 54 eb 02 	bge	s6, a4, 40
   13558:	13 06 41 0d 	addi	a2, sp, 212
   1355c:	93 05 09 00 	mv	a1, s2
   13560:	13 85 09 00 	mv	a0, s3
   13564:	23 22 f1 04 	sw	a5, 68(sp)
   13568:	ef 60 80 59 	jal	26008
   1356c:	63 16 05 2c 	bnez	a0, 716
   13570:	83 27 41 04 	lw	a5, 68(sp)
   13574:	13 06 c1 0f 	addi	a2, sp, 252
   13578:	13 08 00 01 	addi	a6, zero, 16
   1357c:	93 87 07 ff 	addi	a5, a5, -16
   13580:	93 0b 06 00 	mv	s7, a2
   13584:	83 25 41 01 	lw	a1, 20(sp)
   13588:	03 27 81 0d 	lw	a4, 216(sp)
   1358c:	83 26 c1 0d 	lw	a3, 220(sp)
   13590:	23 a0 bb 00 	sw	a1, 0(s7)
   13594:	13 07 17 00 	addi	a4, a4, 1
   13598:	13 86 8b 00 	addi	a2, s7, 8
   1359c:	e3 44 f8 fa 	blt	a6, a5, -88
   135a0:	23 a2 fb 00 	sw	a5, 4(s7)
   135a4:	b3 87 d7 00 	add	a5, a5, a3
   135a8:	23 2e f1 0c 	sw	a5, 220(sp)
   135ac:	23 2c e1 0c 	sw	a4, 216(sp)
   135b0:	93 0b 06 00 	mv	s7, a2
   135b4:	e3 56 eb f6 	bge	s6, a4, -148
   135b8:	13 06 41 0d 	addi	a2, sp, 212
   135bc:	93 05 09 00 	mv	a1, s2
   135c0:	13 85 09 00 	mv	a0, s3
   135c4:	ef 60 c0 53 	jal	25916
   135c8:	63 18 05 26 	bnez	a0, 624
   135cc:	93 0b c1 0f 	addi	s7, sp, 252
   135d0:	6f f0 1f f5 	j	-176
   135d4:	83 27 81 0d 	lw	a5, 216(sp)
   135d8:	93 06 10 00 	addi	a3, zero, 1
   135dc:	23 a0 9b 00 	sw	s1, 0(s7)
   135e0:	13 07 17 00 	addi	a4, a4, 1
   135e4:	93 87 17 00 	addi	a5, a5, 1
   135e8:	93 8a 8b 00 	addi	s5, s7, 8
   135ec:	63 c6 46 01 	blt	a3, s4, 12
   135f0:	13 76 14 00 	andi	a2, s0, 1
   135f4:	63 06 06 1c 	beqz	a2, 460
   135f8:	93 06 10 00 	addi	a3, zero, 1
   135fc:	23 2e e1 0c 	sw	a4, 220(sp)
   13600:	23 a2 db 00 	sw	a3, 4(s7)
   13604:	23 2c f1 0c 	sw	a5, 216(sp)
   13608:	13 07 70 00 	addi	a4, zero, 7
   1360c:	63 5e f7 00 	bge	a4, a5, 28
   13610:	13 06 41 0d 	addi	a2, sp, 212
   13614:	93 05 09 00 	mv	a1, s2
   13618:	13 85 09 00 	mv	a0, s3
   1361c:	ef 60 40 4e 	jal	25828
   13620:	63 1c 05 20 	bnez	a0, 536
   13624:	93 0a c1 0f 	addi	s5, sp, 252
   13628:	83 27 41 03 	lw	a5, 52(sp)
   1362c:	03 27 01 02 	lw	a4, 32(sp)
   13630:	93 8a 8a 00 	addi	s5, s5, 8
   13634:	23 ac fa fe 	sw	a5, -8(s5)
   13638:	83 27 01 02 	lw	a5, 32(sp)
   1363c:	23 ae fa fe 	sw	a5, -4(s5)
   13640:	83 27 c1 0d 	lw	a5, 220(sp)
   13644:	b3 87 e7 00 	add	a5, a5, a4
   13648:	23 2e f1 0c 	sw	a5, 220(sp)
   1364c:	83 27 81 0d 	lw	a5, 216(sp)
   13650:	13 07 70 00 	addi	a4, zero, 7
   13654:	93 87 17 00 	addi	a5, a5, 1
   13658:	23 2c f1 0c 	sw	a5, 216(sp)
   1365c:	63 5e f7 00 	bge	a4, a5, 28
   13660:	13 06 41 0d 	addi	a2, sp, 212
   13664:	93 05 09 00 	mv	a1, s2
   13668:	13 85 09 00 	mv	a0, s3
   1366c:	ef 60 40 49 	jal	25748
   13670:	63 14 05 1c 	bnez	a0, 456
   13674:	93 0a c1 0f 	addi	s5, sp, 252
   13678:	83 27 01 0e 	lw	a5, 224(sp)
   1367c:	93 05 01 09 	addi	a1, sp, 144
   13680:	13 05 01 0a 	addi	a0, sp, 160
   13684:	23 20 f1 0a 	sw	a5, 160(sp)
   13688:	83 27 41 0e 	lw	a5, 228(sp)
   1368c:	13 0b fa ff 	addi	s6, s4, -1
   13690:	23 28 01 08 	sw	zero, 144(sp)
   13694:	23 22 f1 0a 	sw	a5, 164(sp)
   13698:	83 27 81 0e 	lw	a5, 232(sp)
   1369c:	23 2a 01 08 	sw	zero, 148(sp)
   136a0:	23 2c 01 08 	sw	zero, 152(sp)
   136a4:	23 24 f1 0a 	sw	a5, 168(sp)
   136a8:	83 27 c1 0e 	lw	a5, 236(sp)
   136ac:	23 2e 01 08 	sw	zero, 156(sp)
   136b0:	23 26 f1 0a 	sw	a5, 172(sp)
   136b4:	ef b0 40 1a 	jal	45476
   136b8:	63 06 05 08 	beqz	a0, 140
   136bc:	83 27 c1 0d 	lw	a5, 220(sp)
   136c0:	03 27 81 0d 	lw	a4, 216(sp)
   136c4:	93 84 14 00 	addi	s1, s1, 1
   136c8:	93 87 f7 ff 	addi	a5, a5, -1
   136cc:	b3 87 47 01 	add	a5, a5, s4
   136d0:	13 07 17 00 	addi	a4, a4, 1
   136d4:	23 a0 9a 00 	sw	s1, 0(s5)
   136d8:	23 a2 6a 01 	sw	s6, 4(s5)
   136dc:	23 2e f1 0c 	sw	a5, 220(sp)
   136e0:	23 2c e1 0c 	sw	a4, 216(sp)
   136e4:	93 07 70 00 	addi	a5, zero, 7
   136e8:	93 8a 8a 00 	addi	s5, s5, 8
   136ec:	63 de e7 00 	bge	a5, a4, 28
   136f0:	13 06 41 0d 	addi	a2, sp, 212
   136f4:	93 05 09 00 	mv	a1, s2
   136f8:	13 85 09 00 	mv	a0, s3
   136fc:	ef 60 40 40 	jal	25604
   13700:	63 1c 05 12 	bnez	a0, 312
   13704:	93 0a c1 0f 	addi	s5, sp, 252
   13708:	93 07 41 0c 	addi	a5, sp, 196
   1370c:	23 a0 fa 00 	sw	a5, 0(s5)
   13710:	83 27 c1 03 	lw	a5, 60(sp)
   13714:	03 27 c1 03 	lw	a4, 60(sp)
   13718:	93 8b 8a 00 	addi	s7, s5, 8
   1371c:	23 a2 fa 00 	sw	a5, 4(s5)
   13720:	83 27 c1 0d 	lw	a5, 220(sp)
   13724:	b3 87 e7 00 	add	a5, a5, a4
   13728:	23 2e f1 0c 	sw	a5, 220(sp)
   1372c:	83 27 81 0d 	lw	a5, 216(sp)
   13730:	13 07 70 00 	addi	a4, zero, 7
   13734:	93 87 17 00 	addi	a5, a5, 1
   13738:	23 2c f1 0c 	sw	a5, 216(sp)
   1373c:	e3 5a f7 a2 	bge	a4, a5, -1484
   13740:	6f e0 df 8a 	j	-5972
   13744:	e3 52 60 fd 	blez	s6, -60
   13748:	93 04 00 01 	addi	s1, zero, 16
   1374c:	13 0c 70 00 	addi	s8, zero, 7
   13750:	03 26 41 01 	lw	a2, 20(sp)
   13754:	03 27 81 0d 	lw	a4, 216(sp)
   13758:	83 27 c1 0d 	lw	a5, 220(sp)
   1375c:	23 a0 ca 00 	sw	a2, 0(s5)
   13760:	13 07 17 00 	addi	a4, a4, 1
   13764:	93 86 8a 00 	addi	a3, s5, 8
   13768:	63 c0 64 03 	blt	s1, s6, 32
   1376c:	b3 07 fb 00 	add	a5, s6, a5
   13770:	23 a2 6a 01 	sw	s6, 4(s5)
   13774:	23 2e f1 0c 	sw	a5, 220(sp)
   13778:	23 2c e1 0c 	sw	a4, 216(sp)
   1377c:	93 07 70 00 	addi	a5, zero, 7
   13780:	93 8a 06 00 	mv	s5, a3
   13784:	6f f0 9f f6 	j	-152
   13788:	93 87 07 01 	addi	a5, a5, 16
   1378c:	23 a2 9a 00 	sw	s1, 4(s5)
   13790:	23 2e f1 0c 	sw	a5, 220(sp)
   13794:	23 2c e1 0c 	sw	a4, 216(sp)
   13798:	63 5e ec 00 	bge	s8, a4, 28
   1379c:	13 06 41 0d 	addi	a2, sp, 212
   137a0:	93 05 09 00 	mv	a1, s2
   137a4:	13 85 09 00 	mv	a0, s3
   137a8:	ef 60 80 35 	jal	25432
   137ac:	63 16 05 08 	bnez	a0, 140
   137b0:	93 06 c1 0f 	addi	a3, sp, 252
   137b4:	13 0b 0b ff 	addi	s6, s6, -16
   137b8:	93 8a 06 00 	mv	s5, a3
   137bc:	6f f0 5f f9 	j	-108
   137c0:	23 2e e1 0c 	sw	a4, 220(sp)
   137c4:	23 a2 db 00 	sw	a3, 4(s7)
   137c8:	23 2c f1 0c 	sw	a5, 216(sp)
   137cc:	13 07 70 00 	addi	a4, zero, 7
   137d0:	e3 5c f7 f2 	bge	a4, a5, -200
   137d4:	6f f0 df f1 	j	-228
   137d8:	83 27 81 02 	lw	a5, 40(sp)
   137dc:	03 27 c1 02 	lw	a4, 44(sp)
   137e0:	33 84 e7 40 	sub	s0, a5, a4
   137e4:	e3 5a 80 98 	blez	s0, -1644
   137e8:	b7 27 02 00 	lui	a5, 34
   137ec:	93 0a 00 01 	addi	s5, zero, 16
   137f0:	93 84 07 fa 	addi	s1, a5, -96
   137f4:	13 0b 70 00 	addi	s6, zero, 7
   137f8:	83 27 81 0d 	lw	a5, 216(sp)
   137fc:	23 a0 9b 00 	sw	s1, 0(s7)
   13800:	03 27 c1 0d 	lw	a4, 220(sp)
   13804:	93 87 17 00 	addi	a5, a5, 1
   13808:	63 c6 8a 04 	blt	s5, s0, 76
   1380c:	23 a2 8b 00 	sw	s0, 4(s7)
   13810:	33 04 e4 00 	add	s0, s0, a4
   13814:	23 2e 81 0c 	sw	s0, 220(sp)
   13818:	23 2c f1 0c 	sw	a5, 216(sp)
   1381c:	13 07 70 00 	addi	a4, zero, 7
   13820:	e3 5c f7 94 	bge	a4, a5, -1704
   13824:	13 06 41 0d 	addi	a2, sp, 212
   13828:	93 05 09 00 	mv	a1, s2
   1382c:	13 85 09 00 	mv	a0, s3
   13830:	ef 60 00 2d 	jal	25296
   13834:	e3 02 05 94 	beqz	a0, -1724
   13838:	83 27 c1 00 	lw	a5, 12(sp)
   1383c:	63 94 07 00 	bnez	a5, 8
   13840:	6f e0 1f a1 	j	-5616
   13844:	93 85 07 00 	mv	a1, a5
   13848:	13 85 09 00 	mv	a0, s3
   1384c:	ef 00 90 27 	jal	2680
   13850:	6f e0 1f a0 	j	-5632
   13854:	13 07 07 01 	addi	a4, a4, 16
   13858:	23 a2 5b 01 	sw	s5, 4(s7)
   1385c:	23 2e e1 0c 	sw	a4, 220(sp)
   13860:	23 2c f1 0c 	sw	a5, 216(sp)
   13864:	93 8b 8b 00 	addi	s7, s7, 8
   13868:	63 5e fb 00 	bge	s6, a5, 28
   1386c:	13 06 41 0d 	addi	a2, sp, 212
   13870:	93 05 09 00 	mv	a1, s2
   13874:	13 85 09 00 	mv	a0, s3
   13878:	ef 60 80 28 	jal	25224
   1387c:	e3 1e 05 fa 	bnez	a0, -68
   13880:	93 0b c1 0f 	addi	s7, sp, 252
   13884:	13 04 04 ff 	addi	s0, s0, -16
   13888:	6f f0 1f f7 	j	-144
   1388c:	83 25 c1 00 	lw	a1, 12(sp)
   13890:	13 85 09 00 	mv	a0, s3
   13894:	ef 00 10 23 	jal	2608
   13898:	6f f0 5f 92 	j	-1756
   1389c:	83 27 c1 0d 	lw	a5, 220(sp)
   138a0:	63 94 07 00 	bnez	a5, 8
   138a4:	6f e0 df 9a 	j	-5716
   138a8:	13 06 41 0d 	addi	a2, sp, 212
   138ac:	93 05 09 00 	mv	a1, s2
   138b0:	13 85 09 00 	mv	a0, s3
   138b4:	ef 60 c0 24 	jal	25164
   138b8:	6f e0 9f 99 	j	-5736
   138bc:	93 07 f0 ff 	addi	a5, zero, -1
   138c0:	63 1a fd b4 	bne	s10, a5, -3244
   138c4:	63 9c 0d bc 	bnez	s11, -3112
   138c8:	93 07 90 00 	addi	a5, zero, 9
   138cc:	63 e8 97 bd 	bltu	a5, s9, -3120
   138d0:	93 8c 0c 03 	addi	s9, s9, 48
   138d4:	a3 0f 91 19 	sb	s9, 415(sp)
   138d8:	93 04 f1 19 	addi	s1, sp, 415
   138dc:	6f f0 8f b9 	j	-3176

vfprintf:
   138e0:	93 06 06 00 	mv	a3, a2
   138e4:	13 86 05 00 	mv	a2, a1
   138e8:	93 05 05 00 	mv	a1, a0
   138ec:	03 a5 01 1c 	lw	a0, 448(gp)
   138f0:	6f e0 cf 83 	j	-8132

__sbprintf:
   138f4:	83 d7 c5 00 	lhu	a5, 12(a1)
   138f8:	13 01 01 b8 	addi	sp, sp, -1152
   138fc:	23 2c 81 46 	sw	s0, 1144(sp)
   13900:	93 f7 d7 ff 	andi	a5, a5, -3
   13904:	23 1a f1 00 	sh	a5, 20(sp)
   13908:	83 a7 45 06 	lw	a5, 100(a1)
   1390c:	13 84 05 00 	mv	s0, a1
   13910:	23 2a 91 46 	sw	s1, 1140(sp)
   13914:	23 26 f1 06 	sw	a5, 108(sp)
   13918:	83 d7 e5 00 	lhu	a5, 14(a1)
   1391c:	23 28 21 47 	sw	s2, 1136(sp)
   13920:	23 2e 11 46 	sw	ra, 1148(sp)
   13924:	23 1b f1 00 	sh	a5, 22(sp)
   13928:	83 a7 c5 01 	lw	a5, 28(a1)
   1392c:	13 09 05 00 	mv	s2, a0
   13930:	23 20 01 02 	sw	zero, 32(sp)
   13934:	23 22 f1 02 	sw	a5, 36(sp)
   13938:	83 a7 45 02 	lw	a5, 36(a1)
   1393c:	93 05 81 00 	addi	a1, sp, 8
   13940:	23 26 f1 02 	sw	a5, 44(sp)
   13944:	93 07 01 07 	addi	a5, sp, 112
   13948:	23 24 f1 00 	sw	a5, 8(sp)
   1394c:	23 2c f1 00 	sw	a5, 24(sp)
   13950:	93 07 00 40 	addi	a5, zero, 1024
   13954:	23 28 f1 00 	sw	a5, 16(sp)
   13958:	23 2e f1 00 	sw	a5, 28(sp)
   1395c:	ef d0 1f fd 	jal	-8240
   13960:	93 04 05 00 	mv	s1, a0
   13964:	63 4c 05 00 	bltz	a0, 24
   13968:	93 05 81 00 	addi	a1, sp, 8
   1396c:	13 05 09 00 	mv	a0, s2
   13970:	ef 00 40 51 	jal	1300
   13974:	63 04 05 00 	beqz	a0, 8
   13978:	93 04 f0 ff 	addi	s1, zero, -1
   1397c:	83 57 41 01 	lhu	a5, 20(sp)
   13980:	93 f7 07 04 	andi	a5, a5, 64
   13984:	63 88 07 00 	beqz	a5, 16
   13988:	83 57 c4 00 	lhu	a5, 12(s0)
   1398c:	93 e7 07 04 	ori	a5, a5, 64
   13990:	23 16 f4 00 	sh	a5, 12(s0)
   13994:	83 20 c1 47 	lw	ra, 1148(sp)
   13998:	03 24 81 47 	lw	s0, 1144(sp)
   1399c:	13 85 04 00 	mv	a0, s1
   139a0:	03 29 01 47 	lw	s2, 1136(sp)
   139a4:	83 24 41 47 	lw	s1, 1140(sp)
   139a8:	13 01 01 48 	addi	sp, sp, 1152
   139ac:	67 80 00 00 	ret

__swsetup_r:
   139b0:	13 01 01 ff 	addi	sp, sp, -16
   139b4:	23 22 91 00 	sw	s1, 4(sp)
   139b8:	93 04 05 00 	mv	s1, a0
   139bc:	03 a5 01 1c 	lw	a0, 448(gp)
   139c0:	23 24 81 00 	sw	s0, 8(sp)
   139c4:	23 26 11 00 	sw	ra, 12(sp)
   139c8:	13 84 05 00 	mv	s0, a1
   139cc:	63 08 05 00 	beqz	a0, 16
   139d0:	83 27 85 03 	lw	a5, 56(a0)
   139d4:	63 94 07 00 	bnez	a5, 8
   139d8:	ef 00 80 64 	jal	1608
   139dc:	03 17 c4 00 	lh	a4, 12(s0)
   139e0:	93 17 07 01 	slli	a5, a4, 16
   139e4:	93 d7 07 01 	srli	a5, a5, 16
   139e8:	93 f6 87 00 	andi	a3, a5, 8
   139ec:	63 9e 06 06 	bnez	a3, 124
   139f0:	93 f6 07 01 	andi	a3, a5, 16
   139f4:	63 96 06 02 	bnez	a3, 44
   139f8:	93 07 90 00 	addi	a5, zero, 9
   139fc:	23 a0 f4 00 	sw	a5, 0(s1)
   13a00:	13 67 07 04 	ori	a4, a4, 64
   13a04:	23 16 e4 00 	sh	a4, 12(s0)
   13a08:	13 05 f0 ff 	addi	a0, zero, -1
   13a0c:	83 20 c1 00 	lw	ra, 12(sp)
   13a10:	03 24 81 00 	lw	s0, 8(sp)
   13a14:	83 24 41 00 	lw	s1, 4(sp)
   13a18:	13 01 01 01 	addi	sp, sp, 16
   13a1c:	67 80 00 00 	ret
   13a20:	93 f7 47 00 	andi	a5, a5, 4
   13a24:	63 8c 07 02 	beqz	a5, 56
   13a28:	83 25 04 03 	lw	a1, 48(s0)
   13a2c:	63 8c 05 00 	beqz	a1, 24
   13a30:	93 07 04 04 	addi	a5, s0, 64
   13a34:	63 86 f5 00 	beq	a1, a5, 12
   13a38:	13 85 04 00 	mv	a0, s1
   13a3c:	ef 00 90 08 	jal	2184
   13a40:	23 28 04 02 	sw	zero, 48(s0)
   13a44:	83 57 c4 00 	lhu	a5, 12(s0)
   13a48:	23 22 04 00 	sw	zero, 4(s0)
   13a4c:	93 f7 b7 fd 	andi	a5, a5, -37
   13a50:	23 16 f4 00 	sh	a5, 12(s0)
   13a54:	83 27 04 01 	lw	a5, 16(s0)
   13a58:	23 20 f4 00 	sw	a5, 0(s0)
   13a5c:	83 57 c4 00 	lhu	a5, 12(s0)
   13a60:	93 e7 87 00 	ori	a5, a5, 8
   13a64:	23 16 f4 00 	sh	a5, 12(s0)
   13a68:	83 27 04 01 	lw	a5, 16(s0)
   13a6c:	63 90 07 02 	bnez	a5, 32
   13a70:	83 57 c4 00 	lhu	a5, 12(s0)
   13a74:	13 07 00 20 	addi	a4, zero, 512
   13a78:	93 f7 07 28 	andi	a5, a5, 640
   13a7c:	63 88 e7 00 	beq	a5, a4, 16
   13a80:	93 05 04 00 	mv	a1, s0
   13a84:	13 85 04 00 	mv	a0, s1
   13a88:	ef 20 50 46 	jal	11364
   13a8c:	83 57 c4 00 	lhu	a5, 12(s0)
   13a90:	13 f7 17 00 	andi	a4, a5, 1
   13a94:	63 0c 07 02 	beqz	a4, 56
   13a98:	83 27 44 01 	lw	a5, 20(s0)
   13a9c:	23 24 04 00 	sw	zero, 8(s0)
   13aa0:	b3 07 f0 40 	neg	a5, a5
   13aa4:	23 2c f4 00 	sw	a5, 24(s0)
   13aa8:	83 27 04 01 	lw	a5, 16(s0)
   13aac:	13 05 00 00 	mv	a0, zero
   13ab0:	e3 9e 07 f4 	bnez	a5, -164
   13ab4:	83 17 c4 00 	lh	a5, 12(s0)
   13ab8:	13 f7 07 08 	andi	a4, a5, 128
   13abc:	e3 08 07 f4 	beqz	a4, -176
   13ac0:	93 e7 07 04 	ori	a5, a5, 64
   13ac4:	23 16 f4 00 	sh	a5, 12(s0)
   13ac8:	6f f0 1f f4 	j	-192
   13acc:	93 f7 27 00 	andi	a5, a5, 2
   13ad0:	13 07 00 00 	mv	a4, zero
   13ad4:	63 94 07 00 	bnez	a5, 8
   13ad8:	03 27 44 01 	lw	a4, 20(s0)
   13adc:	23 24 e4 00 	sw	a4, 8(s0)
   13ae0:	6f f0 9f fc 	j	-56

__register_exitproc:
   13ae4:	03 a7 81 1b 	lw	a4, 440(gp)
   13ae8:	13 03 05 00 	mv	t1, a0
   13aec:	83 27 87 14 	lw	a5, 328(a4)
   13af0:	63 96 07 00 	bnez	a5, 12
   13af4:	93 07 c7 14 	addi	a5, a4, 332
   13af8:	23 24 f7 14 	sw	a5, 328(a4)
   13afc:	03 a7 47 00 	lw	a4, 4(a5)
   13b00:	13 08 f0 01 	addi	a6, zero, 31
   13b04:	13 05 f0 ff 	addi	a0, zero, -1
   13b08:	63 4a e8 04 	blt	a6, a4, 84
   13b0c:	93 18 27 00 	slli	a7, a4, 2
   13b10:	63 0c 03 02 	beqz	t1, 56
   13b14:	33 85 17 01 	add	a0, a5, a7
   13b18:	23 24 c5 08 	sw	a2, 136(a0)
   13b1c:	03 a8 87 18 	lw	a6, 392(a5)
   13b20:	13 06 10 00 	addi	a2, zero, 1
   13b24:	33 16 e6 00 	sll	a2, a2, a4
   13b28:	33 68 c8 00 	or	a6, a6, a2
   13b2c:	23 a4 07 19 	sw	a6, 392(a5)
   13b30:	23 24 d5 10 	sw	a3, 264(a0)
   13b34:	93 06 20 00 	addi	a3, zero, 2
   13b38:	63 18 d3 00 	bne	t1, a3, 16
   13b3c:	83 a6 c7 18 	lw	a3, 396(a5)
   13b40:	33 e6 c6 00 	or	a2, a3, a2
   13b44:	23 a6 c7 18 	sw	a2, 396(a5)
   13b48:	13 07 17 00 	addi	a4, a4, 1
   13b4c:	23 a2 e7 00 	sw	a4, 4(a5)
   13b50:	b3 87 17 01 	add	a5, a5, a7
   13b54:	23 a4 b7 00 	sw	a1, 8(a5)
   13b58:	13 05 00 00 	mv	a0, zero
   13b5c:	67 80 00 00 	ret

__call_exitprocs:
   13b60:	13 01 01 fd 	addi	sp, sp, -48
   13b64:	23 2e 31 01 	sw	s3, 28(sp)
   13b68:	83 a9 81 1b 	lw	s3, 440(gp)
   13b6c:	23 2c 41 01 	sw	s4, 24(sp)
   13b70:	23 2a 51 01 	sw	s5, 20(sp)
   13b74:	23 28 61 01 	sw	s6, 16(sp)
   13b78:	23 26 11 02 	sw	ra, 44(sp)
   13b7c:	23 24 81 02 	sw	s0, 40(sp)
   13b80:	23 22 91 02 	sw	s1, 36(sp)
   13b84:	23 20 21 03 	sw	s2, 32(sp)
   13b88:	23 26 71 01 	sw	s7, 12(sp)
   13b8c:	93 0a 05 00 	mv	s5, a0
   13b90:	13 8a 05 00 	mv	s4, a1
   13b94:	13 0b 10 00 	addi	s6, zero, 1
   13b98:	83 a4 89 14 	lw	s1, 328(s3)
   13b9c:	63 8c 04 00 	beqz	s1, 24
   13ba0:	03 a4 44 00 	lw	s0, 4(s1)
   13ba4:	13 09 f4 ff 	addi	s2, s0, -1
   13ba8:	13 14 24 00 	slli	s0, s0, 2
   13bac:	33 84 84 00 	add	s0, s1, s0
   13bb0:	63 58 09 02 	bgez	s2, 48
   13bb4:	83 20 c1 02 	lw	ra, 44(sp)
   13bb8:	03 24 81 02 	lw	s0, 40(sp)
   13bbc:	83 24 41 02 	lw	s1, 36(sp)
   13bc0:	03 29 01 02 	lw	s2, 32(sp)
   13bc4:	83 29 c1 01 	lw	s3, 28(sp)
   13bc8:	03 2a 81 01 	lw	s4, 24(sp)
   13bcc:	83 2a 41 01 	lw	s5, 20(sp)
   13bd0:	03 2b 01 01 	lw	s6, 16(sp)
   13bd4:	83 2b c1 00 	lw	s7, 12(sp)
   13bd8:	13 01 01 03 	addi	sp, sp, 48
   13bdc:	67 80 00 00 	ret
   13be0:	63 0c 0a 00 	beqz	s4, 24
   13be4:	83 27 44 10 	lw	a5, 260(s0)
   13be8:	63 88 47 01 	beq	a5, s4, 16
   13bec:	13 09 f9 ff 	addi	s2, s2, -1
   13bf0:	13 04 c4 ff 	addi	s0, s0, -4
   13bf4:	6f f0 df fb 	j	-68
   13bf8:	03 a7 44 00 	lw	a4, 4(s1)
   13bfc:	83 27 44 00 	lw	a5, 4(s0)
   13c00:	13 07 f7 ff 	addi	a4, a4, -1
   13c04:	63 1c 27 03 	bne	a4, s2, 56
   13c08:	23 a2 24 01 	sw	s2, 4(s1)
   13c0c:	e3 80 07 fe 	beqz	a5, -32
   13c10:	83 a6 84 18 	lw	a3, 392(s1)
   13c14:	33 17 2b 01 	sll	a4, s6, s2
   13c18:	83 ab 44 00 	lw	s7, 4(s1)
   13c1c:	b3 76 d7 00 	and	a3, a4, a3
   13c20:	63 92 06 02 	bnez	a3, 36
   13c24:	e7 80 07 00 	jalr	a5
   13c28:	83 a7 44 00 	lw	a5, 4(s1)
   13c2c:	e3 96 77 f7 	bne	a5, s7, -148
   13c30:	83 a7 89 14 	lw	a5, 328(s3)
   13c34:	e3 8c 97 fa 	beq	a5, s1, -72
   13c38:	6f f0 1f f6 	j	-160
   13c3c:	23 22 04 00 	sw	zero, 4(s0)
   13c40:	6f f0 df fc 	j	-52
   13c44:	83 a6 c4 18 	lw	a3, 396(s1)
   13c48:	83 25 44 08 	lw	a1, 132(s0)
   13c4c:	33 77 d7 00 	and	a4, a4, a3
   13c50:	63 18 07 00 	bnez	a4, 16
   13c54:	13 85 0a 00 	mv	a0, s5
   13c58:	e7 80 07 00 	jalr	a5
   13c5c:	6f f0 df fc 	j	-52
   13c60:	13 85 05 00 	mv	a0, a1
   13c64:	e7 80 07 00 	jalr	a5
   13c68:	6f f0 1f fc 	j	-64

__sflush_r:
   13c6c:	83 97 c5 00 	lh	a5, 12(a1)
   13c70:	13 01 01 fe 	addi	sp, sp, -32
   13c74:	23 2c 81 00 	sw	s0, 24(sp)
   13c78:	13 97 07 01 	slli	a4, a5, 16
   13c7c:	13 57 07 01 	srli	a4, a4, 16
   13c80:	23 2a 91 00 	sw	s1, 20(sp)
   13c84:	23 2e 11 00 	sw	ra, 28(sp)
   13c88:	23 28 21 01 	sw	s2, 16(sp)
   13c8c:	23 26 31 01 	sw	s3, 12(sp)
   13c90:	93 76 87 00 	andi	a3, a4, 8
   13c94:	93 04 05 00 	mv	s1, a0
   13c98:	13 84 05 00 	mv	s0, a1
   13c9c:	63 90 06 18 	bnez	a3, 384
   13ca0:	37 17 00 00 	lui	a4, 1
   13ca4:	13 07 07 80 	addi	a4, a4, -2048
   13ca8:	b3 e7 e7 00 	or	a5, a5, a4
   13cac:	03 a7 45 00 	lw	a4, 4(a1)
   13cb0:	23 96 f5 00 	sh	a5, 12(a1)
   13cb4:	63 46 e0 02 	bgtz	a4, 44
   13cb8:	03 a7 c5 03 	lw	a4, 60(a1)
   13cbc:	63 42 e0 02 	bgtz	a4, 36
   13cc0:	13 05 00 00 	mv	a0, zero
   13cc4:	83 20 c1 01 	lw	ra, 28(sp)
   13cc8:	03 24 81 01 	lw	s0, 24(sp)
   13ccc:	83 24 41 01 	lw	s1, 20(sp)
   13cd0:	03 29 01 01 	lw	s2, 16(sp)
   13cd4:	83 29 c1 00 	lw	s3, 12(sp)
   13cd8:	13 01 01 02 	addi	sp, sp, 32
   13cdc:	67 80 00 00 	ret
   13ce0:	03 27 84 02 	lw	a4, 40(s0)
   13ce4:	e3 0e 07 fc 	beqz	a4, -36
   13ce8:	03 a9 04 00 	lw	s2, 0(s1)
   13cec:	93 96 37 01 	slli	a3, a5, 19
   13cf0:	23 a0 04 00 	sw	zero, 0(s1)
   13cf4:	63 da 06 0c 	bgez	a3, 212
   13cf8:	03 25 04 05 	lw	a0, 80(s0)
   13cfc:	83 57 c4 00 	lhu	a5, 12(s0)
   13d00:	93 f7 47 00 	andi	a5, a5, 4
   13d04:	63 8e 07 00 	beqz	a5, 28
   13d08:	83 27 44 00 	lw	a5, 4(s0)
   13d0c:	33 05 f5 40 	sub	a0, a0, a5
   13d10:	83 27 04 03 	lw	a5, 48(s0)
   13d14:	63 86 07 00 	beqz	a5, 12
   13d18:	83 27 c4 03 	lw	a5, 60(s0)
   13d1c:	33 05 f5 40 	sub	a0, a0, a5
   13d20:	83 27 84 02 	lw	a5, 40(s0)
   13d24:	83 25 c4 01 	lw	a1, 28(s0)
   13d28:	93 06 00 00 	mv	a3, zero
   13d2c:	13 06 05 00 	mv	a2, a0
   13d30:	13 85 04 00 	mv	a0, s1
   13d34:	e7 80 07 00 	jalr	a5
   13d38:	93 07 f0 ff 	addi	a5, zero, -1
   13d3c:	83 56 c4 00 	lhu	a3, 12(s0)
   13d40:	63 12 f5 02 	bne	a0, a5, 36
   13d44:	83 a7 04 00 	lw	a5, 0(s1)
   13d48:	13 07 d0 01 	addi	a4, zero, 29
   13d4c:	63 64 f7 0c 	bltu	a4, a5, 200
   13d50:	37 07 40 20 	lui	a4, 132096
   13d54:	13 07 17 00 	addi	a4, a4, 1
   13d58:	33 57 f7 00 	srl	a4, a4, a5
   13d5c:	13 77 17 00 	andi	a4, a4, 1
   13d60:	63 0a 07 0a 	beqz	a4, 180
   13d64:	b7 f7 ff ff 	lui	a5, 1048575
   13d68:	93 87 f7 7f 	addi	a5, a5, 2047
   13d6c:	03 27 04 01 	lw	a4, 16(s0)
   13d70:	b3 f7 d7 00 	and	a5, a5, a3
   13d74:	93 97 07 01 	slli	a5, a5, 16
   13d78:	93 d7 07 41 	srai	a5, a5, 16
   13d7c:	23 20 e4 00 	sw	a4, 0(s0)
   13d80:	23 16 f4 00 	sh	a5, 12(s0)
   13d84:	23 22 04 00 	sw	zero, 4(s0)
   13d88:	13 97 37 01 	slli	a4, a5, 19
   13d8c:	63 5c 07 00 	bgez	a4, 24
   13d90:	93 07 f0 ff 	addi	a5, zero, -1
   13d94:	63 16 f5 00 	bne	a0, a5, 12
   13d98:	83 a7 04 00 	lw	a5, 0(s1)
   13d9c:	63 94 07 00 	bnez	a5, 8
   13da0:	23 28 a4 04 	sw	a0, 80(s0)
   13da4:	83 25 04 03 	lw	a1, 48(s0)
   13da8:	23 a0 24 01 	sw	s2, 0(s1)
   13dac:	e3 8a 05 f0 	beqz	a1, -236
   13db0:	93 07 04 04 	addi	a5, s0, 64
   13db4:	63 86 f5 00 	beq	a1, a5, 12
   13db8:	13 85 04 00 	mv	a0, s1
   13dbc:	ef 00 80 50 	jal	1288
   13dc0:	23 28 04 02 	sw	zero, 48(s0)
   13dc4:	6f f0 df ef 	j	-260
   13dc8:	83 25 c4 01 	lw	a1, 28(s0)
   13dcc:	93 06 10 00 	addi	a3, zero, 1
   13dd0:	13 06 00 00 	mv	a2, zero
   13dd4:	13 85 04 00 	mv	a0, s1
   13dd8:	e7 00 07 00 	jalr	a4
   13ddc:	93 07 f0 ff 	addi	a5, zero, -1
   13de0:	e3 1e f5 f0 	bne	a0, a5, -228
   13de4:	83 a7 04 00 	lw	a5, 0(s1)
   13de8:	e3 8a 07 f0 	beqz	a5, -236
   13dec:	13 07 d0 01 	addi	a4, zero, 29
   13df0:	63 86 e7 00 	beq	a5, a4, 12
   13df4:	13 07 60 01 	addi	a4, zero, 22
   13df8:	63 96 e7 00 	bne	a5, a4, 12
   13dfc:	23 a0 24 01 	sw	s2, 0(s1)
   13e00:	6f f0 1f ec 	j	-320
   13e04:	83 57 c4 00 	lhu	a5, 12(s0)
   13e08:	93 e7 07 04 	ori	a5, a5, 64
   13e0c:	23 16 f4 00 	sh	a5, 12(s0)
   13e10:	6f f0 5f eb 	j	-332
   13e14:	93 e7 06 04 	ori	a5, a3, 64
   13e18:	6f f0 5f ff 	j	-12
   13e1c:	83 a9 05 01 	lw	s3, 16(a1)
   13e20:	e3 80 09 ea 	beqz	s3, -352
   13e24:	03 a9 05 00 	lw	s2, 0(a1)
   13e28:	13 77 37 00 	andi	a4, a4, 3
   13e2c:	23 a0 35 01 	sw	s3, 0(a1)
   13e30:	33 09 39 41 	sub	s2, s2, s3
   13e34:	93 07 00 00 	mv	a5, zero
   13e38:	63 14 07 00 	bnez	a4, 8
   13e3c:	83 a7 45 01 	lw	a5, 20(a1)
   13e40:	23 24 f4 00 	sw	a5, 8(s0)
   13e44:	e3 5e 20 e7 	blez	s2, -388
   13e48:	83 27 44 02 	lw	a5, 36(s0)
   13e4c:	83 25 c4 01 	lw	a1, 28(s0)
   13e50:	93 06 09 00 	mv	a3, s2
   13e54:	13 86 09 00 	mv	a2, s3
   13e58:	13 85 04 00 	mv	a0, s1
   13e5c:	e7 80 07 00 	jalr	a5
   13e60:	63 4c a0 00 	bgtz	a0, 24
   13e64:	83 57 c4 00 	lhu	a5, 12(s0)
   13e68:	13 05 f0 ff 	addi	a0, zero, -1
   13e6c:	93 e7 07 04 	ori	a5, a5, 64
   13e70:	23 16 f4 00 	sh	a5, 12(s0)
   13e74:	6f f0 1f e5 	j	-432
   13e78:	b3 89 a9 00 	add	s3, s3, a0
   13e7c:	33 09 a9 40 	sub	s2, s2, a0
   13e80:	6f f0 5f fc 	j	-60

_fflush_r:
   13e84:	13 01 01 fe 	addi	sp, sp, -32
   13e88:	23 2c 81 00 	sw	s0, 24(sp)
   13e8c:	23 2e 11 00 	sw	ra, 28(sp)
   13e90:	13 04 05 00 	mv	s0, a0
   13e94:	63 0c 05 00 	beqz	a0, 24
   13e98:	83 27 85 03 	lw	a5, 56(a0)
   13e9c:	63 98 07 00 	bnez	a5, 16
   13ea0:	23 26 b1 00 	sw	a1, 12(sp)
   13ea4:	ef 00 c0 17 	jal	380
   13ea8:	83 25 c1 00 	lw	a1, 12(sp)
   13eac:	83 97 c5 00 	lh	a5, 12(a1)
   13eb0:	63 8c 07 00 	beqz	a5, 24
   13eb4:	13 05 04 00 	mv	a0, s0
   13eb8:	03 24 81 01 	lw	s0, 24(sp)
   13ebc:	83 20 c1 01 	lw	ra, 28(sp)
   13ec0:	13 01 01 02 	addi	sp, sp, 32
   13ec4:	6f f0 9f da 	j	-600
   13ec8:	83 20 c1 01 	lw	ra, 28(sp)
   13ecc:	03 24 81 01 	lw	s0, 24(sp)
   13ed0:	13 05 00 00 	mv	a0, zero
   13ed4:	13 01 01 02 	addi	sp, sp, 32
   13ed8:	67 80 00 00 	ret

fflush:
   13edc:	93 05 05 00 	mv	a1, a0
   13ee0:	63 1a 05 00 	bnez	a0, 20
   13ee4:	03 a5 81 1b 	lw	a0, 440(gp)
   13ee8:	b7 45 01 00 	lui	a1, 20
   13eec:	93 85 45 e8 	addi	a1, a1, -380
   13ef0:	6f 00 40 6c 	j	1732
   13ef4:	03 a5 01 1c 	lw	a0, 448(gp)
   13ef8:	6f f0 df f8 	j	-116

__fp_lock:
   13efc:	13 05 00 00 	mv	a0, zero
   13f00:	67 80 00 00 	ret

std:
   13f04:	13 01 01 ff 	addi	sp, sp, -16
   13f08:	23 24 81 00 	sw	s0, 8(sp)
   13f0c:	23 26 11 00 	sw	ra, 12(sp)
   13f10:	13 04 05 00 	mv	s0, a0
   13f14:	23 16 b5 00 	sh	a1, 12(a0)
   13f18:	23 17 c5 00 	sh	a2, 14(a0)
   13f1c:	23 20 05 00 	sw	zero, 0(a0)
   13f20:	23 22 05 00 	sw	zero, 4(a0)
   13f24:	23 24 05 00 	sw	zero, 8(a0)
   13f28:	23 22 05 06 	sw	zero, 100(a0)
   13f2c:	23 28 05 00 	sw	zero, 16(a0)
   13f30:	23 2a 05 00 	sw	zero, 20(a0)
   13f34:	23 2c 05 00 	sw	zero, 24(a0)
   13f38:	13 06 80 00 	addi	a2, zero, 8
   13f3c:	93 05 00 00 	mv	a1, zero
   13f40:	13 05 c5 05 	addi	a0, a0, 92
   13f44:	ef d0 1f 83 	jal	-10192
   13f48:	b7 87 01 00 	lui	a5, 24
   13f4c:	93 87 c7 9f 	addi	a5, a5, -1540
   13f50:	23 20 f4 02 	sw	a5, 32(s0)
   13f54:	b7 87 01 00 	lui	a5, 24
   13f58:	93 87 47 a5 	addi	a5, a5, -1452
   13f5c:	23 22 f4 02 	sw	a5, 36(s0)
   13f60:	b7 87 01 00 	lui	a5, 24
   13f64:	93 87 87 ad 	addi	a5, a5, -1320
   13f68:	23 24 f4 02 	sw	a5, 40(s0)
   13f6c:	b7 87 01 00 	lui	a5, 24
   13f70:	93 87 07 b3 	addi	a5, a5, -1232
   13f74:	23 2e 84 00 	sw	s0, 28(s0)
   13f78:	23 26 f4 02 	sw	a5, 44(s0)
   13f7c:	83 20 c1 00 	lw	ra, 12(sp)
   13f80:	03 24 81 00 	lw	s0, 8(sp)
   13f84:	13 01 01 01 	addi	sp, sp, 16
   13f88:	67 80 00 00 	ret

_cleanup_r:
   13f8c:	b7 b5 01 00 	lui	a1, 27
   13f90:	93 85 c5 a9 	addi	a1, a1, -1380
   13f94:	6f 00 00 62 	j	1568

__fp_unlock:
   13f98:	13 05 00 00 	mv	a0, zero
   13f9c:	67 80 00 00 	ret

__sfmoreglue:
   13fa0:	13 01 01 ff 	addi	sp, sp, -16
   13fa4:	13 86 f5 ff 	addi	a2, a1, -1
   13fa8:	23 24 81 00 	sw	s0, 8(sp)
   13fac:	13 14 16 00 	slli	s0, a2, 1
   13fb0:	33 04 c4 00 	add	s0, s0, a2
   13fb4:	13 14 24 00 	slli	s0, s0, 2
   13fb8:	33 04 c4 00 	add	s0, s0, a2
   13fbc:	13 14 34 00 	slli	s0, s0, 3
   13fc0:	23 20 21 01 	sw	s2, 0(sp)
   13fc4:	13 89 05 00 	mv	s2, a1
   13fc8:	93 05 44 07 	addi	a1, s0, 116
   13fcc:	23 22 91 00 	sw	s1, 4(sp)
   13fd0:	23 26 11 00 	sw	ra, 12(sp)
   13fd4:	ef d0 8f 94 	jal	-11960
   13fd8:	93 04 05 00 	mv	s1, a0
   13fdc:	63 00 05 02 	beqz	a0, 32
   13fe0:	23 20 05 00 	sw	zero, 0(a0)
   13fe4:	23 22 25 01 	sw	s2, 4(a0)
   13fe8:	13 05 c5 00 	addi	a0, a0, 12
   13fec:	23 a4 a4 00 	sw	a0, 8(s1)
   13ff0:	13 06 84 06 	addi	a2, s0, 104
   13ff4:	93 05 00 00 	mv	a1, zero
   13ff8:	ef d0 cf f7 	jal	-10372
   13ffc:	83 20 c1 00 	lw	ra, 12(sp)
   14000:	03 24 81 00 	lw	s0, 8(sp)
   14004:	13 85 04 00 	mv	a0, s1
   14008:	03 29 01 00 	lw	s2, 0(sp)
   1400c:	83 24 41 00 	lw	s1, 4(sp)
   14010:	13 01 01 01 	addi	sp, sp, 16
   14014:	67 80 00 00 	ret

_cleanup:
   14018:	03 a5 81 1b 	lw	a0, 440(gp)
   1401c:	6f f0 1f f7 	j	-144

__sinit:
   14020:	83 27 85 03 	lw	a5, 56(a0)
   14024:	63 9e 07 06 	bnez	a5, 124
   14028:	13 01 01 ff 	addi	sp, sp, -16
   1402c:	b7 47 01 00 	lui	a5, 20
   14030:	23 26 11 00 	sw	ra, 12(sp)
   14034:	23 24 81 00 	sw	s0, 8(sp)
   14038:	93 87 c7 f8 	addi	a5, a5, -116
   1403c:	23 2e f5 02 	sw	a5, 60(a0)
   14040:	93 07 30 00 	addi	a5, zero, 3
   14044:	23 22 f5 2e 	sw	a5, 740(a0)
   14048:	93 07 c5 2e 	addi	a5, a0, 748
   1404c:	13 04 05 00 	mv	s0, a0
   14050:	23 24 f5 2e 	sw	a5, 744(a0)
   14054:	23 20 05 2e 	sw	zero, 736(a0)
   14058:	03 25 45 00 	lw	a0, 4(a0)
   1405c:	13 06 00 00 	mv	a2, zero
   14060:	93 05 40 00 	addi	a1, zero, 4
   14064:	ef f0 1f ea 	jal	-352
   14068:	03 25 84 00 	lw	a0, 8(s0)
   1406c:	13 06 10 00 	addi	a2, zero, 1
   14070:	93 05 90 00 	addi	a1, zero, 9
   14074:	ef f0 1f e9 	jal	-368
   14078:	03 25 c4 00 	lw	a0, 12(s0)
   1407c:	13 06 20 00 	addi	a2, zero, 2
   14080:	93 05 20 01 	addi	a1, zero, 18
   14084:	ef f0 1f e8 	jal	-384
   14088:	93 07 10 00 	addi	a5, zero, 1
   1408c:	23 2c f4 02 	sw	a5, 56(s0)
   14090:	83 20 c1 00 	lw	ra, 12(sp)
   14094:	03 24 81 00 	lw	s0, 8(sp)
   14098:	13 01 01 01 	addi	sp, sp, 16
   1409c:	67 80 00 00 	ret
   140a0:	67 80 00 00 	ret

__sfp:
   140a4:	13 01 01 ff 	addi	sp, sp, -16
   140a8:	23 22 91 00 	sw	s1, 4(sp)
   140ac:	83 a4 81 1b 	lw	s1, 440(gp)
   140b0:	23 20 21 01 	sw	s2, 0(sp)
   140b4:	23 26 11 00 	sw	ra, 12(sp)
   140b8:	83 a7 84 03 	lw	a5, 56(s1)
   140bc:	23 24 81 00 	sw	s0, 8(sp)
   140c0:	13 09 05 00 	mv	s2, a0
   140c4:	63 96 07 00 	bnez	a5, 12
   140c8:	13 85 04 00 	mv	a0, s1
   140cc:	ef f0 5f f5 	jal	-172
   140d0:	93 84 04 2e 	addi	s1, s1, 736
   140d4:	03 a4 84 00 	lw	s0, 8(s1)
   140d8:	83 a7 44 00 	lw	a5, 4(s1)
   140dc:	93 87 f7 ff 	addi	a5, a5, -1
   140e0:	63 da 07 00 	bgez	a5, 20
   140e4:	83 a7 04 00 	lw	a5, 0(s1)
   140e8:	63 80 07 08 	beqz	a5, 128
   140ec:	83 a4 04 00 	lw	s1, 0(s1)
   140f0:	6f f0 5f fe 	j	-28
   140f4:	03 17 c4 00 	lh	a4, 12(s0)
   140f8:	63 14 07 06 	bnez	a4, 104
   140fc:	b7 07 ff ff 	lui	a5, 1048560
   14100:	93 87 17 00 	addi	a5, a5, 1
   14104:	23 22 04 06 	sw	zero, 100(s0)
   14108:	23 20 04 00 	sw	zero, 0(s0)
   1410c:	23 22 04 00 	sw	zero, 4(s0)
   14110:	23 24 04 00 	sw	zero, 8(s0)
   14114:	23 26 f4 00 	sw	a5, 12(s0)
   14118:	23 28 04 00 	sw	zero, 16(s0)
   1411c:	23 2a 04 00 	sw	zero, 20(s0)
   14120:	23 2c 04 00 	sw	zero, 24(s0)
   14124:	13 06 80 00 	addi	a2, zero, 8
   14128:	93 05 00 00 	mv	a1, zero
   1412c:	13 05 c4 05 	addi	a0, s0, 92
   14130:	ef d0 4f e4 	jal	-10684
   14134:	23 28 04 02 	sw	zero, 48(s0)
   14138:	23 2a 04 02 	sw	zero, 52(s0)
   1413c:	23 22 04 04 	sw	zero, 68(s0)
   14140:	23 24 04 04 	sw	zero, 72(s0)
   14144:	13 05 04 00 	mv	a0, s0
   14148:	83 20 c1 00 	lw	ra, 12(sp)
   1414c:	03 24 81 00 	lw	s0, 8(sp)
   14150:	83 24 41 00 	lw	s1, 4(sp)
   14154:	03 29 01 00 	lw	s2, 0(sp)
   14158:	13 01 01 01 	addi	sp, sp, 16
   1415c:	67 80 00 00 	ret
   14160:	13 04 84 06 	addi	s0, s0, 104
   14164:	6f f0 9f f7 	j	-136
   14168:	93 05 40 00 	addi	a1, zero, 4
   1416c:	13 05 09 00 	mv	a0, s2
   14170:	ef f0 1f e3 	jal	-464
   14174:	23 a0 a4 00 	sw	a0, 0(s1)
   14178:	13 04 05 00 	mv	s0, a0
   1417c:	e3 18 05 f6 	bnez	a0, -144
   14180:	93 07 c0 00 	addi	a5, zero, 12
   14184:	23 20 f9 00 	sw	a5, 0(s2)
   14188:	6f f0 df fb 	j	-68

__sfp_lock_acquire:
   1418c:	67 80 00 00 	ret

__sfp_lock_release:
   14190:	67 80 00 00 	ret

__sinit_lock_acquire:
   14194:	67 80 00 00 	ret

__sinit_lock_release:
   14198:	67 80 00 00 	ret

__fp_lock_all:
   1419c:	03 a5 01 1c 	lw	a0, 448(gp)
   141a0:	b7 45 01 00 	lui	a1, 20
   141a4:	93 85 c5 ef 	addi	a1, a1, -260
   141a8:	6f 00 c0 36 	j	876

__fp_unlock_all:
   141ac:	03 a5 01 1c 	lw	a0, 448(gp)
   141b0:	b7 45 01 00 	lui	a1, 20
   141b4:	93 85 85 f9 	addi	a1, a1, -104
   141b8:	6f 00 c0 35 	j	860

_malloc_trim_r:
   141bc:	13 01 01 fe 	addi	sp, sp, -32
   141c0:	23 28 21 01 	sw	s2, 16(sp)
   141c4:	23 2c 81 00 	sw	s0, 24(sp)
   141c8:	23 2a 91 00 	sw	s1, 20(sp)
   141cc:	23 26 31 01 	sw	s3, 12(sp)
   141d0:	13 84 05 00 	mv	s0, a1
   141d4:	23 2e 11 00 	sw	ra, 28(sp)
   141d8:	93 09 05 00 	mv	s3, a0
   141dc:	13 89 81 c2 	addi	s2, gp, -984
   141e0:	ef d0 0f e7 	jal	-10640
   141e4:	83 27 89 00 	lw	a5, 8(s2)
   141e8:	37 17 00 00 	lui	a4, 1
   141ec:	83 a4 47 00 	lw	s1, 4(a5)
   141f0:	93 07 f7 fe 	addi	a5, a4, -17
   141f4:	33 84 87 40 	sub	s0, a5, s0
   141f8:	93 f4 c4 ff 	andi	s1, s1, -4
   141fc:	33 04 94 00 	add	s0, s0, s1
   14200:	13 54 c4 00 	srli	s0, s0, 12
   14204:	13 04 f4 ff 	addi	s0, s0, -1
   14208:	13 14 c4 00 	slli	s0, s0, 12
   1420c:	63 56 e4 02 	bge	s0, a4, 44
   14210:	13 85 09 00 	mv	a0, s3
   14214:	ef d0 0f e4 	jal	-10688
   14218:	13 05 00 00 	mv	a0, zero
   1421c:	83 20 c1 01 	lw	ra, 28(sp)
   14220:	03 24 81 01 	lw	s0, 24(sp)
   14224:	83 24 41 01 	lw	s1, 20(sp)
   14228:	03 29 01 01 	lw	s2, 16(sp)
   1422c:	83 29 c1 00 	lw	s3, 12(sp)
   14230:	13 01 01 02 	addi	sp, sp, 32
   14234:	67 80 00 00 	ret
   14238:	93 05 00 00 	mv	a1, zero
   1423c:	13 85 09 00 	mv	a0, s3
   14240:	ef d0 4f ea 	jal	-10588
   14244:	83 27 89 00 	lw	a5, 8(s2)
   14248:	b3 87 97 00 	add	a5, a5, s1
   1424c:	e3 12 f5 fc 	bne	a0, a5, -60
   14250:	b3 05 80 40 	neg	a1, s0
   14254:	13 85 09 00 	mv	a0, s3
   14258:	ef d0 cf e8 	jal	-10612
   1425c:	93 07 f0 ff 	addi	a5, zero, -1
   14260:	63 1c f5 02 	bne	a0, a5, 56
   14264:	93 05 00 00 	mv	a1, zero
   14268:	13 85 09 00 	mv	a0, s3
   1426c:	ef d0 8f e7 	jal	-10632
   14270:	03 27 89 00 	lw	a4, 8(s2)
   14274:	93 06 f0 00 	addi	a3, zero, 15
   14278:	b3 07 e5 40 	sub	a5, a0, a4
   1427c:	e3 da f6 f8 	bge	a3, a5, -108
   14280:	83 a6 41 1c 	lw	a3, 452(gp)
   14284:	93 e7 17 00 	ori	a5, a5, 1
   14288:	23 22 f7 00 	sw	a5, 4(a4)
   1428c:	33 05 d5 40 	sub	a0, a0, a3
   14290:	23 ae a1 1e 	sw	a0, 508(gp)
   14294:	6f f0 df f7 	j	-132
   14298:	83 27 89 00 	lw	a5, 8(s2)
   1429c:	b3 84 84 40 	sub	s1, s1, s0
   142a0:	93 e4 14 00 	ori	s1, s1, 1
   142a4:	23 a2 97 00 	sw	s1, 4(a5)
   142a8:	83 a7 c1 1f 	lw	a5, 508(gp)
   142ac:	13 85 09 00 	mv	a0, s3
   142b0:	33 84 87 40 	sub	s0, a5, s0
   142b4:	23 ae 81 1e 	sw	s0, 508(gp)
   142b8:	ef d0 cf d9 	jal	-10852
   142bc:	13 05 10 00 	addi	a0, zero, 1
   142c0:	6f f0 df f5 	j	-164

_free_r:
   142c4:	63 86 05 24 	beqz	a1, 588
   142c8:	13 01 01 ff 	addi	sp, sp, -16
   142cc:	23 24 81 00 	sw	s0, 8(sp)
   142d0:	23 22 91 00 	sw	s1, 4(sp)
   142d4:	13 04 05 00 	mv	s0, a0
   142d8:	93 84 05 00 	mv	s1, a1
   142dc:	23 26 11 00 	sw	ra, 12(sp)
   142e0:	ef d0 0f d7 	jal	-10896
   142e4:	03 a5 c4 ff 	lw	a0, -4(s1)
   142e8:	93 86 84 ff 	addi	a3, s1, -8
   142ec:	93 77 e5 ff 	andi	a5, a0, -2
   142f0:	13 88 81 c2 	addi	a6, gp, -984
   142f4:	b3 85 f6 00 	add	a1, a3, a5
   142f8:	03 a7 45 00 	lw	a4, 4(a1)
   142fc:	03 28 88 00 	lw	a6, 8(a6)
   14300:	13 86 81 c2 	addi	a2, gp, -984
   14304:	13 77 c7 ff 	andi	a4, a4, -4
   14308:	13 75 15 00 	andi	a0, a0, 1
   1430c:	63 10 b8 06 	bne	a6, a1, 96
   14310:	b3 87 e7 00 	add	a5, a5, a4
   14314:	63 10 05 02 	bnez	a0, 32
   14318:	03 a7 84 ff 	lw	a4, -8(s1)
   1431c:	b3 86 e6 40 	sub	a3, a3, a4
   14320:	83 a5 86 00 	lw	a1, 8(a3)
   14324:	b3 87 e7 00 	add	a5, a5, a4
   14328:	03 a7 c6 00 	lw	a4, 12(a3)
   1432c:	23 a6 e5 00 	sw	a4, 12(a1)
   14330:	23 24 b7 00 	sw	a1, 8(a4)
   14334:	13 e7 17 00 	ori	a4, a5, 1
   14338:	23 a2 e6 00 	sw	a4, 4(a3)
   1433c:	03 a7 81 1c 	lw	a4, 456(gp)
   14340:	23 24 d6 00 	sw	a3, 8(a2)
   14344:	63 e8 e7 00 	bltu	a5, a4, 16
   14348:	83 a5 41 1d 	lw	a1, 468(gp)
   1434c:	13 05 04 00 	mv	a0, s0
   14350:	ef f0 df e6 	jal	-404
   14354:	13 05 04 00 	mv	a0, s0
   14358:	03 24 81 00 	lw	s0, 8(sp)
   1435c:	83 20 c1 00 	lw	ra, 12(sp)
   14360:	83 24 41 00 	lw	s1, 4(sp)
   14364:	13 01 01 01 	addi	sp, sp, 16
   14368:	6f d0 cf ce 	j	-11028
   1436c:	23 a2 e5 00 	sw	a4, 4(a1)
   14370:	13 08 00 00 	mv	a6, zero
   14374:	63 14 05 02 	bnez	a0, 40
   14378:	03 a5 84 ff 	lw	a0, -8(s1)
   1437c:	93 88 01 c3 	addi	a7, gp, -976
   14380:	b3 86 a6 40 	sub	a3, a3, a0
   14384:	b3 87 a7 00 	add	a5, a5, a0
   14388:	03 a5 86 00 	lw	a0, 8(a3)
   1438c:	63 04 15 0b 	beq	a0, a7, 168
   14390:	83 a8 c6 00 	lw	a7, 12(a3)
   14394:	23 26 15 01 	sw	a7, 12(a0)
   14398:	23 a4 a8 00 	sw	a0, 8(a7)
   1439c:	33 85 e5 00 	add	a0, a1, a4
   143a0:	03 25 45 00 	lw	a0, 4(a0)
   143a4:	13 75 15 00 	andi	a0, a0, 1
   143a8:	63 16 05 02 	bnez	a0, 44
   143ac:	b3 87 e7 00 	add	a5, a5, a4
   143b0:	03 a7 85 00 	lw	a4, 8(a1)
   143b4:	63 14 08 08 	bnez	a6, 136
   143b8:	13 85 01 c3 	addi	a0, gp, -976
   143bc:	63 10 a7 08 	bne	a4, a0, 128
   143c0:	23 2a d6 00 	sw	a3, 20(a2)
   143c4:	23 28 d6 00 	sw	a3, 16(a2)
   143c8:	23 a6 e6 00 	sw	a4, 12(a3)
   143cc:	23 a4 e6 00 	sw	a4, 8(a3)
   143d0:	13 08 10 00 	addi	a6, zero, 1
   143d4:	13 e7 17 00 	ori	a4, a5, 1
   143d8:	23 a2 e6 00 	sw	a4, 4(a3)
   143dc:	33 87 f6 00 	add	a4, a3, a5
   143e0:	23 20 f7 00 	sw	a5, 0(a4)
   143e4:	e3 18 08 f6 	bnez	a6, -144
   143e8:	13 07 f0 1f 	addi	a4, zero, 511
   143ec:	63 60 f7 06 	bltu	a4, a5, 96
   143f0:	93 d7 37 00 	srli	a5, a5, 3
   143f4:	93 d5 27 40 	srai	a1, a5, 2
   143f8:	13 07 10 00 	addi	a4, zero, 1
   143fc:	33 17 b7 00 	sll	a4, a4, a1
   14400:	83 25 46 00 	lw	a1, 4(a2)
   14404:	93 87 17 00 	addi	a5, a5, 1
   14408:	93 97 37 00 	slli	a5, a5, 3
   1440c:	b3 07 f6 00 	add	a5, a2, a5
   14410:	33 67 b7 00 	or	a4, a4, a1
   14414:	23 22 e6 00 	sw	a4, 4(a2)
   14418:	03 a7 07 00 	lw	a4, 0(a5)
   1441c:	13 86 87 ff 	addi	a2, a5, -8
   14420:	23 a6 c6 00 	sw	a2, 12(a3)
   14424:	23 a4 e6 00 	sw	a4, 8(a3)
   14428:	23 a0 d7 00 	sw	a3, 0(a5)
   1442c:	23 26 d7 00 	sw	a3, 12(a4)
   14430:	6f f0 5f f2 	j	-220
   14434:	13 08 10 00 	addi	a6, zero, 1
   14438:	6f f0 5f f6 	j	-156
   1443c:	83 a5 c5 00 	lw	a1, 12(a1)
   14440:	23 26 b7 00 	sw	a1, 12(a4)
   14444:	23 a4 e5 00 	sw	a4, 8(a1)
   14448:	6f f0 df f8 	j	-116
   1444c:	93 d5 97 00 	srli	a1, a5, 9
   14450:	13 07 40 00 	addi	a4, zero, 4
   14454:	63 68 b7 04 	bltu	a4, a1, 80
   14458:	13 d7 67 00 	srli	a4, a5, 6
   1445c:	13 07 87 03 	addi	a4, a4, 56
   14460:	93 05 17 00 	addi	a1, a4, 1
   14464:	93 95 35 00 	slli	a1, a1, 3
   14468:	b3 05 b6 00 	add	a1, a2, a1
   1446c:	13 85 85 ff 	addi	a0, a1, -8
   14470:	83 a5 05 00 	lw	a1, 0(a1)
   14474:	63 14 b5 08 	bne	a0, a1, 136
   14478:	93 07 10 00 	addi	a5, zero, 1
   1447c:	13 57 27 40 	srai	a4, a4, 2
   14480:	33 97 e7 00 	sll	a4, a5, a4
   14484:	83 27 46 00 	lw	a5, 4(a2)
   14488:	33 67 f7 00 	or	a4, a4, a5
   1448c:	23 22 e6 00 	sw	a4, 4(a2)
   14490:	23 a6 a6 00 	sw	a0, 12(a3)
   14494:	23 a4 b6 00 	sw	a1, 8(a3)
   14498:	23 24 d5 00 	sw	a3, 8(a0)
   1449c:	23 a6 d5 00 	sw	a3, 12(a1)
   144a0:	6f f0 5f eb 	j	-332
   144a4:	13 07 40 01 	addi	a4, zero, 20
   144a8:	63 66 b7 00 	bltu	a4, a1, 12
   144ac:	13 87 b5 05 	addi	a4, a1, 91
   144b0:	6f f0 1f fb 	j	-80
   144b4:	13 07 40 05 	addi	a4, zero, 84
   144b8:	63 68 b7 00 	bltu	a4, a1, 16
   144bc:	13 d7 c7 00 	srli	a4, a5, 12
   144c0:	13 07 e7 06 	addi	a4, a4, 110
   144c4:	6f f0 df f9 	j	-100
   144c8:	13 07 40 15 	addi	a4, zero, 340
   144cc:	63 68 b7 00 	bltu	a4, a1, 16
   144d0:	13 d7 f7 00 	srli	a4, a5, 15
   144d4:	13 07 77 07 	addi	a4, a4, 119
   144d8:	6f f0 9f f8 	j	-120
   144dc:	13 05 40 55 	addi	a0, zero, 1364
   144e0:	13 07 e0 07 	addi	a4, zero, 126
   144e4:	e3 6e b5 f6 	bltu	a0, a1, -132
   144e8:	13 d7 27 01 	srli	a4, a5, 18
   144ec:	13 07 c7 07 	addi	a4, a4, 124
   144f0:	6f f0 1f f7 	j	-144
   144f4:	83 a5 85 00 	lw	a1, 8(a1)
   144f8:	63 08 b5 00 	beq	a0, a1, 16
   144fc:	03 a7 45 00 	lw	a4, 4(a1)
   14500:	13 77 c7 ff 	andi	a4, a4, -4
   14504:	e3 e8 e7 fe 	bltu	a5, a4, -16
   14508:	03 a5 c5 00 	lw	a0, 12(a1)
   1450c:	6f f0 5f f8 	j	-124
   14510:	67 80 00 00 	ret

_fwalk:
   14514:	13 01 01 fd 	addi	sp, sp, -48
   14518:	23 24 81 02 	sw	s0, 40(sp)
   1451c:	23 20 21 03 	sw	s2, 32(sp)
   14520:	23 2c 41 01 	sw	s4, 24(sp)
   14524:	23 2a 51 01 	sw	s5, 20(sp)
   14528:	23 26 11 02 	sw	ra, 44(sp)
   1452c:	23 22 91 02 	sw	s1, 36(sp)
   14530:	23 2e 31 01 	sw	s3, 28(sp)
   14534:	13 04 05 2e 	addi	s0, a0, 736
   14538:	13 09 00 00 	mv	s2, zero
   1453c:	13 0a 10 00 	addi	s4, zero, 1
   14540:	93 0a f0 ff 	addi	s5, zero, -1
   14544:	63 16 04 02 	bnez	s0, 44
   14548:	83 20 c1 02 	lw	ra, 44(sp)
   1454c:	03 24 81 02 	lw	s0, 40(sp)
   14550:	13 05 09 00 	mv	a0, s2
   14554:	83 24 41 02 	lw	s1, 36(sp)
   14558:	03 29 01 02 	lw	s2, 32(sp)
   1455c:	83 29 c1 01 	lw	s3, 28(sp)
   14560:	03 2a 81 01 	lw	s4, 24(sp)
   14564:	83 2a 41 01 	lw	s5, 20(sp)
   14568:	13 01 01 03 	addi	sp, sp, 48
   1456c:	67 80 00 00 	ret
   14570:	83 24 84 00 	lw	s1, 8(s0)
   14574:	83 29 44 00 	lw	s3, 4(s0)
   14578:	93 89 f9 ff 	addi	s3, s3, -1
   1457c:	63 d6 09 00 	bgez	s3, 12
   14580:	03 24 04 00 	lw	s0, 0(s0)
   14584:	6f f0 1f fc 	j	-64
   14588:	83 d7 c4 00 	lhu	a5, 12(s1)
   1458c:	63 70 fa 02 	bgeu	s4, a5, 32
   14590:	83 97 e4 00 	lh	a5, 14(s1)
   14594:	63 8c 57 01 	beq	a5, s5, 24
   14598:	13 85 04 00 	mv	a0, s1
   1459c:	23 26 b1 00 	sw	a1, 12(sp)
   145a0:	e7 80 05 00 	jalr	a1
   145a4:	83 25 c1 00 	lw	a1, 12(sp)
   145a8:	33 69 a9 00 	or	s2, s2, a0
   145ac:	93 84 84 06 	addi	s1, s1, 104
   145b0:	6f f0 9f fc 	j	-56

_fwalk_reent:
   145b4:	13 01 01 fd 	addi	sp, sp, -48
   145b8:	23 24 81 02 	sw	s0, 40(sp)
   145bc:	23 20 21 03 	sw	s2, 32(sp)
   145c0:	23 2c 41 01 	sw	s4, 24(sp)
   145c4:	23 2a 51 01 	sw	s5, 20(sp)
   145c8:	23 28 61 01 	sw	s6, 16(sp)
   145cc:	23 26 71 01 	sw	s7, 12(sp)
   145d0:	23 26 11 02 	sw	ra, 44(sp)
   145d4:	23 22 91 02 	sw	s1, 36(sp)
   145d8:	23 2e 31 01 	sw	s3, 28(sp)
   145dc:	13 0a 05 00 	mv	s4, a0
   145e0:	93 8a 05 00 	mv	s5, a1
   145e4:	13 04 05 2e 	addi	s0, a0, 736
   145e8:	13 09 00 00 	mv	s2, zero
   145ec:	13 0b 10 00 	addi	s6, zero, 1
   145f0:	93 0b f0 ff 	addi	s7, zero, -1
   145f4:	63 1a 04 02 	bnez	s0, 52
   145f8:	83 20 c1 02 	lw	ra, 44(sp)
   145fc:	03 24 81 02 	lw	s0, 40(sp)
   14600:	13 05 09 00 	mv	a0, s2
   14604:	83 24 41 02 	lw	s1, 36(sp)
   14608:	03 29 01 02 	lw	s2, 32(sp)
   1460c:	83 29 c1 01 	lw	s3, 28(sp)
   14610:	03 2a 81 01 	lw	s4, 24(sp)
   14614:	83 2a 41 01 	lw	s5, 20(sp)
   14618:	03 2b 01 01 	lw	s6, 16(sp)
   1461c:	83 2b c1 00 	lw	s7, 12(sp)
   14620:	13 01 01 03 	addi	sp, sp, 48
   14624:	67 80 00 00 	ret
   14628:	83 24 84 00 	lw	s1, 8(s0)
   1462c:	83 29 44 00 	lw	s3, 4(s0)
   14630:	93 89 f9 ff 	addi	s3, s3, -1
   14634:	63 d6 09 00 	bgez	s3, 12
   14638:	03 24 04 00 	lw	s0, 0(s0)
   1463c:	6f f0 9f fb 	j	-72
   14640:	83 d7 c4 00 	lhu	a5, 12(s1)
   14644:	63 7e fb 00 	bgeu	s6, a5, 28
   14648:	83 97 e4 00 	lh	a5, 14(s1)
   1464c:	63 8a 77 01 	beq	a5, s7, 20
   14650:	93 85 04 00 	mv	a1, s1
   14654:	13 05 0a 00 	mv	a0, s4
   14658:	e7 80 0a 00 	jalr	s5
   1465c:	33 69 a9 00 	or	s2, s2, a0
   14660:	93 84 84 06 	addi	s1, s1, 104
   14664:	6f f0 df fc 	j	-52

eclear:
   14668:	93 07 45 01 	addi	a5, a0, 20
   1466c:	13 05 25 00 	addi	a0, a0, 2
   14670:	23 1f 05 fe 	sh	zero, -2(a0)
   14674:	e3 1c f5 fe 	bne	a0, a5, -8
   14678:	67 80 00 00 	ret

emov:
   1467c:	93 07 00 00 	mv	a5, zero
   14680:	13 07 40 01 	addi	a4, zero, 20
   14684:	b3 06 f5 00 	add	a3, a0, a5
   14688:	03 d6 06 00 	lhu	a2, 0(a3)
   1468c:	b3 86 f5 00 	add	a3, a1, a5
   14690:	93 87 27 00 	addi	a5, a5, 2
   14694:	23 90 c6 00 	sh	a2, 0(a3)
   14698:	e3 96 e7 fe 	bne	a5, a4, -20
   1469c:	67 80 00 00 	ret

ecleaz:
   146a0:	93 07 a5 01 	addi	a5, a0, 26
   146a4:	13 05 25 00 	addi	a0, a0, 2
   146a8:	23 1f 05 fe 	sh	zero, -2(a0)
   146ac:	e3 1c f5 fe 	bne	a0, a5, -8
   146b0:	67 80 00 00 	ret

emovz:
   146b4:	93 07 00 00 	mv	a5, zero
   146b8:	13 07 80 01 	addi	a4, zero, 24
   146bc:	b3 06 f5 00 	add	a3, a0, a5
   146c0:	03 d6 06 00 	lhu	a2, 0(a3)
   146c4:	b3 86 f5 00 	add	a3, a1, a5
   146c8:	93 87 27 00 	addi	a5, a5, 2
   146cc:	23 90 c6 00 	sh	a2, 0(a3)
   146d0:	e3 96 e7 fe 	bne	a5, a4, -20
   146d4:	23 9c 05 00 	sh	zero, 24(a1)
   146d8:	67 80 00 00 	ret

ecmpm:
   146dc:	93 07 40 00 	addi	a5, zero, 4
   146e0:	13 06 a0 01 	addi	a2, zero, 26
   146e4:	33 07 f5 00 	add	a4, a0, a5
   146e8:	83 56 07 00 	lhu	a3, 0(a4)
   146ec:	33 87 f5 00 	add	a4, a1, a5
   146f0:	03 57 07 00 	lhu	a4, 0(a4)
   146f4:	63 8a e6 00 	beq	a3, a4, 20
   146f8:	13 05 10 00 	addi	a0, zero, 1
   146fc:	63 6c d7 00 	bltu	a4, a3, 24
   14700:	13 05 f0 ff 	addi	a0, zero, -1
   14704:	67 80 00 00 	ret
   14708:	93 87 27 00 	addi	a5, a5, 2
   1470c:	e3 9c c7 fc 	bne	a5, a2, -40
   14710:	13 05 00 00 	mv	a0, zero
   14714:	67 80 00 00 	ret

eshdn1:
   14718:	93 06 45 00 	addi	a3, a0, 4
   1471c:	93 07 00 00 	mv	a5, zero
   14720:	13 05 a5 01 	addi	a0, a0, 26
   14724:	37 86 ff ff 	lui	a2, 1048568
   14728:	03 d7 06 00 	lhu	a4, 0(a3)
   1472c:	93 75 17 00 	andi	a1, a4, 1
   14730:	63 84 05 00 	beqz	a1, 8
   14734:	93 e7 17 00 	ori	a5, a5, 1
   14738:	93 f5 27 00 	andi	a1, a5, 2
   1473c:	13 57 17 00 	srli	a4, a4, 1
   14740:	63 90 05 02 	bnez	a1, 32
   14744:	93 97 17 00 	slli	a5, a5, 1
   14748:	23 90 e6 00 	sh	a4, 0(a3)
   1474c:	93 97 07 01 	slli	a5, a5, 16
   14750:	93 86 26 00 	addi	a3, a3, 2
   14754:	93 d7 07 01 	srli	a5, a5, 16
   14758:	e3 18 d5 fc 	bne	a0, a3, -48
   1475c:	67 80 00 00 	ret
   14760:	33 67 c7 00 	or	a4, a4, a2
   14764:	6f f0 1f fe 	j	-32

eshup1:
   14768:	93 06 65 01 	addi	a3, a0, 22
   1476c:	13 07 00 00 	mv	a4, zero
   14770:	83 d7 26 00 	lhu	a5, 2(a3)
   14774:	13 96 07 01 	slli	a2, a5, 16
   14778:	13 56 06 41 	srai	a2, a2, 16
   1477c:	63 54 06 00 	bgez	a2, 8
   14780:	13 67 17 00 	ori	a4, a4, 1
   14784:	93 97 17 00 	slli	a5, a5, 1
   14788:	93 97 07 01 	slli	a5, a5, 16
   1478c:	13 76 27 00 	andi	a2, a4, 2
   14790:	93 d7 07 01 	srli	a5, a5, 16
   14794:	63 10 06 02 	bnez	a2, 32
   14798:	13 17 17 00 	slli	a4, a4, 1
   1479c:	23 91 f6 00 	sh	a5, 2(a3)
   147a0:	13 17 07 01 	slli	a4, a4, 16
   147a4:	93 86 e6 ff 	addi	a3, a3, -2
   147a8:	13 57 07 01 	srli	a4, a4, 16
   147ac:	e3 12 d5 fc 	bne	a0, a3, -60
   147b0:	67 80 00 00 	ret
   147b4:	93 e7 17 00 	ori	a5, a5, 1
   147b8:	6f f0 1f fe 	j	-32

eshdn8:
   147bc:	93 07 45 00 	addi	a5, a0, 4
   147c0:	13 07 00 00 	mv	a4, zero
   147c4:	13 05 a5 01 	addi	a0, a0, 26
   147c8:	83 d6 07 00 	lhu	a3, 0(a5)
   147cc:	93 87 27 00 	addi	a5, a5, 2
   147d0:	13 d6 86 00 	srli	a2, a3, 8
   147d4:	33 67 c7 00 	or	a4, a4, a2
   147d8:	23 9f e7 fe 	sh	a4, -2(a5)
   147dc:	13 97 86 00 	slli	a4, a3, 8
   147e0:	13 17 07 01 	slli	a4, a4, 16
   147e4:	13 57 07 01 	srli	a4, a4, 16
   147e8:	e3 10 f5 fe 	bne	a0, a5, -32
   147ec:	67 80 00 00 	ret

eshup8:
   147f0:	93 07 65 01 	addi	a5, a0, 22
   147f4:	13 07 00 00 	mv	a4, zero
   147f8:	83 d6 27 00 	lhu	a3, 2(a5)
   147fc:	93 87 e7 ff 	addi	a5, a5, -2
   14800:	13 96 86 00 	slli	a2, a3, 8
   14804:	33 67 c7 00 	or	a4, a4, a2
   14808:	23 92 e7 00 	sh	a4, 4(a5)
   1480c:	13 d7 86 00 	srli	a4, a3, 8
   14810:	e3 14 f5 fe 	bne	a0, a5, -24
   14814:	67 80 00 00 	ret

eshup6:
   14818:	93 07 45 00 	addi	a5, a0, 4
   1481c:	13 07 85 01 	addi	a4, a0, 24
   14820:	93 87 27 00 	addi	a5, a5, 2
   14824:	83 d6 07 00 	lhu	a3, 0(a5)
   14828:	23 9f d7 fe 	sh	a3, -2(a5)
   1482c:	e3 1a f7 fe 	bne	a4, a5, -12
   14830:	23 1c 05 00 	sh	zero, 24(a0)
   14834:	67 80 00 00 	ret

eshdn6:
   14838:	93 07 85 01 	addi	a5, a0, 24
   1483c:	13 07 45 00 	addi	a4, a0, 4
   14840:	93 87 e7 ff 	addi	a5, a5, -2
   14844:	83 d6 07 00 	lhu	a3, 0(a5)
   14848:	23 91 d7 00 	sh	a3, 2(a5)
   1484c:	e3 1a f7 fe 	bne	a4, a5, -12
   14850:	23 12 05 00 	sh	zero, 4(a0)
   14854:	67 80 00 00 	ret

eaddm:
   14858:	93 85 85 01 	addi	a1, a1, 24
   1485c:	13 07 65 01 	addi	a4, a0, 22
   14860:	93 06 00 00 	mv	a3, zero
   14864:	83 57 27 00 	lhu	a5, 2(a4)
   14868:	03 d6 05 00 	lhu	a2, 0(a1)
   1486c:	13 07 e7 ff 	addi	a4, a4, -2
   14870:	93 85 e5 ff 	addi	a1, a1, -2
   14874:	b3 87 c7 00 	add	a5, a5, a2
   14878:	b3 87 d7 00 	add	a5, a5, a3
   1487c:	23 91 f5 00 	sh	a5, 2(a1)
   14880:	93 d7 07 01 	srli	a5, a5, 16
   14884:	93 f6 17 00 	andi	a3, a5, 1
   14888:	e3 1e e5 fc 	bne	a0, a4, -36
   1488c:	67 80 00 00 	ret

esubm:
   14890:	93 85 85 01 	addi	a1, a1, 24
   14894:	13 07 65 01 	addi	a4, a0, 22
   14898:	93 06 00 00 	mv	a3, zero
   1489c:	83 d7 05 00 	lhu	a5, 0(a1)
   148a0:	13 07 e7 ff 	addi	a4, a4, -2
   148a4:	93 85 e5 ff 	addi	a1, a1, -2
   148a8:	b3 87 d7 40 	sub	a5, a5, a3
   148ac:	83 56 47 00 	lhu	a3, 4(a4)
   148b0:	b3 87 d7 40 	sub	a5, a5, a3
   148b4:	23 91 f5 00 	sh	a5, 2(a1)
   148b8:	93 d7 07 01 	srli	a5, a5, 16
   148bc:	93 f6 17 00 	andi	a3, a5, 1
   148c0:	e3 1e e5 fc 	bne	a0, a4, -36
   148c4:	67 80 00 00 	ret

m16m:
   148c8:	13 01 01 fb 	addi	sp, sp, -80
   148cc:	23 2e 31 03 	sw	s3, 60(sp)
   148d0:	b7 09 01 00 	lui	s3, 16
   148d4:	23 24 81 04 	sw	s0, 72(sp)
   148d8:	23 22 91 04 	sw	s1, 68(sp)
   148dc:	23 20 21 05 	sw	s2, 64(sp)
   148e0:	23 2c 41 03 	sw	s4, 56(sp)
   148e4:	23 26 11 04 	sw	ra, 76(sp)
   148e8:	13 0a 05 00 	mv	s4, a0
   148ec:	23 15 01 02 	sh	zero, 42(sp)
   148f0:	23 16 01 02 	sh	zero, 44(sp)
   148f4:	93 84 85 01 	addi	s1, a1, 24
   148f8:	13 89 45 00 	addi	s2, a1, 4
   148fc:	13 04 c1 02 	addi	s0, sp, 44
   14900:	93 89 f9 ff 	addi	s3, s3, -1
   14904:	03 d5 04 00 	lhu	a0, 0(s1)
   14908:	13 04 e4 ff 	addi	s0, s0, -2
   1490c:	93 84 e4 ff 	addi	s1, s1, -2
   14910:	63 18 05 04 	bnez	a0, 80
   14914:	23 1f 04 fe 	sh	zero, -2(s0)
   14918:	e3 16 99 fe 	bne	s2, s1, -20
   1491c:	93 07 40 00 	addi	a5, zero, 4
   14920:	13 07 a0 01 	addi	a4, zero, 26
   14924:	93 05 41 01 	addi	a1, sp, 20
   14928:	b3 85 f5 00 	add	a1, a1, a5
   1492c:	83 d5 05 00 	lhu	a1, 0(a1)
   14930:	b3 06 f6 00 	add	a3, a2, a5
   14934:	93 87 27 00 	addi	a5, a5, 2
   14938:	23 90 b6 00 	sh	a1, 0(a3)
   1493c:	e3 94 e7 fe 	bne	a5, a4, -24
   14940:	83 20 c1 04 	lw	ra, 76(sp)
   14944:	03 24 81 04 	lw	s0, 72(sp)
   14948:	83 24 41 04 	lw	s1, 68(sp)
   1494c:	03 29 01 04 	lw	s2, 64(sp)
   14950:	83 29 c1 03 	lw	s3, 60(sp)
   14954:	03 2a 81 03 	lw	s4, 56(sp)
   14958:	13 01 01 05 	addi	sp, sp, 80
   1495c:	67 80 00 00 	ret
   14960:	93 05 0a 00 	mv	a1, s4
   14964:	23 26 c1 00 	sw	a2, 12(sp)
   14968:	ef d0 00 36 	jal	54112
   1496c:	03 57 24 00 	lhu	a4, 2(s0)
   14970:	b3 77 35 01 	and	a5, a0, s3
   14974:	13 55 05 01 	srli	a0, a0, 16
   14978:	b3 87 e7 00 	add	a5, a5, a4
   1497c:	03 57 04 00 	lhu	a4, 0(s0)
   14980:	23 11 f4 00 	sh	a5, 2(s0)
   14984:	93 d7 07 01 	srli	a5, a5, 16
   14988:	33 05 e5 00 	add	a0, a0, a4
   1498c:	33 05 f5 00 	add	a0, a0, a5
   14990:	23 10 a4 00 	sh	a0, 0(s0)
   14994:	13 55 05 01 	srli	a0, a0, 16
   14998:	23 1f a4 fe 	sh	a0, -2(s0)
   1499c:	03 26 c1 00 	lw	a2, 12(sp)
   149a0:	6f f0 9f f7 	j	-136

eisnan:
   149a4:	83 57 25 01 	lhu	a5, 18(a0)
   149a8:	93 c7 f7 ff 	not	a5, a5
   149ac:	13 97 17 01 	slli	a4, a5, 17
   149b0:	63 1c 07 00 	bnez	a4, 24
   149b4:	93 07 25 01 	addi	a5, a0, 18
   149b8:	13 05 25 00 	addi	a0, a0, 2
   149bc:	03 57 e5 ff 	lhu	a4, -2(a0)
   149c0:	63 18 07 00 	bnez	a4, 16
   149c4:	e3 9a a7 fe 	bne	a5, a0, -12
   149c8:	13 05 00 00 	mv	a0, zero
   149cc:	67 80 00 00 	ret
   149d0:	13 05 10 00 	addi	a0, zero, 1
   149d4:	67 80 00 00 	ret

eisneg:
   149d8:	13 01 01 ff 	addi	sp, sp, -16
   149dc:	23 24 81 00 	sw	s0, 8(sp)
   149e0:	23 26 11 00 	sw	ra, 12(sp)
   149e4:	13 04 05 00 	mv	s0, a0
   149e8:	ef f0 df fb 	jal	-68
   149ec:	63 1e 05 00 	bnez	a0, 28
   149f0:	03 15 24 01 	lh	a0, 18(s0)
   149f4:	13 55 f5 01 	srli	a0, a0, 31
   149f8:	83 20 c1 00 	lw	ra, 12(sp)
   149fc:	03 24 81 00 	lw	s0, 8(sp)
   14a00:	13 01 01 01 	addi	sp, sp, 16
   14a04:	67 80 00 00 	ret
   14a08:	13 05 00 00 	mv	a0, zero
   14a0c:	6f f0 df fe 	j	-20

emovi:
   14a10:	83 17 25 01 	lh	a5, 18(a0)
   14a14:	13 01 01 ff 	addi	sp, sp, -16
   14a18:	23 26 11 00 	sw	ra, 12(sp)
   14a1c:	23 24 81 00 	sw	s0, 8(sp)
   14a20:	23 22 91 00 	sw	s1, 4(sp)
   14a24:	23 20 21 01 	sw	s2, 0(sp)
   14a28:	63 d8 07 06 	bgez	a5, 112
   14a2c:	93 07 f0 ff 	addi	a5, zero, -1
   14a30:	23 90 f5 00 	sh	a5, 0(a1)
   14a34:	03 57 25 01 	lhu	a4, 18(a0)
   14a38:	b7 87 00 00 	lui	a5, 8
   14a3c:	93 87 f7 ff 	addi	a5, a5, -1
   14a40:	33 f7 e7 00 	and	a4, a5, a4
   14a44:	23 91 e5 00 	sh	a4, 2(a1)
   14a48:	13 09 05 01 	addi	s2, a0, 16
   14a4c:	63 16 f7 06 	bne	a4, a5, 108
   14a50:	13 84 05 00 	mv	s0, a1
   14a54:	93 04 05 00 	mv	s1, a0
   14a58:	ef f0 df f4 	jal	-180
   14a5c:	63 02 05 04 	beqz	a0, 68
   14a60:	93 07 64 00 	addi	a5, s0, 6
   14a64:	23 12 04 00 	sh	zero, 4(s0)
   14a68:	13 85 c4 ff 	addi	a0, s1, -4
   14a6c:	13 09 e9 ff 	addi	s2, s2, -2
   14a70:	03 57 29 00 	lhu	a4, 2(s2)
   14a74:	93 87 27 00 	addi	a5, a5, 2
   14a78:	23 9f e7 fe 	sh	a4, -2(a5)
   14a7c:	e3 18 a9 fe 	bne	s2, a0, -16
   14a80:	83 20 c1 00 	lw	ra, 12(sp)
   14a84:	03 24 81 00 	lw	s0, 8(sp)
   14a88:	83 24 41 00 	lw	s1, 4(sp)
   14a8c:	03 29 01 00 	lw	s2, 0(sp)
   14a90:	13 01 01 01 	addi	sp, sp, 16
   14a94:	67 80 00 00 	ret
   14a98:	23 90 05 00 	sh	zero, 0(a1)
   14a9c:	6f f0 9f f9 	j	-104
   14aa0:	93 07 44 00 	addi	a5, s0, 4
   14aa4:	93 05 a4 01 	addi	a1, s0, 26
   14aa8:	93 87 27 00 	addi	a5, a5, 2
   14aac:	23 9f 07 fe 	sh	zero, -2(a5)
   14ab0:	e3 9c b7 fe 	bne	a5, a1, -8
   14ab4:	6f f0 df fc 	j	-52
   14ab8:	93 87 65 00 	addi	a5, a1, 6
   14abc:	23 92 05 00 	sh	zero, 4(a1)
   14ac0:	13 05 e5 ff 	addi	a0, a0, -2
   14ac4:	13 09 e9 ff 	addi	s2, s2, -2
   14ac8:	03 57 29 00 	lhu	a4, 2(s2)
   14acc:	93 87 27 00 	addi	a5, a5, 2
   14ad0:	23 9f e7 fe 	sh	a4, -2(a5)
   14ad4:	e3 18 a9 fe 	bne	s2, a0, -16
   14ad8:	23 9c 05 00 	sh	zero, 24(a1)
   14adc:	6f f0 5f fa 	j	-92

ecmp:
   14ae0:	13 01 01 fb 	addi	sp, sp, -80
   14ae4:	23 22 91 04 	sw	s1, 68(sp)
   14ae8:	23 20 21 05 	sw	s2, 64(sp)
   14aec:	23 26 11 04 	sw	ra, 76(sp)
   14af0:	23 24 81 04 	sw	s0, 72(sp)
   14af4:	13 09 05 00 	mv	s2, a0
   14af8:	93 84 05 00 	mv	s1, a1
   14afc:	ef f0 9f ea 	jal	-344
   14b00:	63 10 05 0e 	bnez	a0, 224
   14b04:	13 85 04 00 	mv	a0, s1
   14b08:	ef f0 df e9 	jal	-356
   14b0c:	13 04 05 00 	mv	s0, a0
   14b10:	63 18 05 0c 	bnez	a0, 208
   14b14:	93 05 81 00 	addi	a1, sp, 8
   14b18:	13 05 09 00 	mv	a0, s2
   14b1c:	ef f0 5f ef 	jal	-268
   14b20:	93 05 41 02 	addi	a1, sp, 36
   14b24:	13 85 04 00 	mv	a0, s1
   14b28:	ef f0 9f ee 	jal	-280
   14b2c:	03 57 81 00 	lhu	a4, 8(sp)
   14b30:	83 57 41 02 	lhu	a5, 36(sp)
   14b34:	63 80 e7 06 	beq	a5, a4, 96
   14b38:	93 07 20 00 	addi	a5, zero, 2
   14b3c:	93 06 80 01 	addi	a3, zero, 24
   14b40:	13 06 81 00 	addi	a2, sp, 8
   14b44:	33 06 f6 00 	add	a2, a2, a5
   14b48:	03 56 06 00 	lhu	a2, 0(a2)
   14b4c:	63 1c 06 02 	bnez	a2, 56
   14b50:	13 06 41 02 	addi	a2, sp, 36
   14b54:	33 06 f6 00 	add	a2, a2, a5
   14b58:	03 56 06 00 	lhu	a2, 0(a2)
   14b5c:	63 14 06 02 	bnez	a2, 40
   14b60:	93 87 27 00 	addi	a5, a5, 2
   14b64:	e3 9e d7 fc 	bne	a5, a3, -36
   14b68:	13 05 04 00 	mv	a0, s0
   14b6c:	83 20 c1 04 	lw	ra, 76(sp)
   14b70:	03 24 81 04 	lw	s0, 72(sp)
   14b74:	83 24 41 04 	lw	s1, 68(sp)
   14b78:	03 29 01 04 	lw	s2, 64(sp)
   14b7c:	13 01 01 05 	addi	sp, sp, 80
   14b80:	67 80 00 00 	ret
   14b84:	13 04 10 00 	addi	s0, zero, 1
   14b88:	e3 00 07 fe 	beqz	a4, -32
   14b8c:	13 04 f0 ff 	addi	s0, zero, -1
   14b90:	6f f0 9f fd 	j	-40
   14b94:	13 07 10 00 	addi	a4, zero, 1
   14b98:	63 84 07 00 	beqz	a5, 8
   14b9c:	13 07 f0 ff 	addi	a4, zero, -1
   14ba0:	93 07 00 00 	mv	a5, zero
   14ba4:	93 05 80 01 	addi	a1, zero, 24
   14ba8:	93 06 81 00 	addi	a3, sp, 8
   14bac:	b3 86 f6 00 	add	a3, a3, a5
   14bb0:	03 d6 06 00 	lhu	a2, 0(a3)
   14bb4:	93 06 41 02 	addi	a3, sp, 36
   14bb8:	b3 86 f6 00 	add	a3, a3, a5
   14bbc:	83 d6 06 00 	lhu	a3, 0(a3)
   14bc0:	63 0a d6 00 	beq	a2, a3, 20
   14bc4:	13 04 07 00 	mv	s0, a4
   14bc8:	e3 e0 c6 fa 	bltu	a3, a2, -96
   14bcc:	33 04 e0 40 	neg	s0, a4
   14bd0:	6f f0 9f f9 	j	-104
   14bd4:	93 87 27 00 	addi	a5, a5, 2
   14bd8:	e3 98 b7 fc 	bne	a5, a1, -48
   14bdc:	6f f0 df f8 	j	-116
   14be0:	13 04 e0 ff 	addi	s0, zero, -2
   14be4:	6f f0 5f f8 	j	-124

eisinf:
   14be8:	83 57 25 01 	lhu	a5, 18(a0)
   14bec:	93 c7 f7 ff 	not	a5, a5
   14bf0:	13 97 17 01 	slli	a4, a5, 17
   14bf4:	63 10 07 02 	bnez	a4, 32
   14bf8:	13 01 01 ff 	addi	sp, sp, -16
   14bfc:	23 26 11 00 	sw	ra, 12(sp)
   14c00:	ef f0 5f da 	jal	-604
   14c04:	83 20 c1 00 	lw	ra, 12(sp)
   14c08:	13 35 15 00 	seqz	a0, a0
   14c0c:	13 01 01 01 	addi	sp, sp, 16
   14c10:	67 80 00 00 	ret
   14c14:	13 05 00 00 	mv	a0, zero
   14c18:	67 80 00 00 	ret

einfin.isra.2:
   14c1c:	13 07 25 01 	addi	a4, a0, 18
   14c20:	93 07 05 00 	mv	a5, a0
   14c24:	93 87 27 00 	addi	a5, a5, 2
   14c28:	23 9f 07 fe 	sh	zero, -2(a5)
   14c2c:	e3 9c e7 fe 	bne	a5, a4, -8
   14c30:	83 57 25 01 	lhu	a5, 18(a0)
   14c34:	37 87 00 00 	lui	a4, 8
   14c38:	13 07 f7 ff 	addi	a4, a4, -1
   14c3c:	b3 e7 e7 00 	or	a5, a5, a4
   14c40:	23 19 f5 00 	sh	a5, 18(a0)
   14c44:	67 80 00 00 	ret

eshift.part.3:
   14c48:	13 01 01 fe 	addi	sp, sp, -32
   14c4c:	23 2c 81 00 	sw	s0, 24(sp)
   14c50:	23 26 31 01 	sw	s3, 12(sp)
   14c54:	23 2e 11 00 	sw	ra, 28(sp)
   14c58:	23 2a 91 00 	sw	s1, 20(sp)
   14c5c:	23 28 21 01 	sw	s2, 16(sp)
   14c60:	23 24 41 01 	sw	s4, 8(sp)
   14c64:	23 22 51 01 	sw	s5, 4(sp)
   14c68:	93 09 05 00 	mv	s3, a0
   14c6c:	13 84 05 00 	mv	s0, a1
   14c70:	63 d4 05 0e 	bgez	a1, 232
   14c74:	b3 04 b0 40 	neg	s1, a1
   14c78:	13 8a 04 00 	mv	s4, s1
   14c7c:	13 09 00 00 	mv	s2, zero
   14c80:	93 0a f0 00 	addi	s5, zero, 15
   14c84:	63 c6 4a 03 	blt	s5, s4, 44
   14c88:	93 f4 04 ff 	andi	s1, s1, -16
   14c8c:	b3 04 90 40 	neg	s1, s1
   14c90:	33 84 84 40 	sub	s0, s1, s0
   14c94:	93 04 04 00 	mv	s1, s0
   14c98:	13 0a 70 00 	addi	s4, zero, 7
   14c9c:	63 46 9a 02 	blt	s4, s1, 44
   14ca0:	13 74 74 00 	andi	s0, s0, 7
   14ca4:	63 1e 04 02 	bnez	s0, 60
   14ca8:	33 35 20 01 	snez	a0, s2
   14cac:	6f 00 80 08 	j	136
   14cb0:	83 d7 89 01 	lhu	a5, 24(s3)
   14cb4:	13 85 09 00 	mv	a0, s3
   14cb8:	13 0a 0a ff 	addi	s4, s4, -16
   14cbc:	33 69 f9 00 	or	s2, s2, a5
   14cc0:	ef f0 9f b7 	jal	-1160
   14cc4:	6f f0 1f fc 	j	-64
   14cc8:	83 c7 89 01 	lbu	a5, 24(s3)
   14ccc:	13 85 09 00 	mv	a0, s3
   14cd0:	93 84 84 ff 	addi	s1, s1, -8
   14cd4:	33 e9 27 01 	or	s2, a5, s2
   14cd8:	ef f0 5f ae 	jal	-1308
   14cdc:	6f f0 1f fc 	j	-64
   14ce0:	83 d7 89 01 	lhu	a5, 24(s3)
   14ce4:	13 85 09 00 	mv	a0, s3
   14ce8:	13 04 f4 ff 	addi	s0, s0, -1
   14cec:	93 f7 17 00 	andi	a5, a5, 1
   14cf0:	33 e9 27 01 	or	s2, a5, s2
   14cf4:	ef f0 5f a2 	jal	-1500
   14cf8:	6f f0 df fa 	j	-84
   14cfc:	13 85 09 00 	mv	a0, s3
   14d00:	ef f0 9f b1 	jal	-1256
   14d04:	93 84 04 ff 	addi	s1, s1, -16
   14d08:	e3 4a 99 fe 	blt	s2, s1, -12
   14d0c:	13 74 f4 00 	andi	s0, s0, 15
   14d10:	93 04 04 00 	mv	s1, s0
   14d14:	13 09 70 00 	addi	s2, zero, 7
   14d18:	63 46 99 04 	blt	s2, s1, 76
   14d1c:	93 55 34 00 	srli	a1, s0, 3
   14d20:	b3 05 b0 40 	neg	a1, a1
   14d24:	93 95 35 00 	slli	a1, a1, 3
   14d28:	33 04 b4 00 	add	s0, s0, a1
   14d2c:	63 14 04 04 	bnez	s0, 72
   14d30:	13 05 00 00 	mv	a0, zero
   14d34:	83 20 c1 01 	lw	ra, 28(sp)
   14d38:	03 24 81 01 	lw	s0, 24(sp)
   14d3c:	83 24 41 01 	lw	s1, 20(sp)
   14d40:	03 29 01 01 	lw	s2, 16(sp)
   14d44:	83 29 c1 00 	lw	s3, 12(sp)
   14d48:	03 2a 81 00 	lw	s4, 8(sp)
   14d4c:	83 2a 41 00 	lw	s5, 4(sp)
   14d50:	13 01 01 02 	addi	sp, sp, 32
   14d54:	67 80 00 00 	ret
   14d58:	93 84 05 00 	mv	s1, a1
   14d5c:	13 09 f0 00 	addi	s2, zero, 15
   14d60:	6f f0 9f fa 	j	-88
   14d64:	13 85 09 00 	mv	a0, s3
   14d68:	ef f0 9f a8 	jal	-1400
   14d6c:	93 84 84 ff 	addi	s1, s1, -8
   14d70:	6f f0 9f fa 	j	-88
   14d74:	13 85 09 00 	mv	a0, s3
   14d78:	ef f0 1f 9f 	jal	-1552
   14d7c:	13 04 f4 ff 	addi	s0, s0, -1
   14d80:	6f f0 df fa 	j	-84

enormlz:
   14d84:	83 57 45 00 	lhu	a5, 4(a0)
   14d88:	13 01 01 ff 	addi	sp, sp, -16
   14d8c:	23 22 91 00 	sw	s1, 4(sp)
   14d90:	23 26 11 00 	sw	ra, 12(sp)
   14d94:	23 24 81 00 	sw	s0, 8(sp)
   14d98:	23 20 21 01 	sw	s2, 0(sp)
   14d9c:	93 04 05 00 	mv	s1, a0
   14da0:	63 80 07 02 	beqz	a5, 32
   14da4:	93 f7 07 f0 	andi	a5, a5, -256
   14da8:	13 04 00 00 	mv	s0, zero
   14dac:	63 86 07 00 	beqz	a5, 12
   14db0:	ef f0 df a0 	jal	-1524
   14db4:	13 04 80 ff 	addi	s0, zero, -8
   14db8:	13 09 f0 f6 	addi	s2, zero, -145
   14dbc:	6f 00 40 09 	j	148
   14dc0:	83 17 65 00 	lh	a5, 6(a0)
   14dc4:	13 04 00 00 	mv	s0, zero
   14dc8:	13 09 00 0a 	addi	s2, zero, 160
   14dcc:	63 d8 07 02 	bgez	a5, 48
   14dd0:	13 05 04 00 	mv	a0, s0
   14dd4:	83 20 c1 00 	lw	ra, 12(sp)
   14dd8:	03 24 81 00 	lw	s0, 8(sp)
   14ddc:	83 24 41 00 	lw	s1, 4(sp)
   14de0:	03 29 01 00 	lw	s2, 0(sp)
   14de4:	13 01 01 01 	addi	sp, sp, 16
   14de8:	67 80 00 00 	ret
   14dec:	13 85 04 00 	mv	a0, s1
   14df0:	13 04 04 01 	addi	s0, s0, 16
   14df4:	ef f0 5f a2 	jal	-1500
   14df8:	e3 0c 24 fd 	beq	s0, s2, -40
   14dfc:	83 d7 64 00 	lhu	a5, 6(s1)
   14e00:	e3 86 07 fe 	beqz	a5, -20
   14e04:	83 d7 64 00 	lhu	a5, 6(s1)
   14e08:	93 f7 07 f0 	andi	a5, a5, -256
   14e0c:	63 82 07 02 	beqz	a5, 36
   14e10:	13 09 00 0a 	addi	s2, zero, 160
   14e14:	83 97 64 00 	lh	a5, 6(s1)
   14e18:	e3 cc 07 fa 	bltz	a5, -72
   14e1c:	13 85 04 00 	mv	a0, s1
   14e20:	13 04 14 00 	addi	s0, s0, 1
   14e24:	ef f0 5f 94 	jal	-1724
   14e28:	e3 56 89 fe 	bge	s2, s0, -20
   14e2c:	6f f0 5f fa 	j	-92
   14e30:	13 85 04 00 	mv	a0, s1
   14e34:	ef f0 df 9b 	jal	-1604
   14e38:	13 04 84 00 	addi	s0, s0, 8
   14e3c:	6f f0 9f fc 	j	-56
   14e40:	13 85 04 00 	mv	a0, s1
   14e44:	13 04 f4 ff 	addi	s0, s0, -1
   14e48:	ef f0 1f 8d 	jal	-1840
   14e4c:	e3 02 24 f9 	beq	s0, s2, -124
   14e50:	83 d7 44 00 	lhu	a5, 4(s1)
   14e54:	e3 96 07 fe 	bnez	a5, -20
   14e58:	6f f0 9f f7 	j	-136

enan.constprop.12:
   14e5c:	13 07 05 01 	addi	a4, a0, 16
   14e60:	93 07 05 00 	mv	a5, a0
   14e64:	93 87 27 00 	addi	a5, a5, 2
   14e68:	23 9f 07 fe 	sh	zero, -2(a5)
   14e6c:	e3 9c e7 fe 	bne	a5, a4, -8
   14e70:	b7 c7 ff 7f 	lui	a5, 524284
   14e74:	23 28 f5 00 	sw	a5, 16(a0)
   14e78:	67 80 00 00 	ret

emovo.isra.6:
   14e7c:	13 07 05 00 	mv	a4, a0
   14e80:	83 56 07 00 	lhu	a3, 0(a4)
   14e84:	13 85 05 00 	mv	a0, a1
   14e88:	83 57 27 00 	lhu	a5, 2(a4)
   14e8c:	63 86 06 00 	beqz	a3, 12
   14e90:	b7 86 ff ff 	lui	a3, 1048568
   14e94:	b3 e7 d7 00 	or	a5, a5, a3
   14e98:	23 19 f5 00 	sh	a5, 18(a0)
   14e9c:	03 56 27 00 	lhu	a2, 2(a4)
   14ea0:	b7 86 00 00 	lui	a3, 8
   14ea4:	93 86 f6 ff 	addi	a3, a3, -1
   14ea8:	93 07 67 00 	addi	a5, a4, 6
   14eac:	63 1e d6 00 	bne	a2, a3, 28
   14eb0:	13 07 a7 01 	addi	a4, a4, 26
   14eb4:	83 d6 07 00 	lhu	a3, 0(a5)
   14eb8:	63 98 06 02 	bnez	a3, 48
   14ebc:	93 87 27 00 	addi	a5, a5, 2
   14ec0:	e3 9a e7 fe 	bne	a5, a4, -12
   14ec4:	6f f0 9f d5 	j	-680
   14ec8:	13 05 05 01 	addi	a0, a0, 16
   14ecc:	13 07 87 01 	addi	a4, a4, 24
   14ed0:	93 87 27 00 	addi	a5, a5, 2
   14ed4:	83 d6 e7 ff 	lhu	a3, -2(a5)
   14ed8:	13 05 e5 ff 	addi	a0, a0, -2
   14edc:	23 11 d5 00 	sh	a3, 2(a0)
   14ee0:	e3 98 e7 fe 	bne	a5, a4, -16
   14ee4:	67 80 00 00 	ret
   14ee8:	6f f0 5f f7 	j	-140

e113toe.isra.8:
   14eec:	13 01 01 fd 	addi	sp, sp, -48
   14ef0:	23 22 91 02 	sw	s1, 36(sp)
   14ef4:	93 04 05 00 	mv	s1, a0
   14ef8:	13 05 41 00 	addi	a0, sp, 4
   14efc:	23 24 81 02 	sw	s0, 40(sp)
   14f00:	23 26 11 02 	sw	ra, 44(sp)
   14f04:	13 84 05 00 	mv	s0, a1
   14f08:	ef f0 8f f9 	jal	-2152
   14f0c:	03 d7 e4 00 	lhu	a4, 14(s1)
   14f10:	93 17 07 01 	slli	a5, a4, 16
   14f14:	93 d7 07 41 	srai	a5, a5, 16
   14f18:	63 c2 07 04 	bltz	a5, 68
   14f1c:	23 12 01 00 	sh	zero, 4(sp)
   14f20:	b7 86 00 00 	lui	a3, 8
   14f24:	93 86 f6 ff 	addi	a3, a3, -1
   14f28:	33 77 d7 00 	and	a4, a4, a3
   14f2c:	93 87 e4 00 	addi	a5, s1, 14
   14f30:	63 1c d7 06 	bne	a4, a3, 120
   14f34:	13 87 04 00 	mv	a4, s1
   14f38:	83 56 07 00 	lhu	a3, 0(a4)
   14f3c:	63 86 06 02 	beqz	a3, 44
   14f40:	13 05 04 00 	mv	a0, s0
   14f44:	ef f0 9f f1 	jal	-232
   14f48:	83 20 c1 02 	lw	ra, 44(sp)
   14f4c:	03 24 81 02 	lw	s0, 40(sp)
   14f50:	83 24 41 02 	lw	s1, 36(sp)
   14f54:	13 01 01 03 	addi	sp, sp, 48
   14f58:	67 80 00 00 	ret
   14f5c:	93 07 f0 ff 	addi	a5, zero, -1
   14f60:	23 12 f1 00 	sh	a5, 4(sp)
   14f64:	6f f0 df fb 	j	-68
   14f68:	13 07 27 00 	addi	a4, a4, 2
   14f6c:	e3 96 e7 fc 	bne	a5, a4, -52
   14f70:	13 05 04 00 	mv	a0, s0
   14f74:	ef f0 4f ef 	jal	-2316
   14f78:	13 05 04 00 	mv	a0, s0
   14f7c:	ef f0 1f ca 	jal	-864
   14f80:	83 97 e4 00 	lh	a5, 14(s1)
   14f84:	e3 d2 07 fc 	bgez	a5, -60
   14f88:	13 05 04 00 	mv	a0, s0
   14f8c:	ef f0 9f a1 	jal	-1512
   14f90:	e3 1c 05 fa 	bnez	a0, -72
   14f94:	83 57 24 01 	lhu	a5, 18(s0)
   14f98:	37 87 ff ff 	lui	a4, 1048568
   14f9c:	b3 c7 e7 00 	xor	a5, a5, a4
   14fa0:	23 19 f4 00 	sh	a5, 18(s0)
   14fa4:	6f f0 5f fa 	j	-92
   14fa8:	23 13 e1 00 	sh	a4, 6(sp)
   14fac:	93 06 41 00 	addi	a3, sp, 4
   14fb0:	93 87 e7 ff 	addi	a5, a5, -2
   14fb4:	03 d6 07 00 	lhu	a2, 0(a5)
   14fb8:	93 86 26 00 	addi	a3, a3, 2
   14fbc:	23 92 c6 00 	sh	a2, 4(a3)
   14fc0:	e3 98 f4 fe 	bne	s1, a5, -16
   14fc4:	63 1c 07 00 	bnez	a4, 24
   14fc8:	23 14 01 00 	sh	zero, 8(sp)
   14fcc:	93 05 04 00 	mv	a1, s0
   14fd0:	13 05 41 00 	addi	a0, sp, 4
   14fd4:	ef f0 9f ea 	jal	-344
   14fd8:	6f f0 1f f7 	j	-144
   14fdc:	93 07 10 00 	addi	a5, zero, 1
   14fe0:	93 05 f0 ff 	addi	a1, zero, -1
   14fe4:	13 05 41 00 	addi	a0, sp, 4
   14fe8:	23 14 f1 00 	sh	a5, 8(sp)
   14fec:	ef f0 df c5 	jal	-932
   14ff0:	6f f0 df fd 	j	-36

emdnorm:
   14ff4:	13 01 01 fe 	addi	sp, sp, -32
   14ff8:	23 2c 81 00 	sw	s0, 24(sp)
   14ffc:	23 2a 91 00 	sw	s1, 20(sp)
   15000:	23 28 21 01 	sw	s2, 16(sp)
   15004:	23 26 31 01 	sw	s3, 12(sp)
   15008:	23 24 41 01 	sw	s4, 8(sp)
   1500c:	23 22 51 01 	sw	s5, 4(sp)
   15010:	13 89 06 00 	mv	s2, a3
   15014:	13 84 07 00 	mv	s0, a5
   15018:	23 2e 11 00 	sw	ra, 28(sp)
   1501c:	93 04 05 00 	mv	s1, a0
   15020:	93 89 05 00 	mv	s3, a1
   15024:	13 0a 06 00 	mv	s4, a2
   15028:	93 0a 07 00 	mv	s5, a4
   1502c:	ef f0 9f d5 	jal	-680
   15030:	93 07 00 09 	addi	a5, zero, 144
   15034:	33 09 a9 40 	sub	s2, s2, a0
   15038:	63 d4 a7 04 	bge	a5, a0, 72
   1503c:	b7 87 00 00 	lui	a5, 8
   15040:	93 87 e7 ff 	addi	a5, a5, -2
   15044:	63 cc 27 05 	blt	a5, s2, 88
   15048:	93 87 24 00 	addi	a5, s1, 2
   1504c:	93 84 a4 01 	addi	s1, s1, 26
   15050:	93 87 27 00 	addi	a5, a5, 2
   15054:	23 9f 07 fe 	sh	zero, -2(a5)
   15058:	e3 9c 97 fe 	bne	a5, s1, -8
   1505c:	83 20 c1 01 	lw	ra, 28(sp)
   15060:	03 24 81 01 	lw	s0, 24(sp)
   15064:	83 24 41 01 	lw	s1, 20(sp)
   15068:	03 29 01 01 	lw	s2, 16(sp)
   1506c:	83 29 c1 00 	lw	s3, 12(sp)
   15070:	03 2a 81 00 	lw	s4, 8(sp)
   15074:	83 2a 41 00 	lw	s5, 4(sp)
   15078:	13 01 01 02 	addi	sp, sp, 32
   1507c:	67 80 00 00 	ret
   15080:	63 5e 09 00 	bgez	s2, 28
   15084:	93 07 00 f7 	addi	a5, zero, -144
   15088:	63 44 f9 18 	blt	s2, a5, 392
   1508c:	93 05 09 00 	mv	a1, s2
   15090:	13 85 04 00 	mv	a0, s1
   15094:	ef f0 5f bb 	jal	-1100
   15098:	63 18 05 18 	bnez	a0, 400
   1509c:	63 80 0a 14 	beqz	s5, 320
   150a0:	03 27 44 00 	lw	a4, 4(s0)
   150a4:	83 27 04 00 	lw	a5, 0(s0)
   150a8:	63 06 f7 06 	beq	a4, a5, 108
   150ac:	13 05 a4 01 	addi	a0, s0, 26
   150b0:	ef f0 0f df 	jal	-2576
   150b4:	83 27 44 00 	lw	a5, 4(s0)
   150b8:	13 07 80 03 	addi	a4, zero, 56
   150bc:	63 86 e7 1c 	beq	a5, a4, 460
   150c0:	63 48 f7 16 	blt	a4, a5, 368
   150c4:	13 07 80 01 	addi	a4, zero, 24
   150c8:	63 8e e7 1e 	beq	a5, a4, 508
   150cc:	13 07 50 03 	addi	a4, zero, 53
   150d0:	63 8a e7 1c 	beq	a5, a4, 468
   150d4:	13 07 c0 00 	addi	a4, zero, 12
   150d8:	23 24 e4 00 	sw	a4, 8(s0)
   150dc:	37 07 01 80 	lui	a4, 524304
   150e0:	13 07 f7 ff 	addi	a4, a4, -1
   150e4:	23 2a e4 00 	sw	a4, 20(s0)
   150e8:	13 07 10 00 	addi	a4, zero, 1
   150ec:	23 1c e4 00 	sh	a4, 24(s0)
   150f0:	13 07 b0 00 	addi	a4, zero, 11
   150f4:	23 26 e4 00 	sw	a4, 12(s0)
   150f8:	03 27 c4 00 	lw	a4, 12(s0)
   150fc:	83 56 84 01 	lhu	a3, 24(s0)
   15100:	13 07 87 00 	addi	a4, a4, 8
   15104:	13 17 17 00 	slli	a4, a4, 1
   15108:	33 07 e4 00 	add	a4, s0, a4
   1510c:	23 15 d7 00 	sh	a3, 10(a4)
   15110:	23 20 f4 00 	sw	a5, 0(s0)
   15114:	63 42 20 03 	bgtz	s2, 36
   15118:	03 27 44 00 	lw	a4, 4(s0)
   1511c:	93 07 00 09 	addi	a5, zero, 144
   15120:	63 0c f7 00 	beq	a4, a5, 24
   15124:	83 d7 84 01 	lhu	a5, 24(s1)
   15128:	13 85 04 00 	mv	a0, s1
   1512c:	93 f7 17 00 	andi	a5, a5, 1
   15130:	b3 e9 f9 00 	or	s3, s3, a5
   15134:	ef f0 4f de 	jal	-2588
   15138:	83 26 84 00 	lw	a3, 8(s0)
   1513c:	03 56 44 01 	lhu	a2, 20(s0)
   15140:	83 25 44 00 	lw	a1, 4(s0)
   15144:	13 97 16 00 	slli	a4, a3, 1
   15148:	33 87 e4 00 	add	a4, s1, a4
   1514c:	83 57 07 00 	lhu	a5, 0(a4)
   15150:	b3 f7 c7 00 	and	a5, a5, a2
   15154:	13 06 f0 08 	addi	a2, zero, 143
   15158:	63 4a b6 00 	blt	a2, a1, 20
   1515c:	93 86 16 00 	addi	a3, a3, 1
   15160:	13 06 07 00 	mv	a2, a4
   15164:	93 05 c0 00 	addi	a1, zero, 12
   15168:	63 d2 d5 16 	bge	a1, a3, 356
   1516c:	83 56 44 01 	lhu	a3, 20(s0)
   15170:	03 56 07 00 	lhu	a2, 0(a4)
   15174:	93 c6 f6 ff 	not	a3, a3
   15178:	b3 f6 c6 00 	and	a3, a3, a2
   1517c:	23 10 d7 00 	sh	a3, 0(a4)
   15180:	03 57 64 01 	lhu	a4, 22(s0)
   15184:	b3 76 f7 00 	and	a3, a4, a5
   15188:	63 84 06 02 	beqz	a3, 40
   1518c:	63 10 f7 16 	bne	a4, a5, 352
   15190:	63 9c 09 14 	bnez	s3, 344
   15194:	83 27 c4 00 	lw	a5, 12(s0)
   15198:	03 57 84 01 	lhu	a4, 24(s0)
   1519c:	93 97 17 00 	slli	a5, a5, 1
   151a0:	b3 87 f4 00 	add	a5, s1, a5
   151a4:	83 d7 07 00 	lhu	a5, 0(a5)
   151a8:	b3 f7 e7 00 	and	a5, a5, a4
   151ac:	63 90 07 14 	bnez	a5, 320
   151b0:	63 4c 20 01 	bgtz	s2, 24
   151b4:	03 27 44 00 	lw	a4, 4(s0)
   151b8:	93 07 00 09 	addi	a5, zero, 144
   151bc:	63 06 f7 00 	beq	a4, a5, 12
   151c0:	13 85 04 00 	mv	a0, s1
   151c4:	ef f0 4f da 	jal	-2652
   151c8:	83 d7 44 00 	lhu	a5, 4(s1)
   151cc:	63 88 07 00 	beqz	a5, 16
   151d0:	13 85 04 00 	mv	a0, s1
   151d4:	ef f0 4f d4 	jal	-2748
   151d8:	13 09 19 00 	addi	s2, s2, 1
   151dc:	b7 87 00 00 	lui	a5, 8
   151e0:	23 9c 04 00 	sh	zero, 24(s1)
   151e4:	93 87 e7 ff 	addi	a5, a5, -2
   151e8:	63 da 27 11 	bge	a5, s2, 276
   151ec:	b7 87 ff ff 	lui	a5, 1048568
   151f0:	93 c7 f7 ff 	not	a5, a5
   151f4:	23 91 f4 00 	sh	a5, 2(s1)
   151f8:	93 87 44 00 	addi	a5, s1, 4
   151fc:	93 84 84 01 	addi	s1, s1, 24
   15200:	23 90 07 00 	sh	zero, 0(a5)
   15204:	93 87 27 00 	addi	a5, a5, 2
   15208:	e3 9c f4 fe 	bne	s1, a5, -8
   1520c:	6f f0 1f e5 	j	-432
   15210:	93 87 24 00 	addi	a5, s1, 2
   15214:	93 84 a4 01 	addi	s1, s1, 26
   15218:	93 87 27 00 	addi	a5, a5, 2
   1521c:	23 9f 07 fe 	sh	zero, -2(a5)
   15220:	e3 9c 97 fe 	bne	a5, s1, -8
   15224:	6f f0 9f e3 	j	-456
   15228:	93 09 10 00 	addi	s3, zero, 1
   1522c:	6f f0 1f e7 	j	-400
   15230:	13 07 00 04 	addi	a4, zero, 64
   15234:	63 88 e7 02 	beq	a5, a4, 48
   15238:	13 07 10 07 	addi	a4, zero, 113
   1523c:	e3 9c e7 e8 	bne	a5, a4, -360
   15240:	37 87 00 40 	lui	a4, 262152
   15244:	13 07 f7 ff 	addi	a4, a4, -1
   15248:	93 06 a0 00 	addi	a3, zero, 10
   1524c:	23 2a e4 00 	sw	a4, 20(s0)
   15250:	23 24 d4 00 	sw	a3, 8(s0)
   15254:	37 87 ff ff 	lui	a4, 1048568
   15258:	23 1c e4 00 	sh	a4, 24(s0)
   1525c:	23 26 d4 00 	sw	a3, 12(s0)
   15260:	6f f0 9f e9 	j	-360
   15264:	13 07 70 00 	addi	a4, zero, 7
   15268:	23 24 e4 00 	sw	a4, 8(s0)
   1526c:	37 07 01 80 	lui	a4, 524304
   15270:	13 07 f7 ff 	addi	a4, a4, -1
   15274:	23 2a e4 00 	sw	a4, 20(s0)
   15278:	13 07 10 00 	addi	a4, zero, 1
   1527c:	23 1c e4 00 	sh	a4, 24(s0)
   15280:	13 07 60 00 	addi	a4, zero, 6
   15284:	6f f0 1f e7 	j	-400
   15288:	93 06 60 00 	addi	a3, zero, 6
   1528c:	37 07 80 00 	lui	a4, 2048
   15290:	13 07 f7 0f 	addi	a4, a4, 255
   15294:	23 2a e4 00 	sw	a4, 20(s0)
   15298:	23 24 d4 00 	sw	a3, 8(s0)
   1529c:	13 07 00 10 	addi	a4, zero, 256
   152a0:	6f f0 9f fb 	j	-72
   152a4:	37 07 00 04 	lui	a4, 16384
   152a8:	13 07 f7 7f 	addi	a4, a4, 2047
   152ac:	93 06 60 00 	addi	a3, zero, 6
   152b0:	23 2a e4 00 	sw	a4, 20(s0)
   152b4:	37 17 00 00 	lui	a4, 1
   152b8:	23 24 d4 00 	sw	a3, 8(s0)
   152bc:	13 07 07 80 	addi	a4, a4, -2048
   152c0:	6f f0 9f f9 	j	-104
   152c4:	93 06 40 00 	addi	a3, zero, 4
   152c8:	6f f0 5f fc 	j	-60
   152cc:	03 55 26 00 	lhu	a0, 2(a2)
   152d0:	63 04 05 00 	beqz	a0, 8
   152d4:	93 e7 17 00 	ori	a5, a5, 1
   152d8:	23 11 06 00 	sh	zero, 2(a2)
   152dc:	93 86 16 00 	addi	a3, a3, 1
   152e0:	13 06 26 00 	addi	a2, a2, 2
   152e4:	6f f0 5f e8 	j	-380
   152e8:	e3 14 0a ec 	bnez	s4, -312
   152ec:	93 85 04 00 	mv	a1, s1
   152f0:	13 05 a4 01 	addi	a0, s0, 26
   152f4:	ef f0 4f d6 	jal	-2716
   152f8:	6f f0 9f eb 	j	-328
   152fc:	63 56 09 00 	bgez	s2, 12
   15300:	23 91 04 00 	sh	zero, 2(s1)
   15304:	6f f0 9f d5 	j	-680
   15308:	23 91 24 01 	sh	s2, 2(s1)
   1530c:	6f f0 1f d5 	j	-688

eiremain:
   15310:	13 01 01 fe 	addi	sp, sp, -32
   15314:	23 24 41 01 	sw	s4, 8(sp)
   15318:	03 5a 25 00 	lhu	s4, 2(a0)
   1531c:	23 2c 81 00 	sw	s0, 24(sp)
   15320:	13 84 05 00 	mv	s0, a1
   15324:	23 2e 11 00 	sw	ra, 28(sp)
   15328:	23 2a 91 00 	sw	s1, 20(sp)
   1532c:	23 28 21 01 	sw	s2, 16(sp)
   15330:	23 22 51 01 	sw	s5, 4(sp)
   15334:	23 20 61 01 	sw	s6, 0(sp)
   15338:	13 09 06 00 	mv	s2, a2
   1533c:	13 0b 46 03 	addi	s6, a2, 52
   15340:	23 26 31 01 	sw	s3, 12(sp)
   15344:	93 0a 05 00 	mv	s5, a0
   15348:	ef f0 df a3 	jal	-1476
   1534c:	83 54 24 00 	lhu	s1, 2(s0)
   15350:	33 0a aa 40 	sub	s4, s4, a0
   15354:	13 05 04 00 	mv	a0, s0
   15358:	ef f0 df a2 	jal	-1492
   1535c:	b3 84 a4 40 	sub	s1, s1, a0
   15360:	13 05 0b 00 	mv	a0, s6
   15364:	ef f0 cf b3 	jal	-3268
   15368:	63 d2 44 05 	bge	s1, s4, 68
   1536c:	13 05 04 00 	mv	a0, s0
   15370:	03 24 81 01 	lw	s0, 24(sp)
   15374:	83 20 c1 01 	lw	ra, 28(sp)
   15378:	83 29 c1 00 	lw	s3, 12(sp)
   1537c:	03 2a 81 00 	lw	s4, 8(sp)
   15380:	83 2a 41 00 	lw	s5, 4(sp)
   15384:	03 2b 01 00 	lw	s6, 0(sp)
   15388:	93 07 09 00 	mv	a5, s2
   1538c:	93 86 04 00 	mv	a3, s1
   15390:	03 29 01 01 	lw	s2, 16(sp)
   15394:	83 24 41 01 	lw	s1, 20(sp)
   15398:	13 07 00 00 	mv	a4, zero
   1539c:	13 06 00 00 	mv	a2, zero
   153a0:	93 05 00 00 	mv	a1, zero
   153a4:	13 01 01 02 	addi	sp, sp, 32
   153a8:	6f f0 df c4 	j	-948
   153ac:	93 05 04 00 	mv	a1, s0
   153b0:	13 85 0a 00 	mv	a0, s5
   153b4:	ef f0 8f b2 	jal	-3288
   153b8:	93 09 00 00 	mv	s3, zero
   153bc:	63 4a a0 00 	bgtz	a0, 20
   153c0:	93 05 04 00 	mv	a1, s0
   153c4:	13 85 0a 00 	mv	a0, s5
   153c8:	ef f0 8f cc 	jal	-2872
   153cc:	93 09 10 00 	addi	s3, zero, 1
   153d0:	13 05 0b 00 	mv	a0, s6
   153d4:	ef f0 4f b9 	jal	-3180
   153d8:	83 57 c9 04 	lhu	a5, 76(s2)
   153dc:	13 05 04 00 	mv	a0, s0
   153e0:	93 84 f4 ff 	addi	s1, s1, -1
   153e4:	b3 e9 f9 00 	or	s3, s3, a5
   153e8:	23 16 39 05 	sh	s3, 76(s2)
   153ec:	ef f0 cf b7 	jal	-3204
   153f0:	6f f0 9f f7 	j	-136

emul:
   153f4:	13 01 01 f7 	addi	sp, sp, -144
   153f8:	23 24 81 08 	sw	s0, 136(sp)
   153fc:	23 22 91 08 	sw	s1, 132(sp)
   15400:	23 20 21 09 	sw	s2, 128(sp)
   15404:	23 2c 41 07 	sw	s4, 120(sp)
   15408:	23 26 11 08 	sw	ra, 140(sp)
   1540c:	23 2e 31 07 	sw	s3, 124(sp)
   15410:	23 2a 51 07 	sw	s5, 116(sp)
   15414:	23 28 61 07 	sw	s6, 112(sp)
   15418:	23 26 71 07 	sw	s7, 108(sp)
   1541c:	23 24 81 07 	sw	s8, 104(sp)
   15420:	13 09 05 00 	mv	s2, a0
   15424:	13 84 05 00 	mv	s0, a1
   15428:	93 04 06 00 	mv	s1, a2
   1542c:	13 8a 06 00 	mv	s4, a3
   15430:	ef f0 4f d7 	jal	-2700
   15434:	63 00 05 04 	beqz	a0, 64
   15438:	93 85 04 00 	mv	a1, s1
   1543c:	13 05 09 00 	mv	a0, s2
   15440:	ef f0 cf a3 	jal	-3524
   15444:	83 20 c1 08 	lw	ra, 140(sp)
   15448:	03 24 81 08 	lw	s0, 136(sp)
   1544c:	83 24 41 08 	lw	s1, 132(sp)
   15450:	03 29 01 08 	lw	s2, 128(sp)
   15454:	83 29 c1 07 	lw	s3, 124(sp)
   15458:	03 2a 81 07 	lw	s4, 120(sp)
   1545c:	83 2a 41 07 	lw	s5, 116(sp)
   15460:	03 2b 01 07 	lw	s6, 112(sp)
   15464:	83 2b c1 06 	lw	s7, 108(sp)
   15468:	03 2c 81 06 	lw	s8, 104(sp)
   1546c:	13 01 01 09 	addi	sp, sp, 144
   15470:	67 80 00 00 	ret
   15474:	13 05 04 00 	mv	a0, s0
   15478:	ef f0 cf d2 	jal	-2772
   1547c:	63 08 05 00 	beqz	a0, 16
   15480:	93 85 04 00 	mv	a1, s1
   15484:	13 05 04 00 	mv	a0, s0
   15488:	6f f0 9f fb 	j	-72
   1548c:	13 05 09 00 	mv	a0, s2
   15490:	ef f0 8f f5 	jal	-2216
   15494:	63 14 05 06 	bnez	a0, 104
   15498:	13 05 04 00 	mv	a0, s0
   1549c:	ef f0 cf f4 	jal	-2228
   154a0:	63 0c 05 00 	beqz	a0, 24
   154a4:	b7 25 02 00 	lui	a1, 34
   154a8:	93 85 c5 ff 	addi	a1, a1, -4
   154ac:	13 05 09 00 	mv	a0, s2
   154b0:	ef f0 0f e3 	jal	-2512
   154b4:	63 0e 05 04 	beqz	a0, 92
   154b8:	13 05 09 00 	mv	a0, s2
   154bc:	ef f0 cf f2 	jal	-2260
   154c0:	63 18 05 00 	bnez	a0, 16
   154c4:	13 05 04 00 	mv	a0, s0
   154c8:	ef f0 0f f2 	jal	-2272
   154cc:	63 0c 05 04 	beqz	a0, 88
   154d0:	13 05 09 00 	mv	a0, s2
   154d4:	ef f0 4f d0 	jal	-2812
   154d8:	13 09 05 00 	mv	s2, a0
   154dc:	13 05 04 00 	mv	a0, s0
   154e0:	ef f0 8f cf 	jal	-2824
   154e4:	63 0c a9 02 	beq	s2, a0, 56
   154e8:	b7 87 ff ff 	lui	a5, 1048568
   154ec:	23 99 f4 00 	sh	a5, 18(s1)
   154f0:	13 85 04 00 	mv	a0, s1
   154f4:	ef f0 8f f2 	jal	-2264
   154f8:	6f f0 df f4 	j	-180
   154fc:	b7 25 02 00 	lui	a1, 34
   15500:	93 85 c5 ff 	addi	a1, a1, -4
   15504:	13 05 04 00 	mv	a0, s0
   15508:	ef f0 8f dd 	jal	-2600
   1550c:	e3 16 05 f8 	bnez	a0, -116
   15510:	13 85 04 00 	mv	a0, s1
   15514:	ef f0 9f 94 	jal	-1720
   15518:	6f f0 df f2 	j	-212
   1551c:	23 99 04 00 	sh	zero, 18(s1)
   15520:	6f f0 1f fd 	j	-48
   15524:	93 05 c1 00 	addi	a1, sp, 12
   15528:	13 05 09 00 	mv	a0, s2
   1552c:	ef f0 4f ce 	jal	-2844
   15530:	13 05 04 00 	mv	a0, s0
   15534:	93 05 81 02 	addi	a1, sp, 40
   15538:	ef f0 8f cd 	jal	-2856
   1553c:	83 59 e1 00 	lhu	s3, 14(sp)
   15540:	03 54 a1 02 	lhu	s0, 42(sp)
   15544:	63 8a 09 0e 	beqz	s3, 244
   15548:	83 57 a1 02 	lhu	a5, 42(sp)
   1554c:	13 0b 04 00 	mv	s6, s0
   15550:	63 80 07 10 	beqz	a5, 256
   15554:	83 27 81 02 	lw	a5, 40(sp)
   15558:	13 09 4a 03 	addi	s2, s4, 52
   1555c:	93 0b ea 04 	addi	s7, s4, 78
   15560:	23 2a fa 02 	sw	a5, 52(s4)
   15564:	93 07 8a 03 	addi	a5, s4, 56
   15568:	23 90 07 00 	sh	zero, 0(a5)
   1556c:	93 87 27 00 	addi	a5, a5, 2
   15570:	e3 9c 77 ff 	bne	a5, s7, -8
   15574:	13 04 c1 00 	addi	s0, sp, 12
   15578:	13 0c 81 ff 	addi	s8, sp, -8
   1557c:	93 0a 00 00 	mv	s5, zero
   15580:	03 55 84 01 	lhu	a0, 24(s0)
   15584:	63 0e 05 00 	beqz	a0, 28
   15588:	93 05 81 02 	addi	a1, sp, 40
   1558c:	13 06 41 04 	addi	a2, sp, 68
   15590:	ef f0 8f b3 	jal	-3272
   15594:	93 05 09 00 	mv	a1, s2
   15598:	13 05 41 04 	addi	a0, sp, 68
   1559c:	ef f0 cf ab 	jal	-3396
   155a0:	83 57 ca 04 	lhu	a5, 76(s4)
   155a4:	13 05 09 00 	mv	a0, s2
   155a8:	13 04 e4 ff 	addi	s0, s0, -2
   155ac:	b3 ea fa 00 	or	s5, s5, a5
   155b0:	ef f0 8f a8 	jal	-3448
   155b4:	e3 16 8c fc 	bne	s8, s0, -52
   155b8:	93 05 09 00 	mv	a1, s2
   155bc:	93 07 81 02 	addi	a5, sp, 40
   155c0:	03 d7 05 00 	lhu	a4, 0(a1)
   155c4:	93 85 25 00 	addi	a1, a1, 2
   155c8:	93 87 27 00 	addi	a5, a5, 2
   155cc:	23 9f e7 fe 	sh	a4, -2(a5)
   155d0:	e3 98 75 ff 	bne	a1, s7, -16
   155d4:	b7 c6 ff ff 	lui	a3, 1048572
   155d8:	b3 89 69 01 	add	s3, s3, s6
   155dc:	93 86 26 00 	addi	a3, a3, 2
   155e0:	93 07 0a 00 	mv	a5, s4
   155e4:	13 07 00 04 	addi	a4, zero, 64
   155e8:	b3 86 d9 00 	add	a3, s3, a3
   155ec:	13 06 00 00 	mv	a2, zero
   155f0:	93 85 0a 00 	mv	a1, s5
   155f4:	13 05 81 02 	addi	a0, sp, 40
   155f8:	ef f0 df 9f 	jal	-1540
   155fc:	03 57 c1 00 	lhu	a4, 12(sp)
   15600:	83 57 81 02 	lhu	a5, 40(sp)
   15604:	63 1a f7 06 	bne	a4, a5, 116
   15608:	23 14 01 02 	sh	zero, 40(sp)
   1560c:	93 85 04 00 	mv	a1, s1
   15610:	13 05 81 02 	addi	a0, sp, 40
   15614:	ef f0 9f 86 	jal	-1944
   15618:	6f f0 df e2 	j	-468
   1561c:	93 87 27 00 	addi	a5, a5, 2
   15620:	83 d6 27 00 	lhu	a3, 2(a5)
   15624:	63 8e 06 00 	beqz	a3, 28
   15628:	13 05 c1 00 	addi	a0, sp, 12
   1562c:	ef f0 8f f5 	jal	-2216
   15630:	b3 09 a0 40 	neg	s3, a0
   15634:	6f f0 5f f1 	j	-236
   15638:	93 07 c1 00 	addi	a5, sp, 12
   1563c:	13 07 01 02 	addi	a4, sp, 32
   15640:	e3 9e e7 fc 	bne	a5, a4, -36
   15644:	13 85 04 00 	mv	a0, s1
   15648:	ef f0 0f 82 	jal	-4064
   1564c:	6f f0 9f df 	j	-520
   15650:	93 07 81 02 	addi	a5, sp, 40
   15654:	13 07 c1 03 	addi	a4, sp, 60
   15658:	e3 86 e7 fe 	beq	a5, a4, -20
   1565c:	93 87 27 00 	addi	a5, a5, 2
   15660:	83 d6 27 00 	lhu	a3, 2(a5)
   15664:	e3 8a 06 fe 	beqz	a3, -12
   15668:	13 05 81 02 	addi	a0, sp, 40
   1566c:	ef f0 8f f1 	jal	-2280
   15670:	33 0b a4 40 	sub	s6, s0, a0
   15674:	6f f0 1f ee 	j	-288
   15678:	93 07 f0 ff 	addi	a5, zero, -1
   1567c:	23 14 f1 02 	sh	a5, 40(sp)
   15680:	6f f0 df f8 	j	-116

ediv:
   15684:	13 01 01 f7 	addi	sp, sp, -144
   15688:	23 24 81 08 	sw	s0, 136(sp)
   1568c:	23 22 91 08 	sw	s1, 132(sp)
   15690:	23 20 21 09 	sw	s2, 128(sp)
   15694:	23 2c 41 07 	sw	s4, 120(sp)
   15698:	23 26 11 08 	sw	ra, 140(sp)
   1569c:	23 2e 31 07 	sw	s3, 124(sp)
   156a0:	23 2a 51 07 	sw	s5, 116(sp)
   156a4:	23 28 61 07 	sw	s6, 112(sp)
   156a8:	23 26 71 07 	sw	s7, 108(sp)
   156ac:	23 24 81 07 	sw	s8, 104(sp)
   156b0:	23 22 91 07 	sw	s9, 100(sp)
   156b4:	13 09 05 00 	mv	s2, a0
   156b8:	13 84 05 00 	mv	s0, a1
   156bc:	93 04 06 00 	mv	s1, a2
   156c0:	13 8a 06 00 	mv	s4, a3
   156c4:	ef f0 0f ae 	jal	-3360
   156c8:	63 02 05 04 	beqz	a0, 68
   156cc:	93 85 04 00 	mv	a1, s1
   156d0:	13 05 09 00 	mv	a0, s2
   156d4:	ef e0 9f fa 	jal	-4184
   156d8:	83 20 c1 08 	lw	ra, 140(sp)
   156dc:	03 24 81 08 	lw	s0, 136(sp)
   156e0:	83 24 41 08 	lw	s1, 132(sp)
   156e4:	03 29 01 08 	lw	s2, 128(sp)
   156e8:	83 29 c1 07 	lw	s3, 124(sp)
   156ec:	03 2a 81 07 	lw	s4, 120(sp)
   156f0:	83 2a 41 07 	lw	s5, 116(sp)
   156f4:	03 2b 01 07 	lw	s6, 112(sp)
   156f8:	83 2b c1 06 	lw	s7, 108(sp)
   156fc:	03 2c 81 06 	lw	s8, 104(sp)
   15700:	83 2c 41 06 	lw	s9, 100(sp)
   15704:	13 01 01 09 	addi	sp, sp, 144
   15708:	67 80 00 00 	ret
   1570c:	13 05 04 00 	mv	a0, s0
   15710:	ef f0 4f a9 	jal	-3436
   15714:	63 08 05 00 	beqz	a0, 16
   15718:	93 85 04 00 	mv	a1, s1
   1571c:	13 05 04 00 	mv	a0, s0
   15720:	6f f0 5f fb 	j	-76
   15724:	b7 29 02 00 	lui	s3, 34
   15728:	93 85 c9 ff 	addi	a1, s3, -4
   1572c:	13 05 09 00 	mv	a0, s2
   15730:	ef f0 0f bb 	jal	-3152
   15734:	63 06 05 04 	beqz	a0, 76
   15738:	13 05 09 00 	mv	a0, s2
   1573c:	ef f0 cf ca 	jal	-2900
   15740:	93 09 05 00 	mv	s3, a0
   15744:	13 05 04 00 	mv	a0, s0
   15748:	ef f0 0f ca 	jal	-2912
   1574c:	63 98 09 04 	bnez	s3, 80
   15750:	63 0e 05 04 	beqz	a0, 92
   15754:	13 05 09 00 	mv	a0, s2
   15758:	ef f0 0f a8 	jal	-3456
   1575c:	13 09 05 00 	mv	s2, a0
   15760:	13 05 04 00 	mv	a0, s0
   15764:	ef f0 4f a7 	jal	-3468
   15768:	63 0e a9 20 	beq	s2, a0, 540
   1576c:	b7 87 ff ff 	lui	a5, 1048568
   15770:	23 99 f4 00 	sh	a5, 18(s1)
   15774:	13 85 04 00 	mv	a0, s1
   15778:	ef f0 4f ca 	jal	-2908
   1577c:	6f f0 df f5 	j	-164
   15780:	93 85 c9 ff 	addi	a1, s3, -4
   15784:	13 05 04 00 	mv	a0, s0
   15788:	ef f0 8f b5 	jal	-3240
   1578c:	e3 16 05 fa 	bnez	a0, -84
   15790:	13 85 04 00 	mv	a0, s1
   15794:	ef f0 8f ec 	jal	-2360
   15798:	6f f0 1f f4 	j	-192
   1579c:	e3 1a 05 fe 	bnez	a0, -12
   157a0:	13 85 04 00 	mv	a0, s1
   157a4:	ef e0 5f ec 	jal	-4412
   157a8:	6f f0 1f f3 	j	-208
   157ac:	13 05 09 00 	mv	a0, s2
   157b0:	93 05 c1 00 	addi	a1, sp, 12
   157b4:	ef f0 cf a5 	jal	-3492
   157b8:	13 05 04 00 	mv	a0, s0
   157bc:	93 05 81 02 	addi	a1, sp, 40
   157c0:	ef f0 0f a5 	jal	-3504
   157c4:	03 59 a1 02 	lhu	s2, 42(sp)
   157c8:	03 54 e1 00 	lhu	s0, 14(sp)
   157cc:	63 0e 09 14 	beqz	s2, 348
   157d0:	83 57 e1 00 	lhu	a5, 14(sp)
   157d4:	93 0c 04 00 	mv	s9, s0
   157d8:	63 8a 07 18 	beqz	a5, 404
   157dc:	03 27 81 02 	lw	a4, 40(sp)
   157e0:	93 07 8a 03 	addi	a5, s4, 56
   157e4:	93 0a ea 04 	addi	s5, s4, 78
   157e8:	23 2a ea 02 	sw	a4, 52(s4)
   157ec:	93 89 07 00 	mv	s3, a5
   157f0:	93 87 27 00 	addi	a5, a5, 2
   157f4:	23 9f 07 fe 	sh	zero, -2(a5)
   157f8:	e3 9c 57 ff 	bne	a5, s5, -8
   157fc:	13 05 81 02 	addi	a0, sp, 40
   15800:	ef e0 9f f1 	jal	-4328
   15804:	03 5b 21 01 	lhu	s6, 18(sp)
   15808:	37 0c 01 00 	lui	s8, 16
   1580c:	13 0c fc ff 	addi	s8, s8, -1
   15810:	93 1b 0b 01 	slli	s7, s6, 16
   15814:	b3 8b 6b 41 	sub	s7, s7, s6
   15818:	03 55 c1 02 	lhu	a0, 44(sp)
   1581c:	83 57 e1 02 	lhu	a5, 46(sp)
   15820:	13 04 0c 00 	mv	s0, s8
   15824:	13 15 05 01 	slli	a0, a0, 16
   15828:	33 05 f5 00 	add	a0, a0, a5
   1582c:	63 ea ab 00 	bltu	s7, a0, 20
   15830:	93 05 0b 00 	mv	a1, s6
   15834:	ef c0 00 4c 	jal	50368
   15838:	13 14 05 01 	slli	s0, a0, 16
   1583c:	13 54 04 01 	srli	s0, s0, 16
   15840:	93 05 c1 00 	addi	a1, sp, 12
   15844:	13 05 04 00 	mv	a0, s0
   15848:	13 06 41 04 	addi	a2, sp, 68
   1584c:	ef f0 cf 87 	jal	-3972
   15850:	93 05 81 02 	addi	a1, sp, 40
   15854:	13 05 41 04 	addi	a0, sp, 68
   15858:	ef e0 5f e8 	jal	-4476
   1585c:	63 56 a0 02 	blez	a0, 44
   15860:	93 05 41 04 	addi	a1, sp, 68
   15864:	13 05 c1 00 	addi	a0, sp, 12
   15868:	ef f0 8f 82 	jal	-4056
   1586c:	93 05 81 02 	addi	a1, sp, 40
   15870:	13 05 41 04 	addi	a0, sp, 68
   15874:	ef e0 9f e6 	jal	-4504
   15878:	63 4a a0 10 	bgtz	a0, 276
   1587c:	13 04 f4 ff 	addi	s0, s0, -1
   15880:	13 14 04 01 	slli	s0, s0, 16
   15884:	13 54 04 01 	srli	s0, s0, 16
   15888:	93 05 81 02 	addi	a1, sp, 40
   1588c:	13 05 41 04 	addi	a0, sp, 68
   15890:	ef f0 0f 80 	jal	-4096
   15894:	13 05 81 02 	addi	a0, sp, 40
   15898:	23 90 89 00 	sh	s0, 0(s3)
   1589c:	93 89 29 00 	addi	s3, s3, 2
   158a0:	ef e0 9f f7 	jal	-4232
   158a4:	e3 9a 3a f7 	bne	s5, s3, -140
   158a8:	13 07 81 02 	addi	a4, sp, 40
   158ac:	93 06 e1 03 	addi	a3, sp, 62
   158b0:	93 07 07 00 	mv	a5, a4
   158b4:	93 05 00 00 	mv	a1, zero
   158b8:	03 d6 47 00 	lhu	a2, 4(a5)
   158bc:	93 87 27 00 	addi	a5, a5, 2
   158c0:	b3 e5 c5 00 	or	a1, a1, a2
   158c4:	e3 9a f6 fe 	bne	a3, a5, -12
   158c8:	b3 35 b0 00 	snez	a1, a1
   158cc:	93 07 4a 03 	addi	a5, s4, 52
   158d0:	83 d6 07 00 	lhu	a3, 0(a5)
   158d4:	93 87 27 00 	addi	a5, a5, 2
   158d8:	13 07 27 00 	addi	a4, a4, 2
   158dc:	23 1f d7 fe 	sh	a3, -2(a4)
   158e0:	e3 98 fa fe 	bne	s5, a5, -16
   158e4:	b7 46 00 00 	lui	a3, 4
   158e8:	33 09 99 41 	sub	s2, s2, s9
   158ec:	93 86 f6 ff 	addi	a3, a3, -1
   158f0:	93 07 0a 00 	mv	a5, s4
   158f4:	13 07 00 04 	addi	a4, zero, 64
   158f8:	b3 06 d9 00 	add	a3, s2, a3
   158fc:	13 06 00 00 	mv	a2, zero
   15900:	13 05 81 02 	addi	a0, sp, 40
   15904:	ef f0 0f ef 	jal	-2320
   15908:	03 57 c1 00 	lhu	a4, 12(sp)
   1590c:	83 57 81 02 	lhu	a5, 40(sp)
   15910:	63 1c f7 08 	bne	a4, a5, 152
   15914:	23 14 01 02 	sh	zero, 40(sp)
   15918:	93 85 04 00 	mv	a1, s1
   1591c:	13 05 81 02 	addi	a0, sp, 40
   15920:	ef f0 cf d5 	jal	-2724
   15924:	6f f0 5f db 	j	-588
   15928:	93 07 81 02 	addi	a5, sp, 40
   1592c:	13 07 c1 03 	addi	a4, sp, 60
   15930:	e3 88 e7 e6 	beq	a5, a4, -400
   15934:	93 87 27 00 	addi	a5, a5, 2
   15938:	83 d6 27 00 	lhu	a3, 2(a5)
   1593c:	e3 8a 06 fe 	beqz	a3, -12
   15940:	13 05 81 02 	addi	a0, sp, 40
   15944:	ef f0 0f c4 	jal	-3008
   15948:	33 09 a0 40 	neg	s2, a0
   1594c:	6f f0 5f e8 	j	-380
   15950:	93 87 27 00 	addi	a5, a5, 2
   15954:	83 d6 27 00 	lhu	a3, 2(a5)
   15958:	63 8e 06 00 	beqz	a3, 28
   1595c:	13 05 c1 00 	addi	a0, sp, 12
   15960:	ef f0 4f c2 	jal	-3036
   15964:	b3 0c a4 40 	sub	s9, s0, a0
   15968:	6f f0 5f e7 	j	-396
   1596c:	93 07 c1 00 	addi	a5, sp, 12
   15970:	13 07 01 02 	addi	a4, sp, 32
   15974:	e3 9e e7 fc 	bne	a5, a4, -36
   15978:	03 57 c1 00 	lhu	a4, 12(sp)
   1597c:	83 57 81 02 	lhu	a5, 40(sp)
   15980:	e3 16 f7 de 	bne	a4, a5, -532
   15984:	23 99 04 00 	sh	zero, 18(s1)
   15988:	6f f0 df de 	j	-532
   1598c:	13 04 e4 ff 	addi	s0, s0, -2
   15990:	13 14 04 01 	slli	s0, s0, 16
   15994:	93 05 41 04 	addi	a1, sp, 68
   15998:	13 05 c1 00 	addi	a0, sp, 12
   1599c:	13 54 04 01 	srli	s0, s0, 16
   159a0:	ef e0 1f ef 	jal	-4368
   159a4:	6f f0 5f ee 	j	-284
   159a8:	93 07 f0 ff 	addi	a5, zero, -1
   159ac:	23 14 f1 02 	sh	a5, 40(sp)
   159b0:	6f f0 9f f6 	j	-152

_ldtoa_r:
   159b4:	03 ae 05 00 	lw	t3, 0(a1)
   159b8:	03 a3 45 00 	lw	t1, 4(a1)
   159bc:	83 a8 85 00 	lw	a7, 8(a1)
   159c0:	83 a5 c5 00 	lw	a1, 12(a1)
   159c4:	13 01 01 e1 	addi	sp, sp, -496
   159c8:	23 24 81 1e 	sw	s0, 488(sp)
   159cc:	23 2e b1 02 	sw	a1, 60(sp)
   159d0:	13 84 07 00 	mv	s0, a5
   159d4:	83 25 05 04 	lw	a1, 64(a0)
   159d8:	93 07 f0 ff 	addi	a5, zero, -1
   159dc:	23 20 f1 16 	sw	a5, 352(sp)
   159e0:	93 07 00 09 	addi	a5, zero, 144
   159e4:	23 2c 41 1d 	sw	s4, 472(sp)
   159e8:	23 28 61 1d 	sw	s6, 464(sp)
   159ec:	23 22 91 1d 	sw	s9, 452(sp)
   159f0:	23 26 11 1e 	sw	ra, 492(sp)
   159f4:	23 22 91 1e 	sw	s1, 484(sp)
   159f8:	23 20 21 1f 	sw	s2, 480(sp)
   159fc:	23 2e 31 1d 	sw	s3, 476(sp)
   15a00:	23 2a 51 1d 	sw	s5, 468(sp)
   15a04:	23 26 71 1d 	sw	s7, 460(sp)
   15a08:	23 24 81 1d 	sw	s8, 456(sp)
   15a0c:	23 20 a1 1d 	sw	s10, 448(sp)
   15a10:	23 2e b1 1b 	sw	s11, 444(sp)
   15a14:	23 26 e1 00 	sw	a4, 12(sp)
   15a18:	23 2e 01 01 	sw	a6, 28(sp)
   15a1c:	23 28 c1 03 	sw	t3, 48(sp)
   15a20:	23 2a 61 02 	sw	t1, 52(sp)
   15a24:	23 2c 11 03 	sw	a7, 56(sp)
   15a28:	23 22 f1 16 	sw	a5, 356(sp)
   15a2c:	13 0a 05 00 	mv	s4, a0
   15a30:	13 0b 06 00 	mv	s6, a2
   15a34:	93 8c 06 00 	mv	s9, a3
   15a38:	63 80 05 02 	beqz	a1, 32
   15a3c:	83 27 45 04 	lw	a5, 68(a0)
   15a40:	13 07 10 00 	addi	a4, zero, 1
   15a44:	33 17 f7 00 	sll	a4, a4, a5
   15a48:	23 a2 f5 00 	sw	a5, 4(a1)
   15a4c:	23 a4 e5 00 	sw	a4, 8(a1)
   15a50:	ef 00 90 65 	jal	3672
   15a54:	23 20 0a 04 	sw	zero, 64(s4)
   15a58:	13 05 01 03 	addi	a0, sp, 48
   15a5c:	93 05 01 06 	addi	a1, sp, 96
   15a60:	ef f0 cf c8 	jal	-2932
   15a64:	13 05 01 06 	addi	a0, sp, 96
   15a68:	ef e0 1f f7 	jal	-4240
   15a6c:	63 02 05 0e 	beqz	a0, 228
   15a70:	93 07 10 00 	addi	a5, zero, 1
   15a74:	23 20 f4 00 	sw	a5, 0(s0)
   15a78:	93 07 30 00 	addi	a5, zero, 3
   15a7c:	63 0e fb 0c 	beq	s6, a5, 220
   15a80:	93 09 40 01 	addi	s3, zero, 20
   15a84:	63 0a 0b 00 	beqz	s6, 20
   15a88:	93 89 fc ff 	addi	s3, s9, -1
   15a8c:	93 07 a0 02 	addi	a5, zero, 42
   15a90:	63 d4 37 01 	bge	a5, s3, 8
   15a94:	93 09 a0 02 	addi	s3, zero, 42
   15a98:	83 27 41 16 	lw	a5, 356(sp)
   15a9c:	13 05 01 06 	addi	a0, sp, 96
   15aa0:	23 20 f1 02 	sw	a5, 32(sp)
   15aa4:	ef e0 1f f0 	jal	-4352
   15aa8:	93 0b 05 00 	mv	s7, a0
   15aac:	63 0a 05 0a 	beqz	a0, 180
   15ab0:	b7 25 02 00 	lui	a1, 34
   15ab4:	93 85 05 25 	addi	a1, a1, 592
   15ab8:	13 05 41 12 	addi	a0, sp, 292
   15abc:	37 24 00 00 	lui	s0, 2
   15ac0:	ef 10 d0 6c 	jal	7884
   15ac4:	13 04 f4 70 	addi	s0, s0, 1807
   15ac8:	83 27 01 02 	lw	a5, 32(sp)
   15acc:	13 05 01 06 	addi	a0, sp, 96
   15ad0:	23 28 81 16 	sw	s0, 368(sp)
   15ad4:	23 22 f1 16 	sw	a5, 356(sp)
   15ad8:	ef f0 0f 91 	jal	-3824
   15adc:	13 09 41 12 	addi	s2, sp, 292
   15ae0:	63 18 05 00 	bnez	a0, 16
   15ae4:	13 05 01 06 	addi	a0, sp, 96
   15ae8:	ef e0 df eb 	jal	-4420
   15aec:	e3 0e 05 14 	beqz	a0, 2396
   15af0:	03 27 c1 00 	lw	a4, 12(sp)
   15af4:	b7 27 00 00 	lui	a5, 2
   15af8:	93 87 f7 70 	addi	a5, a5, 1807
   15afc:	23 20 f7 00 	sw	a5, 0(a4)
   15b00:	93 07 09 00 	mv	a5, s2
   15b04:	13 06 00 02 	addi	a2, zero, 32
   15b08:	93 06 d0 02 	addi	a3, zero, 45
   15b0c:	03 c7 07 00 	lbu	a4, 0(a5)
   15b10:	e3 0c c7 18 	beq	a4, a2, 2456
   15b14:	e3 0a d7 18 	beq	a4, a3, 2452
   15b18:	93 04 09 00 	mv	s1, s2
   15b1c:	93 87 17 00 	addi	a5, a5, 1
   15b20:	03 c7 f7 ff 	lbu	a4, -1(a5)
   15b24:	93 86 14 00 	addi	a3, s1, 1
   15b28:	a3 8f e6 fe 	sb	a4, -1(a3)
   15b2c:	e3 12 07 18 	bnez	a4, 2436
   15b30:	13 07 20 00 	addi	a4, zero, 2
   15b34:	93 07 10 00 	addi	a5, zero, 1
   15b38:	63 08 eb 00 	beq	s6, a4, 16
   15b3c:	93 87 09 00 	mv	a5, s3
   15b40:	63 d4 89 00 	bge	s3, s0, 8
   15b44:	93 07 04 00 	mv	a5, s0
   15b48:	93 06 00 03 	addi	a3, zero, 48
   15b4c:	6f 00 50 17 	j	2420
   15b50:	23 20 04 00 	sw	zero, 0(s0)
   15b54:	6f f0 5f f2 	j	-220
   15b58:	93 89 0c 00 	mv	s3, s9
   15b5c:	6f f0 1f f3 	j	-208
   15b60:	93 07 00 09 	addi	a5, zero, 144
   15b64:	93 05 c1 07 	addi	a1, sp, 124
   15b68:	13 05 01 06 	addi	a0, sp, 96
   15b6c:	23 22 f1 16 	sw	a5, 356(sp)
   15b70:	ef e0 df b0 	jal	-5364
   15b74:	83 57 e1 08 	lhu	a5, 142(sp)
   15b78:	23 28 01 00 	sw	zero, 16(sp)
   15b7c:	13 97 07 01 	slli	a4, a5, 16
   15b80:	13 57 07 41 	srai	a4, a4, 16
   15b84:	63 5e 07 00 	bgez	a4, 28
   15b88:	93 97 17 01 	slli	a5, a5, 17
   15b8c:	93 d7 17 01 	srli	a5, a5, 17
   15b90:	23 17 f1 08 	sh	a5, 142(sp)
   15b94:	b7 07 01 00 	lui	a5, 16
   15b98:	93 87 f7 ff 	addi	a5, a5, -1
   15b9c:	23 28 f1 00 	sw	a5, 16(sp)
   15ba0:	37 24 02 00 	lui	s0, 34
   15ba4:	13 05 c4 ff 	addi	a0, s0, -4
   15ba8:	93 05 81 09 	addi	a1, sp, 152
   15bac:	13 05 85 11 	addi	a0, a0, 280
   15bb0:	ef e0 df ac 	jal	-5428
   15bb4:	03 57 e1 08 	lhu	a4, 142(sp)
   15bb8:	37 29 02 00 	lui	s2, 34
   15bbc:	23 2c 81 00 	sw	s0, 24(sp)
   15bc0:	93 04 c4 ff 	addi	s1, s0, -4
   15bc4:	13 09 49 11 	addi	s2, s2, 276
   15bc8:	e3 16 07 1c 	bnez	a4, 2508
   15bcc:	93 07 c1 07 	addi	a5, sp, 124
   15bd0:	13 07 e1 08 	addi	a4, sp, 142
   15bd4:	83 d6 07 00 	lhu	a3, 0(a5)
   15bd8:	63 94 06 10 	bnez	a3, 264
   15bdc:	93 87 27 00 	addi	a5, a5, 2
   15be0:	e3 1a f7 fe 	bne	a4, a5, -12
   15be4:	13 04 00 00 	mv	s0, zero
   15be8:	93 05 01 0d 	addi	a1, sp, 208
   15bec:	13 05 81 09 	addi	a0, sp, 152
   15bf0:	ef e0 1f e2 	jal	-4576
   15bf4:	93 05 81 09 	addi	a1, sp, 152
   15bf8:	13 05 01 0d 	addi	a0, sp, 208
   15bfc:	ef e0 9f ab 	jal	-5448
   15c00:	93 05 01 0d 	addi	a1, sp, 208
   15c04:	13 05 c1 07 	addi	a0, sp, 124
   15c08:	ef e0 9f e0 	jal	-4600
   15c0c:	93 05 c1 07 	addi	a1, sp, 124
   15c10:	13 05 01 0d 	addi	a0, sp, 208
   15c14:	ef e0 1f aa 	jal	-5472
   15c18:	13 05 81 09 	addi	a0, sp, 152
   15c1c:	13 06 01 16 	addi	a2, sp, 352
   15c20:	93 05 c1 07 	addi	a1, sp, 124
   15c24:	ef f0 cf ee 	jal	-2324
   15c28:	03 55 c1 1a 	lhu	a0, 428(sp)
   15c2c:	63 1c 05 00 	bnez	a0, 24
   15c30:	83 27 81 01 	lw	a5, 24(sp)
   15c34:	13 05 c1 07 	addi	a0, sp, 124
   15c38:	93 85 c7 ff 	addi	a1, a5, -4
   15c3c:	ef e0 5f ea 	jal	-4444
   15c40:	63 1a 05 66 	bnez	a0, 1652
   15c44:	83 27 01 01 	lw	a5, 16(sp)
   15c48:	63 8c 07 6a 	beqz	a5, 1720
   15c4c:	93 07 d0 02 	addi	a5, zero, 45
   15c50:	23 02 f1 12 	sb	a5, 292(sp)
   15c54:	93 07 30 00 	addi	a5, zero, 3
   15c58:	93 84 09 00 	mv	s1, s3
   15c5c:	63 1a fb 00 	bne	s6, a5, 20
   15c60:	b3 84 89 00 	add	s1, s3, s0
   15c64:	93 07 a0 02 	addi	a5, zero, 42
   15c68:	63 d4 97 00 	bge	a5, s1, 8
   15c6c:	93 04 a0 02 	addi	s1, zero, 42
   15c70:	93 07 a0 00 	addi	a5, zero, 10
   15c74:	63 1a f5 68 	bne	a0, a5, 1684
   15c78:	93 07 10 03 	addi	a5, zero, 49
   15c7c:	a3 02 f1 12 	sb	a5, 293(sp)
   15c80:	93 07 e0 02 	addi	a5, zero, 46
   15c84:	23 03 f1 12 	sb	a5, 294(sp)
   15c88:	13 09 71 12 	addi	s2, sp, 295
   15c8c:	63 5a 90 00 	blez	s1, 20
   15c90:	93 07 00 03 	addi	a5, zero, 48
   15c94:	a3 03 f1 12 	sb	a5, 295(sp)
   15c98:	93 84 f4 ff 	addi	s1, s1, -1
   15c9c:	13 09 81 12 	addi	s2, sp, 296
   15ca0:	13 04 14 00 	addi	s0, s0, 1
   15ca4:	63 dc 04 66 	bgez	s1, 1656
   15ca8:	b7 25 02 00 	lui	a1, 34
   15cac:	13 06 04 00 	mv	a2, s0
   15cb0:	93 85 45 27 	addi	a1, a1, 628
   15cb4:	13 05 09 00 	mv	a0, s2
   15cb8:	ef 10 50 4d 	jal	7380
   15cbc:	6f f0 df e0 	j	-500
   15cc0:	b7 25 02 00 	lui	a1, 34
   15cc4:	93 85 45 26 	addi	a1, a1, 612
   15cc8:	6f f0 1f df 	j	-528
   15ccc:	83 17 c1 08 	lh	a5, 140(sp)
   15cd0:	63 c8 07 00 	bltz	a5, 16
   15cd4:	b7 25 02 00 	lui	a1, 34
   15cd8:	93 85 05 27 	addi	a1, a1, 624
   15cdc:	6f f0 df dd 	j	-548
   15ce0:	93 05 c1 07 	addi	a1, sp, 124
   15ce4:	13 05 09 00 	mv	a0, s2
   15ce8:	ef e0 9f df 	jal	-4616
   15cec:	e3 0c 05 ee 	beqz	a0, -264
   15cf0:	63 58 05 42 	bgez	a0, 1072
   15cf4:	93 05 41 0b 	addi	a1, sp, 180
   15cf8:	13 05 c1 07 	addi	a0, sp, 124
   15cfc:	ef e0 1f 98 	jal	-5760
   15d00:	b7 47 00 00 	lui	a5, 4
   15d04:	93 87 e7 08 	addi	a5, a5, 142
   15d08:	23 13 f1 0c 	sh	a5, 198(sp)
   15d0c:	93 07 00 01 	addi	a5, zero, 16
   15d10:	23 2a f1 00 	sw	a5, 20(sp)
   15d14:	b7 87 00 00 	lui	a5, 8
   15d18:	93 87 f7 ff 	addi	a5, a5, -1
   15d1c:	23 22 f1 02 	sw	a5, 36(sp)
   15d20:	b7 c7 ff ff 	lui	a5, 1048572
   15d24:	93 87 27 00 	addi	a5, a5, 2
   15d28:	13 04 00 00 	mv	s0, zero
   15d2c:	13 8c 44 0b 	addi	s8, s1, 180
   15d30:	23 24 f1 02 	sw	a5, 40(sp)
   15d34:	93 06 01 16 	addi	a3, sp, 352
   15d38:	13 06 81 09 	addi	a2, sp, 152
   15d3c:	93 05 41 0b 	addi	a1, sp, 180
   15d40:	13 05 0c 00 	mv	a0, s8
   15d44:	ef f0 1f 94 	jal	-1728
   15d48:	93 05 c1 04 	addi	a1, sp, 76
   15d4c:	13 05 81 09 	addi	a0, sp, 152
   15d50:	ef e0 df 92 	jal	-5844
   15d54:	83 27 41 02 	lw	a5, 36(sp)
   15d58:	83 5a e1 05 	lhu	s5, 94(sp)
   15d5c:	b3 fd fa 00 	and	s11, s5, a5
   15d60:	83 27 81 02 	lw	a5, 40(sp)
   15d64:	b3 87 fd 00 	add	a5, s11, a5
   15d68:	63 4a f0 04 	bgtz	a5, 84
   15d6c:	13 05 01 0d 	addi	a0, sp, 208
   15d70:	ef e0 9f 8f 	jal	-5896
   15d74:	93 9a 0a 01 	slli	s5, s5, 16
   15d78:	93 da 0a 41 	srai	s5, s5, 16
   15d7c:	63 d2 0a 10 	bgez	s5, 260
   15d80:	93 07 00 00 	mv	a5, zero
   15d84:	13 07 c1 04 	addi	a4, sp, 76
   15d88:	33 07 f7 00 	add	a4, a4, a5
   15d8c:	83 56 07 00 	lhu	a3, 0(a4)
   15d90:	13 07 01 0d 	addi	a4, sp, 208
   15d94:	33 07 f7 00 	add	a4, a4, a5
   15d98:	03 57 07 00 	lhu	a4, 0(a4)
   15d9c:	63 8a e6 36 	beq	a3, a4, 884
   15da0:	13 05 09 00 	mv	a0, s2
   15da4:	ef e0 1f c0 	jal	-5120
   15da8:	63 00 05 08 	beqz	a0, 128
   15dac:	93 05 01 0d 	addi	a1, sp, 208
   15db0:	13 05 09 00 	mv	a0, s2
   15db4:	ef e0 9f 8c 	jal	-5944
   15db8:	6f 00 80 0c 	j	200
   15dbc:	93 0d 00 09 	addi	s11, zero, 144
   15dc0:	b3 8d fd 40 	sub	s11, s11, a5
   15dc4:	93 05 01 0d 	addi	a1, sp, 208
   15dc8:	13 05 c1 04 	addi	a0, sp, 76
   15dcc:	ef e0 1f 8b 	jal	-5968
   15dd0:	63 58 b0 0b 	blez	s11, 176
   15dd4:	13 07 01 0d 	addi	a4, sp, 208
   15dd8:	93 87 0d 00 	mv	a5, s11
   15ddc:	93 06 f0 00 	addi	a3, zero, 15
   15de0:	63 cc f6 02 	blt	a3, a5, 56
   15de4:	13 d7 4d 00 	srli	a4, s11, 4
   15de8:	93 17 17 00 	slli	a5, a4, 1
   15dec:	13 17 47 00 	slli	a4, a4, 4
   15df0:	b3 8d ed 40 	sub	s11, s11, a4
   15df4:	93 06 01 0d 	addi	a3, sp, 208
   15df8:	93 9d 1d 00 	slli	s11, s11, 1
   15dfc:	b3 87 f6 00 	add	a5, a3, a5
   15e00:	b3 8d b4 01 	add	s11, s1, s11
   15e04:	83 d6 07 00 	lhu	a3, 0(a5)
   15e08:	03 d7 cd 12 	lhu	a4, 300(s11)
   15e0c:	33 77 d7 00 	and	a4, a4, a3
   15e10:	23 90 e7 00 	sh	a4, 0(a5)
   15e14:	6f f0 1f f6 	j	-160
   15e18:	23 10 07 00 	sh	zero, 0(a4)
   15e1c:	93 87 07 ff 	addi	a5, a5, -16
   15e20:	13 07 27 00 	addi	a4, a4, 2
   15e24:	6f f0 df fb 	j	-68
   15e28:	13 05 01 0d 	addi	a0, sp, 208
   15e2c:	ef e0 9f b7 	jal	-5256
   15e30:	63 08 05 00 	beqz	a0, 16
   15e34:	93 05 01 0d 	addi	a1, sp, 208
   15e38:	13 85 05 00 	mv	a0, a1
   15e3c:	6f f0 9f f7 	j	-136
   15e40:	13 05 09 00 	mv	a0, s2
   15e44:	ef e0 5f da 	jal	-4700
   15e48:	93 0a 05 00 	mv	s5, a0
   15e4c:	13 05 01 0d 	addi	a0, sp, 208
   15e50:	ef e0 9f d9 	jal	-4712
   15e54:	93 0d 05 00 	mv	s11, a0
   15e58:	63 84 0a 14 	beqz	s5, 328
   15e5c:	63 0c 05 10 	beqz	a0, 280
   15e60:	13 05 09 00 	mv	a0, s2
   15e64:	ef e0 5f b7 	jal	-5260
   15e68:	93 0a 05 00 	mv	s5, a0
   15e6c:	13 05 01 0d 	addi	a0, sp, 208
   15e70:	ef e0 9f b6 	jal	-5272
   15e74:	63 90 aa 10 	bne	s5, a0, 256
   15e78:	13 05 01 0d 	addi	a0, sp, 208
   15e7c:	ef e0 1f fe 	jal	-4128
   15e80:	93 07 00 00 	mv	a5, zero
   15e84:	13 07 81 09 	addi	a4, sp, 152
   15e88:	33 07 f7 00 	add	a4, a4, a5
   15e8c:	83 56 07 00 	lhu	a3, 0(a4)
   15e90:	13 07 01 0d 	addi	a4, sp, 208
   15e94:	33 07 f7 00 	add	a4, a4, a5
   15e98:	03 57 07 00 	lhu	a4, 0(a4)
   15e9c:	63 92 e6 02 	bne	a3, a4, 36
   15ea0:	93 87 27 00 	addi	a5, a5, 2
   15ea4:	13 07 20 01 	addi	a4, zero, 18
   15ea8:	e3 9e e7 fc 	bne	a5, a4, -36
   15eac:	93 05 41 0b 	addi	a1, sp, 180
   15eb0:	13 05 81 09 	addi	a0, sp, 152
   15eb4:	ef e0 8f fc 	jal	-6200
   15eb8:	83 27 41 01 	lw	a5, 20(sp)
   15ebc:	33 04 f4 00 	add	s0, s0, a5
   15ec0:	83 27 41 01 	lw	a5, 20(sp)
   15ec4:	13 0c 4c 01 	addi	s8, s8, 20
   15ec8:	93 8d 44 01 	addi	s11, s1, 20
   15ecc:	93 d7 17 00 	srli	a5, a5, 1
   15ed0:	23 2a f1 00 	sw	a5, 20(sp)
   15ed4:	93 87 84 11 	addi	a5, s1, 280
   15ed8:	e3 1e fc e4 	bne	s8, a5, -420
   15edc:	83 57 61 0c 	lhu	a5, 198(sp)
   15ee0:	03 57 e1 08 	lhu	a4, 142(sp)
   15ee4:	93 05 c1 07 	addi	a1, sp, 124
   15ee8:	13 05 41 0b 	addi	a0, sp, 180
   15eec:	b3 87 e7 00 	add	a5, a5, a4
   15ef0:	37 c7 ff ff 	lui	a4, 1048572
   15ef4:	13 07 27 f7 	addi	a4, a4, -142
   15ef8:	b3 87 e7 00 	add	a5, a5, a4
   15efc:	23 13 f1 0c 	sh	a5, 198(sp)
   15f00:	ef e0 cf f7 	jal	-6276
   15f04:	93 05 81 09 	addi	a1, sp, 152
   15f08:	13 05 0c 00 	mv	a0, s8
   15f0c:	ef e0 0f f7 	jal	-6288
   15f10:	b7 1a 00 00 	lui	s5, 1
   15f14:	93 84 44 10 	addi	s1, s1, 260
   15f18:	93 05 41 0b 	addi	a1, sp, 180
   15f1c:	13 85 04 00 	mv	a0, s1
   15f20:	ef e0 1f bc 	jal	-5184
   15f24:	e3 42 a0 cc 	bgtz	a0, -828
   15f28:	93 05 41 0b 	addi	a1, sp, 180
   15f2c:	13 85 0d 00 	mv	a0, s11
   15f30:	ef e0 1f bb 	jal	-5200
   15f34:	63 48 a0 02 	bgtz	a0, 48
   15f38:	13 06 41 0b 	addi	a2, sp, 180
   15f3c:	93 05 06 00 	mv	a1, a2
   15f40:	93 06 01 16 	addi	a3, sp, 352
   15f44:	13 85 0d 00 	mv	a0, s11
   15f48:	ef f0 cf f3 	jal	-2244
   15f4c:	13 06 81 09 	addi	a2, sp, 152
   15f50:	93 06 01 16 	addi	a3, sp, 352
   15f54:	93 05 06 00 	mv	a1, a2
   15f58:	13 85 0d 00 	mv	a0, s11
   15f5c:	ef f0 8f c9 	jal	-2920
   15f60:	33 04 54 01 	add	s0, s0, s5
   15f64:	93 da 1a 00 	srli	s5, s5, 1
   15f68:	e3 80 9d c8 	beq	s11, s1, -896
   15f6c:	93 8d 4d 01 	addi	s11, s11, 20
   15f70:	6f f0 9f fa 	j	-88
   15f74:	13 05 09 00 	mv	a0, s2
   15f78:	93 05 01 0d 	addi	a1, sp, 208
   15f7c:	ef e0 0f f0 	jal	-6400
   15f80:	13 05 01 0d 	addi	a0, sp, 208
   15f84:	ef e0 1f a2 	jal	-5600
   15f88:	e3 1c 05 ee 	bnez	a0, -264
   15f8c:	83 57 21 0e 	lhu	a5, 226(sp)
   15f90:	37 87 ff ff 	lui	a4, 1048568
   15f94:	b3 c7 e7 00 	xor	a5, a5, a4
   15f98:	23 11 f1 0e 	sh	a5, 226(sp)
   15f9c:	6f f0 5f ee 	j	-284
   15fa0:	e3 1a 05 e8 	bnez	a0, -364
   15fa4:	93 05 c1 0e 	addi	a1, sp, 236
   15fa8:	13 05 09 00 	mv	a0, s2
   15fac:	ef e0 5f a6 	jal	-5532
   15fb0:	93 05 81 10 	addi	a1, sp, 264
   15fb4:	13 05 01 0d 	addi	a0, sp, 208
   15fb8:	ef e0 9f a5 	jal	-5544
   15fbc:	83 57 c1 0e 	lhu	a5, 236(sp)
   15fc0:	83 5a a1 10 	lhu	s5, 266(sp)
   15fc4:	93 c7 f7 ff 	not	a5, a5
   15fc8:	23 16 f1 0e 	sh	a5, 236(sp)
   15fcc:	83 57 e1 0e 	lhu	a5, 238(sp)
   15fd0:	33 8d 57 41 	sub	s10, a5, s5
   15fd4:	23 26 f1 02 	sw	a5, 44(sp)
   15fd8:	63 5a a0 03 	blez	s10, 52
   15fdc:	93 05 41 12 	addi	a1, sp, 292
   15fe0:	13 05 81 10 	addi	a0, sp, 264
   15fe4:	ef e0 0f ed 	jal	-6448
   15fe8:	93 05 81 10 	addi	a1, sp, 264
   15fec:	13 05 c1 0e 	addi	a0, sp, 236
   15ff0:	ef e0 4f ec 	jal	-6460
   15ff4:	93 05 c1 0e 	addi	a1, sp, 236
   15ff8:	13 05 41 12 	addi	a0, sp, 292
   15ffc:	ef e0 8f eb 	jal	-6472
   16000:	83 27 c1 02 	lw	a5, 44(sp)
   16004:	33 8d fa 40 	sub	s10, s5, a5
   16008:	83 5a a1 10 	lhu	s5, 266(sp)
   1600c:	63 0a 0d 04 	beqz	s10, 84
   16010:	93 07 f0 f6 	addi	a5, zero, -145
   16014:	63 46 fd 08 	blt	s10, a5, 140
   16018:	93 05 0d 00 	mv	a1, s10
   1601c:	13 05 c1 0e 	addi	a0, sp, 236
   16020:	ef e0 9f c2 	jal	-5080
   16024:	13 0d 05 00 	mv	s10, a0
   16028:	03 57 c1 0e 	lhu	a4, 236(sp)
   1602c:	83 57 81 10 	lhu	a5, 264(sp)
   16030:	93 05 81 10 	addi	a1, sp, 264
   16034:	13 05 c1 0e 	addi	a0, sp, 236
   16038:	63 16 f7 0c 	bne	a4, a5, 204
   1603c:	ef e0 df 81 	jal	-6116
   16040:	93 07 01 16 	addi	a5, sp, 352
   16044:	13 07 00 04 	addi	a4, zero, 64
   16048:	93 86 0a 00 	mv	a3, s5
   1604c:	13 86 0d 00 	mv	a2, s11
   16050:	93 05 0d 00 	mv	a1, s10
   16054:	13 05 81 10 	addi	a0, sp, 264
   16058:	ef e0 df f9 	jal	-4196
   1605c:	6f 00 40 04 	j	68
   16060:	93 05 81 10 	addi	a1, sp, 264
   16064:	13 05 c1 0e 	addi	a0, sp, 236
   16068:	ef e0 4f e7 	jal	-6540
   1606c:	63 16 05 06 	bnez	a0, 108
   16070:	03 57 c1 0e 	lhu	a4, 236(sp)
   16074:	83 57 81 10 	lhu	a5, 264(sp)
   16078:	63 08 f7 00 	beq	a4, a5, 16
   1607c:	13 05 01 0d 	addi	a0, sp, 208
   16080:	ef e0 8f de 	jal	-6680
   16084:	6f f0 df df 	j	-516
   16088:	83 57 a1 10 	lhu	a5, 266(sp)
   1608c:	63 92 07 02 	bnez	a5, 36
   16090:	83 17 e1 10 	lh	a5, 270(sp)
   16094:	63 ce 07 00 	bltz	a5, 28
   16098:	13 05 81 10 	addi	a0, sp, 264
   1609c:	ef e0 cf ec 	jal	-6452
   160a0:	93 05 01 0d 	addi	a1, sp, 208
   160a4:	13 05 81 10 	addi	a0, sp, 264
   160a8:	ef e0 5f dd 	jal	-4652
   160ac:	6f f0 5f dd 	j	-556
   160b0:	93 07 81 10 	addi	a5, sp, 264
   160b4:	13 07 e1 11 	addi	a4, sp, 286
   160b8:	83 d6 27 00 	lhu	a3, 2(a5)
   160bc:	63 88 06 00 	beqz	a3, 16
   160c0:	93 8a 1a 00 	addi	s5, s5, 1
   160c4:	23 15 51 11 	sh	s5, 266(sp)
   160c8:	6f f0 9f fd 	j	-40
   160cc:	93 87 27 00 	addi	a5, a5, 2
   160d0:	e3 14 f7 fe 	bne	a4, a5, -24
   160d4:	6f f0 1f ff 	j	-16
   160d8:	e3 58 a0 f4 	blez	a0, -176
   160dc:	93 05 41 12 	addi	a1, sp, 292
   160e0:	13 05 81 10 	addi	a0, sp, 264
   160e4:	ef e0 0f dd 	jal	-6704
   160e8:	93 05 81 10 	addi	a1, sp, 264
   160ec:	13 05 c1 0e 	addi	a0, sp, 236
   160f0:	ef e0 4f dc 	jal	-6716
   160f4:	93 05 c1 0e 	addi	a1, sp, 236
   160f8:	13 05 41 12 	addi	a0, sp, 292
   160fc:	ef e0 8f db 	jal	-6728
   16100:	6f f0 9f f2 	j	-216
   16104:	ef e0 cf f8 	jal	-6260
   16108:	93 0d 10 00 	addi	s11, zero, 1
   1610c:	6f f0 5f f3 	j	-204
   16110:	93 87 27 00 	addi	a5, a5, 2
   16114:	13 07 20 01 	addi	a4, zero, 18
   16118:	e3 96 e7 c6 	bne	a5, a4, -916
   1611c:	6f f0 5f d6 	j	-668
   16120:	83 57 e1 08 	lhu	a5, 142(sp)
   16124:	13 04 00 00 	mv	s0, zero
   16128:	93 8a 44 10 	addi	s5, s1, 260
   1612c:	63 88 07 0a 	beqz	a5, 176
   16130:	93 05 01 0d 	addi	a1, sp, 208
   16134:	13 05 c1 07 	addi	a0, sp, 124
   16138:	b7 4a 00 00 	lui	s5, 4
   1613c:	ef e0 5f 8d 	jal	-5932
   16140:	93 8a ea ff 	addi	s5, s5, -2
   16144:	13 0c 50 fd 	addi	s8, zero, -43
   16148:	83 57 81 0e 	lhu	a5, 232(sp)
   1614c:	93 f7 77 00 	andi	a5, a5, 7
   16150:	63 92 07 06 	bnez	a5, 100
   16154:	93 05 41 0b 	addi	a1, sp, 180
   16158:	13 05 01 0d 	addi	a0, sp, 208
   1615c:	ef e0 8f d5 	jal	-6824
   16160:	13 05 41 0b 	addi	a0, sp, 180
   16164:	ef e0 4f db 	jal	-6732
   16168:	13 05 41 0b 	addi	a0, sp, 180
   1616c:	ef e0 cf da 	jal	-6740
   16170:	93 05 41 0b 	addi	a1, sp, 180
   16174:	13 05 01 0d 	addi	a0, sp, 208
   16178:	ef e0 0f ee 	jal	-6432
   1617c:	83 57 61 0b 	lhu	a5, 182(sp)
   16180:	93 87 37 00 	addi	a5, a5, 3
   16184:	23 1b f1 0a 	sh	a5, 182(sp)
   16188:	83 57 81 0b 	lhu	a5, 184(sp)
   1618c:	63 9a 07 10 	bnez	a5, 276
   16190:	83 57 c1 0c 	lhu	a5, 204(sp)
   16194:	63 90 07 02 	bnez	a5, 32
   16198:	83 57 61 0b 	lhu	a5, 182(sp)
   1619c:	63 ec fa 00 	bltu	s5, a5, 24
   161a0:	93 05 01 0d 	addi	a1, sp, 208
   161a4:	13 05 41 0b 	addi	a0, sp, 180
   161a8:	13 04 f4 ff 	addi	s0, s0, -1
   161ac:	ef e0 8f d0 	jal	-6904
   161b0:	e3 1c 84 f9 	bne	s0, s8, -104
   161b4:	93 05 c1 07 	addi	a1, sp, 124
   161b8:	13 05 01 0d 	addi	a0, sp, 208
   161bc:	ef e0 1f cc 	jal	-4928
   161c0:	6f 00 40 02 	j	36
   161c4:	13 06 c1 07 	addi	a2, sp, 124
   161c8:	93 06 01 16 	addi	a3, sp, 352
   161cc:	93 05 06 00 	mv	a1, a2
   161d0:	13 85 0a 00 	mv	a0, s5
   161d4:	ef f0 0f a2 	jal	-3552
   161d8:	13 04 f4 ff 	addi	s0, s0, -1
   161dc:	83 17 c1 08 	lh	a5, 140(sp)
   161e0:	e3 d2 07 fe 	bgez	a5, -28
   161e4:	93 05 01 0d 	addi	a1, sp, 208
   161e8:	13 05 c1 07 	addi	a0, sp, 124
   161ec:	ef e0 0f c9 	jal	-7024
   161f0:	93 05 81 09 	addi	a1, sp, 152
   161f4:	13 05 09 00 	mv	a0, s2
   161f8:	ef e0 4f c8 	jal	-7036
   161fc:	93 87 44 01 	addi	a5, s1, 20
   16200:	13 0c 00 00 	mv	s8, zero
   16204:	b7 fa ff ff 	lui	s5, 1048575
   16208:	93 8d 04 15 	addi	s11, s1, 336
   1620c:	23 2a f1 00 	sw	a5, 20(sp)
   16210:	13 0d 40 10 	addi	s10, zero, 260
   16214:	83 27 41 01 	lw	a5, 20(sp)
   16218:	33 87 8d 01 	add	a4, s11, s8
   1621c:	93 05 01 0d 	addi	a1, sp, 208
   16220:	13 05 09 00 	mv	a0, s2
   16224:	23 22 e1 02 	sw	a4, 36(sp)
   16228:	b3 84 87 01 	add	s1, a5, s8
   1622c:	ef e0 5f 8b 	jal	-5964
   16230:	03 27 41 02 	lw	a4, 36(sp)
   16234:	63 5a a0 04 	blez	a0, 84
   16238:	93 05 01 0d 	addi	a1, sp, 208
   1623c:	13 05 07 00 	mv	a0, a4
   16240:	ef e0 1f 8a 	jal	-5984
   16244:	63 48 05 02 	bltz	a0, 48
   16248:	13 06 01 0d 	addi	a2, sp, 208
   1624c:	93 05 06 00 	mv	a1, a2
   16250:	93 06 01 16 	addi	a3, sp, 352
   16254:	13 85 04 00 	mv	a0, s1
   16258:	ef f0 cf 99 	jal	-3684
   1625c:	13 06 81 09 	addi	a2, sp, 152
   16260:	93 06 01 16 	addi	a3, sp, 352
   16264:	93 05 06 00 	mv	a1, a2
   16268:	13 85 04 00 	mv	a0, s1
   1626c:	ef f0 8f 98 	jal	-3704
   16270:	33 04 54 01 	add	s0, s0, s5
   16274:	13 d7 fa 01 	srli	a4, s5, 31
   16278:	b3 0a 57 01 	add	s5, a4, s5
   1627c:	13 0c 4c 01 	addi	s8, s8, 20
   16280:	93 da 1a 40 	srai	s5, s5, 1
   16284:	e3 18 ac f9 	bne	s8, s10, -112
   16288:	13 06 81 09 	addi	a2, sp, 152
   1628c:	93 06 01 16 	addi	a3, sp, 352
   16290:	93 05 09 00 	mv	a1, s2
   16294:	13 05 06 00 	mv	a0, a2
   16298:	ef f0 cf be 	jal	-3092
   1629c:	6f f0 df 94 	j	-1716
   162a0:	13 05 41 0b 	addi	a0, sp, 180
   162a4:	ef e0 4f c7 	jal	-7052
   162a8:	83 57 61 0b 	lhu	a5, 182(sp)
   162ac:	93 87 17 00 	addi	a5, a5, 1
   162b0:	6f f0 5f ed 	j	-300
   162b4:	13 05 c1 07 	addi	a0, sp, 124
   162b8:	ef e0 0f cb 	jal	-6992
   162bc:	93 05 41 0b 	addi	a1, sp, 180
   162c0:	13 05 c1 07 	addi	a0, sp, 124
   162c4:	ef e0 0f bf 	jal	-7184
   162c8:	13 05 41 0b 	addi	a0, sp, 180
   162cc:	ef e0 cf c9 	jal	-7012
   162d0:	13 05 41 0b 	addi	a0, sp, 180
   162d4:	ef e0 4f c9 	jal	-7020
   162d8:	93 05 c1 07 	addi	a1, sp, 124
   162dc:	13 05 41 0b 	addi	a0, sp, 180
   162e0:	ef e0 8f d7 	jal	-6792
   162e4:	13 05 81 09 	addi	a0, sp, 152
   162e8:	13 06 01 16 	addi	a2, sp, 352
   162ec:	93 05 c1 07 	addi	a1, sp, 124
   162f0:	ef f0 0f 82 	jal	-4064
   162f4:	03 55 c1 1a 	lhu	a0, 428(sp)
   162f8:	13 04 f4 ff 	addi	s0, s0, -1
   162fc:	6f f0 1f 93 	j	-1744
   16300:	93 07 00 02 	addi	a5, zero, 32
   16304:	6f f0 df 94 	j	-1716
   16308:	13 05 05 03 	addi	a0, a0, 48
   1630c:	93 07 e0 02 	addi	a5, zero, 46
   16310:	a3 02 a1 12 	sb	a0, 293(sp)
   16314:	23 03 f1 12 	sb	a5, 294(sp)
   16318:	13 09 71 12 	addi	s2, sp, 295
   1631c:	b3 0a 79 01 	add	s5, s2, s7
   16320:	63 d6 74 05 	bge	s1, s7, 76
   16324:	83 57 c1 1a 	lhu	a5, 428(sp)
   16328:	13 07 40 00 	addi	a4, zero, 4
   1632c:	13 89 fa ff 	addi	s2, s5, -1
   16330:	e3 5c f7 96 	bge	a4, a5, -1672
   16334:	13 07 50 00 	addi	a4, zero, 5
   16338:	63 84 e7 08 	beq	a5, a4, 136
   1633c:	93 07 09 00 	mv	a5, s2
   16340:	13 06 e0 02 	addi	a2, zero, 46
   16344:	93 05 80 03 	addi	a1, zero, 56
   16348:	93 06 00 03 	addi	a3, zero, 48
   1634c:	93 87 f7 ff 	addi	a5, a5, -1
   16350:	03 c7 07 00 	lbu	a4, 0(a5)
   16354:	13 77 f7 07 	andi	a4, a4, 127
   16358:	63 d8 04 0a 	bgez	s1, 176
   1635c:	13 07 10 03 	addi	a4, zero, 49
   16360:	23 80 e7 00 	sb	a4, 0(a5)
   16364:	13 04 14 00 	addi	s0, s0, 1
   16368:	6f f0 1f 94 	j	-1728
   1636c:	13 05 c1 07 	addi	a0, sp, 124
   16370:	ef e0 8f bf 	jal	-7176
   16374:	93 05 41 0b 	addi	a1, sp, 180
   16378:	13 05 c1 07 	addi	a0, sp, 124
   1637c:	ef e0 8f b3 	jal	-7368
   16380:	13 05 41 0b 	addi	a0, sp, 180
   16384:	ef e0 4f be 	jal	-7196
   16388:	13 05 41 0b 	addi	a0, sp, 180
   1638c:	ef e0 cf bd 	jal	-7204
   16390:	93 05 c1 07 	addi	a1, sp, 124
   16394:	13 05 41 0b 	addi	a0, sp, 180
   16398:	ef e0 0f cc 	jal	-6976
   1639c:	13 06 01 16 	addi	a2, sp, 352
   163a0:	93 05 c1 07 	addi	a1, sp, 124
   163a4:	13 05 81 09 	addi	a0, sp, 152
   163a8:	ef e0 9f f6 	jal	-4248
   163ac:	83 47 c1 1a 	lbu	a5, 428(sp)
   163b0:	93 8b 1b 00 	addi	s7, s7, 1
   163b4:	93 87 07 03 	addi	a5, a5, 48
   163b8:	23 80 fa 00 	sb	a5, 0(s5)
   163bc:	6f f0 1f f6 	j	-160
   163c0:	93 05 81 09 	addi	a1, sp, 152
   163c4:	13 05 c1 07 	addi	a0, sp, 124
   163c8:	ef e0 5f ab 	jal	-5452
   163cc:	83 27 81 01 	lw	a5, 24(sp)
   163d0:	13 05 81 09 	addi	a0, sp, 152
   163d4:	93 85 c7 ff 	addi	a1, a5, -4
   163d8:	ef e0 8f f0 	jal	-6392
   163dc:	e3 10 05 f6 	bnez	a0, -160
   163e0:	e3 c4 04 8c 	bltz	s1, -1848
   163e4:	83 c7 ea ff 	lbu	a5, -2(s5)
   163e8:	93 87 27 fd 	addi	a5, a5, -46
   163ec:	93 b7 17 00 	seqz	a5, a5
   163f0:	93 c7 f7 ff 	not	a5, a5
   163f4:	b3 07 f9 00 	add	a5, s2, a5
   163f8:	83 c7 07 00 	lbu	a5, 0(a5)
   163fc:	93 f7 17 00 	andi	a5, a5, 1
   16400:	e3 9e 07 f2 	bnez	a5, -196
   16404:	6f f0 5f 8a 	j	-1884
   16408:	63 14 c7 02 	bne	a4, a2, 40
   1640c:	03 c7 f7 ff 	lbu	a4, -1(a5)
   16410:	93 06 80 03 	addi	a3, zero, 56
   16414:	63 e8 e6 00 	bltu	a3, a4, 16
   16418:	13 07 17 00 	addi	a4, a4, 1
   1641c:	a3 8f e7 fe 	sb	a4, -1(a5)
   16420:	6f f0 9f 88 	j	-1912
   16424:	13 04 14 00 	addi	s0, s0, 1
   16428:	13 07 10 03 	addi	a4, zero, 49
   1642c:	6f f0 1f ff 	j	-16
   16430:	63 e8 e5 00 	bltu	a1, a4, 16
   16434:	13 07 17 00 	addi	a4, a4, 1
   16438:	23 80 e7 00 	sb	a4, 0(a5)
   1643c:	6f f0 df 86 	j	-1940
   16440:	23 80 d7 00 	sb	a3, 0(a5)
   16444:	6f f0 9f f0 	j	-248
   16448:	03 27 c1 00 	lw	a4, 12(sp)
   1644c:	93 07 14 00 	addi	a5, s0, 1
   16450:	93 06 e0 02 	addi	a3, zero, 46
   16454:	23 20 f7 00 	sw	a5, 0(a4)
   16458:	93 07 09 00 	mv	a5, s2
   1645c:	03 c7 07 00 	lbu	a4, 0(a5)
   16460:	63 16 07 00 	bnez	a4, 12
   16464:	13 07 50 04 	addi	a4, zero, 69
   16468:	6f 00 c0 02 	j	44
   1646c:	13 86 17 00 	addi	a2, a5, 1
   16470:	63 06 d7 00 	beq	a4, a3, 12
   16474:	93 07 06 00 	mv	a5, a2
   16478:	6f f0 5f fe 	j	-28
   1647c:	03 c7 17 00 	lbu	a4, 1(a5)
   16480:	93 87 17 00 	addi	a5, a5, 1
   16484:	a3 8f e7 fe 	sb	a4, -1(a5)
   16488:	e3 1a 07 fe 	bnez	a4, -12
   1648c:	6f f0 9f fd 	j	-40
   16490:	93 87 f7 ff 	addi	a5, a5, -1
   16494:	83 c6 07 00 	lbu	a3, 0(a5)
   16498:	63 84 e6 00 	beq	a3, a4, 8
   1649c:	e3 6a f9 fe 	bltu	s2, a5, -12
   164a0:	23 80 07 00 	sb	zero, 0(a5)
   164a4:	6f f0 cf e5 	j	-2468
   164a8:	93 87 17 00 	addi	a5, a5, 1
   164ac:	6f f0 0f e6 	j	-2464
   164b0:	93 84 06 00 	mv	s1, a3
   164b4:	6f f0 8f e6 	j	-2456
   164b8:	93 84 f4 ff 	addi	s1, s1, -1
   164bc:	23 80 04 00 	sb	zero, 0(s1)
   164c0:	03 c7 f4 ff 	lbu	a4, -1(s1)
   164c4:	63 16 d7 00 	bne	a4, a3, 12
   164c8:	33 87 24 41 	sub	a4, s1, s2
   164cc:	e3 c6 e7 fe 	blt	a5, a4, -20
   164d0:	13 07 30 00 	addi	a4, zero, 3
   164d4:	93 87 9c 00 	addi	a5, s9, 9
   164d8:	63 16 eb 02 	bne	s6, a4, 44
   164dc:	33 84 89 00 	add	s0, s3, s0
   164e0:	63 5a 04 00 	bgez	s0, 20
   164e4:	83 27 c1 00 	lw	a5, 12(sp)
   164e8:	23 02 01 12 	sb	zero, 292(sp)
   164ec:	93 04 09 00 	mv	s1, s2
   164f0:	23 a0 07 00 	sw	zero, 0(a5)
   164f4:	83 27 c1 00 	lw	a5, 12(sp)
   164f8:	83 a7 07 00 	lw	a5, 0(a5)
   164fc:	b3 8c fc 00 	add	s9, s9, a5
   16500:	93 87 3c 00 	addi	a5, s9, 3
   16504:	23 22 0a 04 	sw	zero, 68(s4)
   16508:	13 07 40 00 	addi	a4, zero, 4
   1650c:	93 06 47 01 	addi	a3, a4, 20
   16510:	83 25 4a 04 	lw	a1, 68(s4)
   16514:	63 f8 d7 06 	bgeu	a5, a3, 112
   16518:	13 05 0a 00 	mv	a0, s4
   1651c:	ef 00 40 2e 	jal	740
   16520:	23 20 aa 04 	sw	a0, 64(s4)
   16524:	93 05 09 00 	mv	a1, s2
   16528:	13 04 05 00 	mv	s0, a0
   1652c:	ef 10 c0 60 	jal	5644
   16530:	83 27 c1 01 	lw	a5, 28(sp)
   16534:	63 88 07 00 	beqz	a5, 16
   16538:	b3 84 24 41 	sub	s1, s1, s2
   1653c:	b3 04 94 00 	add	s1, s0, s1
   16540:	23 a0 97 00 	sw	s1, 0(a5)
   16544:	13 05 04 00 	mv	a0, s0
   16548:	83 20 c1 1e 	lw	ra, 492(sp)
   1654c:	03 24 81 1e 	lw	s0, 488(sp)
   16550:	83 24 41 1e 	lw	s1, 484(sp)
   16554:	03 29 01 1e 	lw	s2, 480(sp)
   16558:	83 29 c1 1d 	lw	s3, 476(sp)
   1655c:	03 2a 81 1d 	lw	s4, 472(sp)
   16560:	83 2a 41 1d 	lw	s5, 468(sp)
   16564:	03 2b 01 1d 	lw	s6, 464(sp)
   16568:	83 2b c1 1c 	lw	s7, 460(sp)
   1656c:	03 2c 81 1c 	lw	s8, 456(sp)
   16570:	83 2c 41 1c 	lw	s9, 452(sp)
   16574:	03 2d 01 1c 	lw	s10, 448(sp)
   16578:	83 2d c1 1b 	lw	s11, 444(sp)
   1657c:	13 01 01 1f 	addi	sp, sp, 496
   16580:	67 80 00 00 	ret
   16584:	93 85 15 00 	addi	a1, a1, 1
   16588:	23 22 ba 04 	sw	a1, 68(s4)
   1658c:	13 17 17 00 	slli	a4, a4, 1
   16590:	6f f0 df f7 	j	-132
   16594:	b7 87 00 00 	lui	a5, 8
   16598:	93 87 f7 ff 	addi	a5, a5, -1
   1659c:	63 18 f7 f2 	bne	a4, a5, -2256
   165a0:	83 27 01 01 	lw	a5, 16(sp)
   165a4:	63 8e 07 f0 	beqz	a5, -2276
   165a8:	b7 25 02 00 	lui	a1, 34
   165ac:	93 85 85 25 	addi	a1, a1, 600
   165b0:	6f f0 8f d0 	j	-2808

_ldcheck:
   165b4:	83 27 05 00 	lw	a5, 0(a0)
   165b8:	13 01 01 fc 	addi	sp, sp, -64
   165bc:	93 05 41 01 	addi	a1, sp, 20
   165c0:	23 20 f1 00 	sw	a5, 0(sp)
   165c4:	83 27 45 00 	lw	a5, 4(a0)
   165c8:	23 2e 11 02 	sw	ra, 60(sp)
   165cc:	23 22 f1 00 	sw	a5, 4(sp)
   165d0:	83 27 85 00 	lw	a5, 8(a0)
   165d4:	23 24 f1 00 	sw	a5, 8(sp)
   165d8:	83 27 c5 00 	lw	a5, 12(a0)
   165dc:	13 05 01 00 	mv	a0, sp
   165e0:	23 26 f1 00 	sw	a5, 12(sp)
   165e4:	ef e0 9f 90 	jal	-5880
   165e8:	83 57 61 02 	lhu	a5, 38(sp)
   165ec:	13 05 00 00 	mv	a0, zero
   165f0:	93 c7 f7 ff 	not	a5, a5
   165f4:	13 97 17 01 	slli	a4, a5, 17
   165f8:	63 1a 07 00 	bnez	a4, 20
   165fc:	13 05 41 01 	addi	a0, sp, 20
   16600:	ef e0 4f ba 	jal	-7260
   16604:	13 35 15 00 	seqz	a0, a0
   16608:	13 05 15 00 	addi	a0, a0, 1
   1660c:	83 20 c1 03 	lw	ra, 60(sp)
   16610:	13 01 01 04 	addi	sp, sp, 64
   16614:	67 80 00 00 	ret

__localeconv_l:
   16618:	13 05 05 0f 	addi	a0, a0, 240
   1661c:	67 80 00 00 	ret

_localeconv_r:
   16620:	83 a7 01 1c 	lw	a5, 448(gp)
   16624:	03 a5 47 03 	lw	a0, 52(a5)
   16628:	63 14 05 00 	bnez	a0, 8
   1662c:	13 85 01 03 	addi	a0, gp, 48
   16630:	13 05 05 0f 	addi	a0, a0, 240
   16634:	67 80 00 00 	ret

localeconv:
   16638:	83 a7 01 1c 	lw	a5, 448(gp)
   1663c:	03 a5 47 03 	lw	a0, 52(a5)
   16640:	63 14 05 00 	bnez	a0, 8
   16644:	13 85 01 03 	addi	a0, gp, 48
   16648:	13 05 05 0f 	addi	a0, a0, 240
   1664c:	67 80 00 00 	ret

__swhatbuf_r:
   16650:	13 01 01 f8 	addi	sp, sp, -128
   16654:	23 2a 91 06 	sw	s1, 116(sp)
   16658:	93 84 05 00 	mv	s1, a1
   1665c:	83 95 e5 00 	lh	a1, 14(a1)
   16660:	23 2c 81 06 	sw	s0, 120(sp)
   16664:	23 2e 11 06 	sw	ra, 124(sp)
   16668:	13 04 06 00 	mv	s0, a2
   1666c:	63 de 05 00 	bgez	a1, 28
   16670:	83 d7 c4 00 	lhu	a5, 12(s1)
   16674:	23 a0 06 00 	sw	zero, 0(a3)
   16678:	93 f7 07 08 	andi	a5, a5, 128
   1667c:	63 98 07 04 	bnez	a5, 80
   16680:	93 07 00 40 	addi	a5, zero, 1024
   16684:	6f 00 c0 04 	j	76
   16688:	13 06 81 01 	addi	a2, sp, 24
   1668c:	23 26 d1 00 	sw	a3, 12(sp)
   16690:	ef 40 c0 68 	jal	18060
   16694:	83 26 c1 00 	lw	a3, 12(sp)
   16698:	e3 4c 05 fc 	bltz	a0, -40
   1669c:	03 27 c1 01 	lw	a4, 28(sp)
   166a0:	b7 f7 00 00 	lui	a5, 15
   166a4:	37 15 00 00 	lui	a0, 1
   166a8:	b3 f7 e7 00 	and	a5, a5, a4
   166ac:	37 e7 ff ff 	lui	a4, 1048574
   166b0:	b3 87 e7 00 	add	a5, a5, a4
   166b4:	93 b7 17 00 	seqz	a5, a5
   166b8:	23 a0 f6 00 	sw	a5, 0(a3)
   166bc:	93 07 00 40 	addi	a5, zero, 1024
   166c0:	23 20 f4 00 	sw	a5, 0(s0)
   166c4:	13 05 05 80 	addi	a0, a0, -2048
   166c8:	6f 00 00 01 	j	16
   166cc:	93 07 00 04 	addi	a5, zero, 64
   166d0:	23 20 f4 00 	sw	a5, 0(s0)
   166d4:	13 05 00 00 	mv	a0, zero
   166d8:	83 20 c1 07 	lw	ra, 124(sp)
   166dc:	03 24 81 07 	lw	s0, 120(sp)
   166e0:	83 24 41 07 	lw	s1, 116(sp)
   166e4:	13 01 01 08 	addi	sp, sp, 128
   166e8:	67 80 00 00 	ret

__smakebuf_r:
   166ec:	83 d7 c5 00 	lhu	a5, 12(a1)
   166f0:	13 01 01 fe 	addi	sp, sp, -32
   166f4:	23 2c 81 00 	sw	s0, 24(sp)
   166f8:	23 2e 11 00 	sw	ra, 28(sp)
   166fc:	23 2a 91 00 	sw	s1, 20(sp)
   16700:	23 28 21 01 	sw	s2, 16(sp)
   16704:	93 f7 27 00 	andi	a5, a5, 2
   16708:	13 84 05 00 	mv	s0, a1
   1670c:	63 88 07 02 	beqz	a5, 48
   16710:	93 07 34 04 	addi	a5, s0, 67
   16714:	23 20 f4 00 	sw	a5, 0(s0)
   16718:	23 28 f4 00 	sw	a5, 16(s0)
   1671c:	93 07 10 00 	addi	a5, zero, 1
   16720:	23 2a f4 00 	sw	a5, 20(s0)
   16724:	83 20 c1 01 	lw	ra, 28(sp)
   16728:	03 24 81 01 	lw	s0, 24(sp)
   1672c:	83 24 41 01 	lw	s1, 20(sp)
   16730:	03 29 01 01 	lw	s2, 16(sp)
   16734:	13 01 01 02 	addi	sp, sp, 32
   16738:	67 80 00 00 	ret
   1673c:	93 06 c1 00 	addi	a3, sp, 12
   16740:	13 06 81 00 	addi	a2, sp, 8
   16744:	93 04 05 00 	mv	s1, a0
   16748:	ef f0 9f f0 	jal	-248
   1674c:	83 25 81 00 	lw	a1, 8(sp)
   16750:	13 09 05 00 	mv	s2, a0
   16754:	13 85 04 00 	mv	a0, s1
   16758:	ef a0 5f 9c 	jal	-22076
   1675c:	63 10 05 02 	bnez	a0, 32
   16760:	83 17 c4 00 	lh	a5, 12(s0)
   16764:	13 f7 07 20 	andi	a4, a5, 512
   16768:	e3 1e 07 fa 	bnez	a4, -68
   1676c:	93 f7 c7 ff 	andi	a5, a5, -4
   16770:	93 e7 27 00 	ori	a5, a5, 2
   16774:	23 16 f4 00 	sh	a5, 12(s0)
   16778:	6f f0 9f f9 	j	-104
   1677c:	b7 47 01 00 	lui	a5, 20
   16780:	93 87 c7 f8 	addi	a5, a5, -116
   16784:	23 ae f4 02 	sw	a5, 60(s1)
   16788:	83 57 c4 00 	lhu	a5, 12(s0)
   1678c:	23 20 a4 00 	sw	a0, 0(s0)
   16790:	23 28 a4 00 	sw	a0, 16(s0)
   16794:	93 e7 07 08 	ori	a5, a5, 128
   16798:	23 16 f4 00 	sh	a5, 12(s0)
   1679c:	83 27 81 00 	lw	a5, 8(sp)
   167a0:	23 2a f4 00 	sw	a5, 20(s0)
   167a4:	83 27 c1 00 	lw	a5, 12(sp)
   167a8:	63 82 07 02 	beqz	a5, 36
   167ac:	83 15 e4 00 	lh	a1, 14(s0)
   167b0:	13 85 04 00 	mv	a0, s1
   167b4:	ef 40 50 21 	jal	18964
   167b8:	63 0a 05 00 	beqz	a0, 20
   167bc:	83 57 c4 00 	lhu	a5, 12(s0)
   167c0:	93 f7 c7 ff 	andi	a5, a5, -4
   167c4:	93 e7 17 00 	ori	a5, a5, 1
   167c8:	23 16 f4 00 	sh	a5, 12(s0)
   167cc:	83 57 c4 00 	lhu	a5, 12(s0)
   167d0:	33 69 f9 00 	or	s2, s2, a5
   167d4:	23 16 24 01 	sh	s2, 12(s0)
   167d8:	6f f0 df f4 	j	-180

memchr:
   167dc:	93 f5 f5 0f 	andi	a1, a1, 255
   167e0:	33 06 c5 00 	add	a2, a0, a2
   167e4:	63 16 c5 00 	bne	a0, a2, 12
   167e8:	13 05 00 00 	mv	a0, zero
   167ec:	67 80 00 00 	ret
   167f0:	83 47 05 00 	lbu	a5, 0(a0)
   167f4:	e3 8c b7 fe 	beq	a5, a1, -8
   167f8:	13 05 15 00 	addi	a0, a0, 1
   167fc:	6f f0 9f fe 	j	-24

_Balloc:
   16800:	83 27 c5 04 	lw	a5, 76(a0)
   16804:	13 01 01 ff 	addi	sp, sp, -16
   16808:	23 22 91 00 	sw	s1, 4(sp)
   1680c:	23 20 21 01 	sw	s2, 0(sp)
   16810:	23 26 11 00 	sw	ra, 12(sp)
   16814:	23 24 81 00 	sw	s0, 8(sp)
   16818:	93 04 05 00 	mv	s1, a0
   1681c:	13 89 05 00 	mv	s2, a1
   16820:	63 82 07 04 	beqz	a5, 68
   16824:	03 a7 c4 04 	lw	a4, 76(s1)
   16828:	93 17 29 00 	slli	a5, s2, 2
   1682c:	b3 07 f7 00 	add	a5, a4, a5
   16830:	03 a5 07 00 	lw	a0, 0(a5)
   16834:	63 10 05 06 	bnez	a0, 96
   16838:	13 04 10 00 	addi	s0, zero, 1
   1683c:	33 14 24 01 	sll	s0, s0, s2
   16840:	13 06 54 00 	addi	a2, s0, 5
   16844:	13 16 26 00 	slli	a2, a2, 2
   16848:	93 05 10 00 	addi	a1, zero, 1
   1684c:	13 85 04 00 	mv	a0, s1
   16850:	ef 40 40 15 	jal	16724
   16854:	63 02 05 02 	beqz	a0, 36
   16858:	23 22 25 01 	sw	s2, 4(a0)
   1685c:	23 24 85 00 	sw	s0, 8(a0)
   16860:	6f 00 c0 03 	j	60
   16864:	13 06 10 02 	addi	a2, zero, 33
   16868:	93 05 40 00 	addi	a1, zero, 4
   1686c:	ef 40 80 13 	jal	16696
   16870:	23 a6 a4 04 	sw	a0, 76(s1)
   16874:	e3 18 05 fa 	bnez	a0, -80
   16878:	13 05 00 00 	mv	a0, zero
   1687c:	83 20 c1 00 	lw	ra, 12(sp)
   16880:	03 24 81 00 	lw	s0, 8(sp)
   16884:	83 24 41 00 	lw	s1, 4(sp)
   16888:	03 29 01 00 	lw	s2, 0(sp)
   1688c:	13 01 01 01 	addi	sp, sp, 16
   16890:	67 80 00 00 	ret
   16894:	03 27 05 00 	lw	a4, 0(a0)
   16898:	23 a0 e7 00 	sw	a4, 0(a5)
   1689c:	23 28 05 00 	sw	zero, 16(a0)
   168a0:	23 26 05 00 	sw	zero, 12(a0)
   168a4:	6f f0 9f fd 	j	-40

_Bfree:
   168a8:	63 80 05 02 	beqz	a1, 32
   168ac:	83 a7 45 00 	lw	a5, 4(a1)
   168b0:	13 97 27 00 	slli	a4, a5, 2
   168b4:	83 27 c5 04 	lw	a5, 76(a0)
   168b8:	b3 87 e7 00 	add	a5, a5, a4
   168bc:	03 a7 07 00 	lw	a4, 0(a5)
   168c0:	23 a0 e5 00 	sw	a4, 0(a1)
   168c4:	23 a0 b7 00 	sw	a1, 0(a5)
   168c8:	67 80 00 00 	ret

__multadd:
   168cc:	13 01 01 fd 	addi	sp, sp, -48
   168d0:	23 22 91 02 	sw	s1, 36(sp)
   168d4:	83 a4 05 01 	lw	s1, 16(a1)
   168d8:	23 2a 51 01 	sw	s5, 20(sp)
   168dc:	b7 0a 01 00 	lui	s5, 16
   168e0:	23 24 81 02 	sw	s0, 40(sp)
   168e4:	23 20 21 03 	sw	s2, 32(sp)
   168e8:	23 2e 31 01 	sw	s3, 28(sp)
   168ec:	23 28 61 01 	sw	s6, 16(sp)
   168f0:	23 26 71 01 	sw	s7, 12(sp)
   168f4:	23 24 81 01 	sw	s8, 8(sp)
   168f8:	23 26 11 02 	sw	ra, 44(sp)
   168fc:	23 2c 41 01 	sw	s4, 24(sp)
   16900:	23 22 91 01 	sw	s9, 4(sp)
   16904:	13 0b 05 00 	mv	s6, a0
   16908:	13 84 05 00 	mv	s0, a1
   1690c:	93 0b 06 00 	mv	s7, a2
   16910:	13 89 06 00 	mv	s2, a3
   16914:	93 89 45 01 	addi	s3, a1, 20
   16918:	13 0c 00 00 	mv	s8, zero
   1691c:	93 8a fa ff 	addi	s5, s5, -1
   16920:	83 ac 09 00 	lw	s9, 0(s3)
   16924:	93 85 0b 00 	mv	a1, s7
   16928:	93 89 49 00 	addi	s3, s3, 4
   1692c:	33 f5 5c 01 	and	a0, s9, s5
   16930:	ef b0 80 39 	jal	45976
   16934:	33 0a 25 01 	add	s4, a0, s2
   16938:	93 85 0b 00 	mv	a1, s7
   1693c:	13 d5 0c 01 	srli	a0, s9, 16
   16940:	ef b0 80 38 	jal	45960
   16944:	93 57 0a 01 	srli	a5, s4, 16
   16948:	33 05 f5 00 	add	a0, a0, a5
   1694c:	13 59 05 01 	srli	s2, a0, 16
   16950:	33 7a 5a 01 	and	s4, s4, s5
   16954:	13 15 05 01 	slli	a0, a0, 16
   16958:	33 05 45 01 	add	a0, a0, s4
   1695c:	23 ae a9 fe 	sw	a0, -4(s3)
   16960:	13 0c 1c 00 	addi	s8, s8, 1
   16964:	e3 4e 9c fa 	blt	s8, s1, -68
   16968:	63 00 09 06 	beqz	s2, 96
   1696c:	83 27 84 00 	lw	a5, 8(s0)
   16970:	63 c0 f4 04 	blt	s1, a5, 64
   16974:	83 25 44 00 	lw	a1, 4(s0)
   16978:	13 05 0b 00 	mv	a0, s6
   1697c:	93 85 15 00 	addi	a1, a1, 1
   16980:	ef f0 1f e8 	jal	-384
   16984:	03 26 04 01 	lw	a2, 16(s0)
   16988:	93 05 c4 00 	addi	a1, s0, 12
   1698c:	93 09 05 00 	mv	s3, a0
   16990:	13 06 26 00 	addi	a2, a2, 2
   16994:	13 16 26 00 	slli	a2, a2, 2
   16998:	13 05 c5 00 	addi	a0, a0, 12
   1699c:	ef 40 50 1f 	jal	18932
   169a0:	93 05 04 00 	mv	a1, s0
   169a4:	13 05 0b 00 	mv	a0, s6
   169a8:	ef f0 1f f0 	jal	-256
   169ac:	13 84 09 00 	mv	s0, s3
   169b0:	93 87 44 00 	addi	a5, s1, 4
   169b4:	93 97 27 00 	slli	a5, a5, 2
   169b8:	b3 07 f4 00 	add	a5, s0, a5
   169bc:	23 a2 27 01 	sw	s2, 4(a5)
   169c0:	93 84 14 00 	addi	s1, s1, 1
   169c4:	23 28 94 00 	sw	s1, 16(s0)
   169c8:	13 05 04 00 	mv	a0, s0
   169cc:	83 20 c1 02 	lw	ra, 44(sp)
   169d0:	03 24 81 02 	lw	s0, 40(sp)
   169d4:	83 24 41 02 	lw	s1, 36(sp)
   169d8:	03 29 01 02 	lw	s2, 32(sp)
   169dc:	83 29 c1 01 	lw	s3, 28(sp)
   169e0:	03 2a 81 01 	lw	s4, 24(sp)
   169e4:	83 2a 41 01 	lw	s5, 20(sp)
   169e8:	03 2b 01 01 	lw	s6, 16(sp)
   169ec:	83 2b c1 00 	lw	s7, 12(sp)
   169f0:	03 2c 81 00 	lw	s8, 8(sp)
   169f4:	83 2c 41 00 	lw	s9, 4(sp)
   169f8:	13 01 01 03 	addi	sp, sp, 48
   169fc:	67 80 00 00 	ret

__s2b:
   16a00:	13 01 01 fe 	addi	sp, sp, -32
   16a04:	23 2c 81 00 	sw	s0, 24(sp)
   16a08:	23 26 31 01 	sw	s3, 12(sp)
   16a0c:	13 84 05 00 	mv	s0, a1
   16a10:	93 09 05 00 	mv	s3, a0
   16a14:	93 05 90 00 	addi	a1, zero, 9
   16a18:	13 85 86 00 	addi	a0, a3, 8
   16a1c:	23 2a 91 00 	sw	s1, 20(sp)
   16a20:	23 28 21 01 	sw	s2, 16(sp)
   16a24:	23 24 41 01 	sw	s4, 8(sp)
   16a28:	23 2e 11 00 	sw	ra, 28(sp)
   16a2c:	23 22 51 01 	sw	s5, 4(sp)
   16a30:	93 04 06 00 	mv	s1, a2
   16a34:	13 8a 06 00 	mv	s4, a3
   16a38:	13 09 07 00 	mv	s2, a4
   16a3c:	ef b0 00 2b 	jal	45744
   16a40:	93 07 10 00 	addi	a5, zero, 1
   16a44:	93 05 00 00 	mv	a1, zero
   16a48:	63 c0 a7 08 	blt	a5, a0, 128
   16a4c:	13 85 09 00 	mv	a0, s3
   16a50:	ef f0 1f db 	jal	-592
   16a54:	93 07 10 00 	addi	a5, zero, 1
   16a58:	23 28 f5 00 	sw	a5, 16(a0)
   16a5c:	23 2a 25 01 	sw	s2, 20(a0)
   16a60:	93 07 90 00 	addi	a5, zero, 9
   16a64:	63 d8 97 06 	bge	a5, s1, 112
   16a68:	93 0a 94 00 	addi	s5, s0, 9
   16a6c:	13 89 0a 00 	mv	s2, s5
   16a70:	33 04 94 00 	add	s0, s0, s1
   16a74:	13 09 19 00 	addi	s2, s2, 1
   16a78:	83 46 f9 ff 	lbu	a3, -1(s2)
   16a7c:	93 05 05 00 	mv	a1, a0
   16a80:	13 06 a0 00 	addi	a2, zero, 10
   16a84:	93 86 06 fd 	addi	a3, a3, -48
   16a88:	13 85 09 00 	mv	a0, s3
   16a8c:	ef f0 1f e4 	jal	-448
   16a90:	e3 12 89 fe 	bne	s2, s0, -28
   16a94:	13 84 84 ff 	addi	s0, s1, -8
   16a98:	33 84 8a 00 	add	s0, s5, s0
   16a9c:	13 89 04 00 	mv	s2, s1
   16aa0:	63 40 49 05 	blt	s2, s4, 64
   16aa4:	83 20 c1 01 	lw	ra, 28(sp)
   16aa8:	03 24 81 01 	lw	s0, 24(sp)
   16aac:	83 24 41 01 	lw	s1, 20(sp)
   16ab0:	03 29 01 01 	lw	s2, 16(sp)
   16ab4:	83 29 c1 00 	lw	s3, 12(sp)
   16ab8:	03 2a 81 00 	lw	s4, 8(sp)
   16abc:	83 2a 41 00 	lw	s5, 4(sp)
   16ac0:	13 01 01 02 	addi	sp, sp, 32
   16ac4:	67 80 00 00 	ret
   16ac8:	93 97 17 00 	slli	a5, a5, 1
   16acc:	93 85 15 00 	addi	a1, a1, 1
   16ad0:	6f f0 9f f7 	j	-136
   16ad4:	13 04 a4 00 	addi	s0, s0, 10
   16ad8:	93 04 90 00 	addi	s1, zero, 9
   16adc:	6f f0 1f fc 	j	-64
   16ae0:	b3 07 99 40 	sub	a5, s2, s1
   16ae4:	b3 07 f4 00 	add	a5, s0, a5
   16ae8:	83 c6 07 00 	lbu	a3, 0(a5)
   16aec:	93 05 05 00 	mv	a1, a0
   16af0:	13 06 a0 00 	addi	a2, zero, 10
   16af4:	93 86 06 fd 	addi	a3, a3, -48
   16af8:	13 85 09 00 	mv	a0, s3
   16afc:	ef f0 1f dd 	jal	-560
   16b00:	13 09 19 00 	addi	s2, s2, 1
   16b04:	6f f0 df f9 	j	-100

__hi0bits:
   16b08:	37 07 ff ff 	lui	a4, 1048560
   16b0c:	33 77 e5 00 	and	a4, a0, a4
   16b10:	93 07 05 00 	mv	a5, a0
   16b14:	13 05 00 00 	mv	a0, zero
   16b18:	63 16 07 00 	bnez	a4, 12
   16b1c:	93 97 07 01 	slli	a5, a5, 16
   16b20:	13 05 00 01 	addi	a0, zero, 16
   16b24:	37 07 00 ff 	lui	a4, 1044480
   16b28:	33 f7 e7 00 	and	a4, a5, a4
   16b2c:	63 16 07 00 	bnez	a4, 12
   16b30:	13 05 85 00 	addi	a0, a0, 8
   16b34:	93 97 87 00 	slli	a5, a5, 8
   16b38:	37 07 00 f0 	lui	a4, 983040
   16b3c:	33 f7 e7 00 	and	a4, a5, a4
   16b40:	63 16 07 00 	bnez	a4, 12
   16b44:	13 05 45 00 	addi	a0, a0, 4
   16b48:	93 97 47 00 	slli	a5, a5, 4
   16b4c:	37 07 00 c0 	lui	a4, 786432
   16b50:	33 f7 e7 00 	and	a4, a5, a4
   16b54:	63 16 07 00 	bnez	a4, 12
   16b58:	13 05 25 00 	addi	a0, a0, 2
   16b5c:	93 97 27 00 	slli	a5, a5, 2
   16b60:	63 ca 07 00 	bltz	a5, 20
   16b64:	13 97 17 00 	slli	a4, a5, 1
   16b68:	13 05 15 00 	addi	a0, a0, 1
   16b6c:	63 44 07 00 	bltz	a4, 8
   16b70:	13 05 00 02 	addi	a0, zero, 32
   16b74:	67 80 00 00 	ret

__lo0bits:
   16b78:	83 27 05 00 	lw	a5, 0(a0)
   16b7c:	13 f7 77 00 	andi	a4, a5, 7
   16b80:	63 0e 07 02 	beqz	a4, 60
   16b84:	93 f6 17 00 	andi	a3, a5, 1
   16b88:	13 07 00 00 	mv	a4, zero
   16b8c:	63 9c 06 00 	bnez	a3, 24
   16b90:	13 f7 27 00 	andi	a4, a5, 2
   16b94:	63 0c 07 00 	beqz	a4, 24
   16b98:	93 d7 17 00 	srli	a5, a5, 1
   16b9c:	23 20 f5 00 	sw	a5, 0(a0)
   16ba0:	13 07 10 00 	addi	a4, zero, 1
   16ba4:	13 05 07 00 	mv	a0, a4
   16ba8:	67 80 00 00 	ret
   16bac:	93 d7 27 00 	srli	a5, a5, 2
   16bb0:	23 20 f5 00 	sw	a5, 0(a0)
   16bb4:	13 07 20 00 	addi	a4, zero, 2
   16bb8:	6f f0 df fe 	j	-20
   16bbc:	93 96 07 01 	slli	a3, a5, 16
   16bc0:	93 d6 06 01 	srli	a3, a3, 16
   16bc4:	13 07 00 00 	mv	a4, zero
   16bc8:	63 96 06 00 	bnez	a3, 12
   16bcc:	93 d7 07 01 	srli	a5, a5, 16
   16bd0:	13 07 00 01 	addi	a4, zero, 16
   16bd4:	93 f6 f7 0f 	andi	a3, a5, 255
   16bd8:	63 96 06 00 	bnez	a3, 12
   16bdc:	13 07 87 00 	addi	a4, a4, 8
   16be0:	93 d7 87 00 	srli	a5, a5, 8
   16be4:	93 f6 f7 00 	andi	a3, a5, 15
   16be8:	63 96 06 00 	bnez	a3, 12
   16bec:	13 07 47 00 	addi	a4, a4, 4
   16bf0:	93 d7 47 00 	srli	a5, a5, 4
   16bf4:	93 f6 37 00 	andi	a3, a5, 3
   16bf8:	63 96 06 00 	bnez	a3, 12
   16bfc:	13 07 27 00 	addi	a4, a4, 2
   16c00:	93 d7 27 00 	srli	a5, a5, 2
   16c04:	93 f6 17 00 	andi	a3, a5, 1
   16c08:	63 98 06 00 	bnez	a3, 16
   16c0c:	93 d7 17 00 	srli	a5, a5, 1
   16c10:	13 07 17 00 	addi	a4, a4, 1
   16c14:	63 86 07 00 	beqz	a5, 12
   16c18:	23 20 f5 00 	sw	a5, 0(a0)
   16c1c:	6f f0 9f f8 	j	-120
   16c20:	13 07 00 02 	addi	a4, zero, 32
   16c24:	6f f0 1f f8 	j	-128

__i2b:
   16c28:	13 01 01 ff 	addi	sp, sp, -16
   16c2c:	23 24 81 00 	sw	s0, 8(sp)
   16c30:	13 84 05 00 	mv	s0, a1
   16c34:	93 05 10 00 	addi	a1, zero, 1
   16c38:	23 26 11 00 	sw	ra, 12(sp)
   16c3c:	ef f0 5f bc 	jal	-1084
   16c40:	23 2a 85 00 	sw	s0, 20(a0)
   16c44:	83 20 c1 00 	lw	ra, 12(sp)
   16c48:	03 24 81 00 	lw	s0, 8(sp)
   16c4c:	13 07 10 00 	addi	a4, zero, 1
   16c50:	23 28 e5 00 	sw	a4, 16(a0)
   16c54:	13 01 01 01 	addi	sp, sp, 16
   16c58:	67 80 00 00 	ret

__multiply:
   16c5c:	03 a7 05 01 	lw	a4, 16(a1)
   16c60:	83 27 06 01 	lw	a5, 16(a2)
   16c64:	13 01 01 fb 	addi	sp, sp, -80
   16c68:	23 22 91 04 	sw	s1, 68(sp)
   16c6c:	23 2c 41 03 	sw	s4, 56(sp)
   16c70:	23 26 11 04 	sw	ra, 76(sp)
   16c74:	23 24 81 04 	sw	s0, 72(sp)
   16c78:	23 20 21 05 	sw	s2, 64(sp)
   16c7c:	23 2e 31 03 	sw	s3, 60(sp)
   16c80:	23 2a 51 03 	sw	s5, 52(sp)
   16c84:	23 28 61 03 	sw	s6, 48(sp)
   16c88:	23 26 71 03 	sw	s7, 44(sp)
   16c8c:	23 24 81 03 	sw	s8, 40(sp)
   16c90:	23 22 91 03 	sw	s9, 36(sp)
   16c94:	23 20 a1 03 	sw	s10, 32(sp)
   16c98:	23 2e b1 01 	sw	s11, 28(sp)
   16c9c:	13 8a 05 00 	mv	s4, a1
   16ca0:	93 04 06 00 	mv	s1, a2
   16ca4:	63 56 f7 00 	bge	a4, a5, 12
   16ca8:	13 0a 06 00 	mv	s4, a2
   16cac:	93 84 05 00 	mv	s1, a1
   16cb0:	03 29 0a 01 	lw	s2, 16(s4)
   16cb4:	83 a9 04 01 	lw	s3, 16(s1)
   16cb8:	83 27 8a 00 	lw	a5, 8(s4)
   16cbc:	83 25 4a 00 	lw	a1, 4(s4)
   16cc0:	33 0c 39 01 	add	s8, s2, s3
   16cc4:	63 d4 87 01 	bge	a5, s8, 8
   16cc8:	93 85 15 00 	addi	a1, a1, 1
   16ccc:	ef f0 5f b3 	jal	-1228
   16cd0:	93 0b 45 01 	addi	s7, a0, 20
   16cd4:	93 1c 2c 00 	slli	s9, s8, 2
   16cd8:	13 0d 05 00 	mv	s10, a0
   16cdc:	b3 8c 9b 01 	add	s9, s7, s9
   16ce0:	93 87 0b 00 	mv	a5, s7
   16ce4:	63 e4 97 09 	bltu	a5, s9, 136
   16ce8:	13 0a 4a 01 	addi	s4, s4, 20
   16cec:	13 19 29 00 	slli	s2, s2, 2
   16cf0:	b3 07 2a 01 	add	a5, s4, s2
   16cf4:	93 84 44 01 	addi	s1, s1, 20
   16cf8:	93 99 29 00 	slli	s3, s3, 2
   16cfc:	23 20 f1 00 	sw	a5, 0(sp)
   16d00:	b7 0a 01 00 	lui	s5, 16
   16d04:	b3 87 34 01 	add	a5, s1, s3
   16d08:	23 22 f1 00 	sw	a5, 4(sp)
   16d0c:	93 8a fa ff 	addi	s5, s5, -1
   16d10:	83 27 41 00 	lw	a5, 4(sp)
   16d14:	63 e2 f4 06 	bltu	s1, a5, 100
   16d18:	63 58 80 01 	blez	s8, 16
   16d1c:	93 8c cc ff 	addi	s9, s9, -4
   16d20:	83 a7 0c 00 	lw	a5, 0(s9)
   16d24:	63 8a 07 16 	beqz	a5, 372
   16d28:	83 20 c1 04 	lw	ra, 76(sp)
   16d2c:	03 24 81 04 	lw	s0, 72(sp)
   16d30:	23 28 8d 01 	sw	s8, 16(s10)
   16d34:	13 05 0d 00 	mv	a0, s10
   16d38:	83 24 41 04 	lw	s1, 68(sp)
   16d3c:	03 29 01 04 	lw	s2, 64(sp)
   16d40:	83 29 c1 03 	lw	s3, 60(sp)
   16d44:	03 2a 81 03 	lw	s4, 56(sp)
   16d48:	83 2a 41 03 	lw	s5, 52(sp)
   16d4c:	03 2b 01 03 	lw	s6, 48(sp)
   16d50:	83 2b c1 02 	lw	s7, 44(sp)
   16d54:	03 2c 81 02 	lw	s8, 40(sp)
   16d58:	83 2c 41 02 	lw	s9, 36(sp)
   16d5c:	03 2d 01 02 	lw	s10, 32(sp)
   16d60:	83 2d c1 01 	lw	s11, 28(sp)
   16d64:	13 01 01 05 	addi	sp, sp, 80
   16d68:	67 80 00 00 	ret
   16d6c:	23 a0 07 00 	sw	zero, 0(a5)
   16d70:	93 87 47 00 	addi	a5, a5, 4
   16d74:	6f f0 1f f7 	j	-144
   16d78:	83 a7 04 00 	lw	a5, 0(s1)
   16d7c:	b3 f7 57 01 	and	a5, a5, s5
   16d80:	63 84 07 08 	beqz	a5, 136
   16d84:	93 8d 0b 00 	mv	s11, s7
   16d88:	93 09 0a 00 	mv	s3, s4
   16d8c:	13 09 00 00 	mv	s2, zero
   16d90:	03 a6 09 00 	lw	a2, 0(s3)
   16d94:	93 85 07 00 	mv	a1, a5
   16d98:	03 a4 0d 00 	lw	s0, 0(s11)
   16d9c:	33 75 56 01 	and	a0, a2, s5
   16da0:	23 24 f1 00 	sw	a5, 8(sp)
   16da4:	23 26 c1 00 	sw	a2, 12(sp)
   16da8:	ef a0 10 72 	jal	44832
   16dac:	83 27 81 00 	lw	a5, 8(sp)
   16db0:	03 26 c1 00 	lw	a2, 12(sp)
   16db4:	33 7b 54 01 	and	s6, s0, s5
   16db8:	33 0b 65 01 	add	s6, a0, s6
   16dbc:	93 85 07 00 	mv	a1, a5
   16dc0:	13 55 06 01 	srli	a0, a2, 16
   16dc4:	ef a0 50 70 	jal	44804
   16dc8:	33 0b 2b 01 	add	s6, s6, s2
   16dcc:	13 54 04 01 	srli	s0, s0, 16
   16dd0:	33 05 85 00 	add	a0, a0, s0
   16dd4:	13 54 0b 01 	srli	s0, s6, 16
   16dd8:	33 05 85 00 	add	a0, a0, s0
   16ddc:	13 59 05 01 	srli	s2, a0, 16
   16de0:	33 7b 5b 01 	and	s6, s6, s5
   16de4:	13 15 05 01 	slli	a0, a0, 16
   16de8:	03 27 01 00 	lw	a4, 0(sp)
   16dec:	93 8d 4d 00 	addi	s11, s11, 4
   16df0:	33 65 65 01 	or	a0, a0, s6
   16df4:	93 89 49 00 	addi	s3, s3, 4
   16df8:	23 ae ad fe 	sw	a0, -4(s11)
   16dfc:	83 27 81 00 	lw	a5, 8(sp)
   16e00:	e3 e8 e9 f8 	bltu	s3, a4, -112
   16e04:	23 a0 2d 01 	sw	s2, 0(s11)
   16e08:	03 d9 24 00 	lhu	s2, 2(s1)
   16e0c:	63 00 09 08 	beqz	s2, 128
   16e10:	03 a4 0b 00 	lw	s0, 0(s7)
   16e14:	93 8d 0b 00 	mv	s11, s7
   16e18:	93 09 0a 00 	mv	s3, s4
   16e1c:	93 06 00 00 	mv	a3, zero
   16e20:	03 a5 09 00 	lw	a0, 0(s3)
   16e24:	93 05 09 00 	mv	a1, s2
   16e28:	23 24 d1 00 	sw	a3, 8(sp)
   16e2c:	33 75 55 01 	and	a0, a0, s5
   16e30:	ef a0 90 69 	jal	44696
   16e34:	03 db 2d 00 	lhu	s6, 2(s11)
   16e38:	83 26 81 00 	lw	a3, 8(sp)
   16e3c:	33 74 54 01 	and	s0, s0, s5
   16e40:	33 0b 65 01 	add	s6, a0, s6
   16e44:	33 0b db 00 	add	s6, s6, a3
   16e48:	13 15 0b 01 	slli	a0, s6, 16
   16e4c:	33 64 85 00 	or	s0, a0, s0
   16e50:	93 8d 4d 00 	addi	s11, s11, 4
   16e54:	23 ae 8d fe 	sw	s0, -4(s11)
   16e58:	93 89 49 00 	addi	s3, s3, 4
   16e5c:	03 d5 e9 ff 	lhu	a0, -2(s3)
   16e60:	93 05 09 00 	mv	a1, s2
   16e64:	13 5b 0b 01 	srli	s6, s6, 16
   16e68:	ef a0 10 66 	jal	44640
   16e6c:	03 a4 0d 00 	lw	s0, 0(s11)
   16e70:	83 27 01 00 	lw	a5, 0(sp)
   16e74:	33 74 54 01 	and	s0, s0, s5
   16e78:	33 04 85 00 	add	s0, a0, s0
   16e7c:	33 04 64 01 	add	s0, s0, s6
   16e80:	93 56 04 01 	srli	a3, s0, 16
   16e84:	e3 ee f9 f8 	bltu	s3, a5, -100
   16e88:	23 a0 8d 00 	sw	s0, 0(s11)
   16e8c:	93 84 44 00 	addi	s1, s1, 4
   16e90:	93 8b 4b 00 	addi	s7, s7, 4
   16e94:	6f f0 df e7 	j	-388
   16e98:	13 0c fc ff 	addi	s8, s8, -1
   16e9c:	6f f0 df e7 	j	-388

__pow5mult:
   16ea0:	13 01 01 fe 	addi	sp, sp, -32
   16ea4:	23 2a 91 00 	sw	s1, 20(sp)
   16ea8:	23 28 21 01 	sw	s2, 16(sp)
   16eac:	23 26 31 01 	sw	s3, 12(sp)
   16eb0:	23 2e 11 00 	sw	ra, 28(sp)
   16eb4:	23 2c 81 00 	sw	s0, 24(sp)
   16eb8:	23 24 41 01 	sw	s4, 8(sp)
   16ebc:	93 77 36 00 	andi	a5, a2, 3
   16ec0:	13 09 05 00 	mv	s2, a0
   16ec4:	93 04 06 00 	mv	s1, a2
   16ec8:	93 89 05 00 	mv	s3, a1
   16ecc:	63 84 07 02 	beqz	a5, 40
   16ed0:	93 87 f7 ff 	addi	a5, a5, -1
   16ed4:	37 27 02 00 	lui	a4, 34
   16ed8:	13 07 87 27 	addi	a4, a4, 632
   16edc:	93 97 27 00 	slli	a5, a5, 2
   16ee0:	b3 07 f7 00 	add	a5, a4, a5
   16ee4:	03 a6 07 00 	lw	a2, 0(a5)
   16ee8:	93 06 00 00 	mv	a3, zero
   16eec:	ef f0 1f 9e 	jal	-1568
   16ef0:	93 09 05 00 	mv	s3, a0
   16ef4:	93 d4 24 40 	srai	s1, s1, 2
   16ef8:	63 80 04 08 	beqz	s1, 128
   16efc:	03 24 89 04 	lw	s0, 72(s2)
   16f00:	63 1e 04 00 	bnez	s0, 28
   16f04:	93 05 10 27 	addi	a1, zero, 625
   16f08:	13 05 09 00 	mv	a0, s2
   16f0c:	ef f0 df d1 	jal	-740
   16f10:	23 24 a9 04 	sw	a0, 72(s2)
   16f14:	13 04 05 00 	mv	s0, a0
   16f18:	23 20 05 00 	sw	zero, 0(a0)
   16f1c:	93 f7 14 00 	andi	a5, s1, 1
   16f20:	63 84 07 02 	beqz	a5, 40
   16f24:	93 85 09 00 	mv	a1, s3
   16f28:	13 06 04 00 	mv	a2, s0
   16f2c:	13 05 09 00 	mv	a0, s2
   16f30:	ef f0 df d2 	jal	-724
   16f34:	13 0a 05 00 	mv	s4, a0
   16f38:	93 85 09 00 	mv	a1, s3
   16f3c:	13 05 09 00 	mv	a0, s2
   16f40:	ef f0 9f 96 	jal	-1688
   16f44:	93 09 0a 00 	mv	s3, s4
   16f48:	93 d4 14 40 	srai	s1, s1, 1
   16f4c:	63 86 04 02 	beqz	s1, 44
   16f50:	03 25 04 00 	lw	a0, 0(s0)
   16f54:	63 1e 05 00 	bnez	a0, 28
   16f58:	13 06 04 00 	mv	a2, s0
   16f5c:	93 05 04 00 	mv	a1, s0
   16f60:	13 05 09 00 	mv	a0, s2
   16f64:	ef f0 9f cf 	jal	-776
   16f68:	23 20 a4 00 	sw	a0, 0(s0)
   16f6c:	23 20 05 00 	sw	zero, 0(a0)
   16f70:	13 04 05 00 	mv	s0, a0
   16f74:	6f f0 9f fa 	j	-88
   16f78:	83 20 c1 01 	lw	ra, 28(sp)
   16f7c:	03 24 81 01 	lw	s0, 24(sp)
   16f80:	13 85 09 00 	mv	a0, s3
   16f84:	83 24 41 01 	lw	s1, 20(sp)
   16f88:	03 29 01 01 	lw	s2, 16(sp)
   16f8c:	83 29 c1 00 	lw	s3, 12(sp)
   16f90:	03 2a 81 00 	lw	s4, 8(sp)
   16f94:	13 01 01 02 	addi	sp, sp, 32
   16f98:	67 80 00 00 	ret

__lshift:
   16f9c:	13 01 01 fd 	addi	sp, sp, -48
   16fa0:	23 22 91 02 	sw	s1, 36(sp)
   16fa4:	93 84 05 00 	mv	s1, a1
   16fa8:	23 2e 31 01 	sw	s3, 28(sp)
   16fac:	83 a9 04 01 	lw	s3, 16(s1)
   16fb0:	23 24 81 02 	sw	s0, 40(sp)
   16fb4:	83 a5 45 00 	lw	a1, 4(a1)
   16fb8:	13 54 56 40 	srai	s0, a2, 5
   16fbc:	83 a7 84 00 	lw	a5, 8(s1)
   16fc0:	b3 09 34 01 	add	s3, s0, s3
   16fc4:	23 20 21 03 	sw	s2, 32(sp)
   16fc8:	23 2a 51 01 	sw	s5, 20(sp)
   16fcc:	23 26 11 02 	sw	ra, 44(sp)
   16fd0:	23 2c 41 01 	sw	s4, 24(sp)
   16fd4:	93 0a 05 00 	mv	s5, a0
   16fd8:	13 89 19 00 	addi	s2, s3, 1
   16fdc:	63 c6 27 0d 	blt	a5, s2, 204
   16fe0:	13 85 0a 00 	mv	a0, s5
   16fe4:	23 26 c1 00 	sw	a2, 12(sp)
   16fe8:	ef f0 9f 81 	jal	-2024
   16fec:	03 26 c1 00 	lw	a2, 12(sp)
   16ff0:	93 07 45 01 	addi	a5, a0, 20
   16ff4:	13 0a 05 00 	mv	s4, a0
   16ff8:	93 86 07 00 	mv	a3, a5
   16ffc:	13 07 00 00 	mv	a4, zero
   17000:	93 86 46 00 	addi	a3, a3, 4
   17004:	63 48 87 0a 	blt	a4, s0, 176
   17008:	63 54 04 00 	bgez	s0, 8
   1700c:	13 04 00 00 	mv	s0, zero
   17010:	83 a6 04 01 	lw	a3, 16(s1)
   17014:	13 14 24 00 	slli	s0, s0, 2
   17018:	33 87 87 00 	add	a4, a5, s0
   1701c:	93 96 26 00 	slli	a3, a3, 2
   17020:	93 87 44 01 	addi	a5, s1, 20
   17024:	13 76 f6 01 	andi	a2, a2, 31
   17028:	b3 86 d7 00 	add	a3, a5, a3
   1702c:	63 0a 06 08 	beqz	a2, 148
   17030:	13 08 00 02 	addi	a6, zero, 32
   17034:	33 08 c8 40 	sub	a6, a6, a2
   17038:	93 05 00 00 	mv	a1, zero
   1703c:	03 a5 07 00 	lw	a0, 0(a5)
   17040:	13 07 47 00 	addi	a4, a4, 4
   17044:	93 87 47 00 	addi	a5, a5, 4
   17048:	33 15 c5 00 	sll	a0, a0, a2
   1704c:	b3 65 b5 00 	or	a1, a0, a1
   17050:	23 2e b7 fe 	sw	a1, -4(a4)
   17054:	83 a5 c7 ff 	lw	a1, -4(a5)
   17058:	b3 d5 05 01 	srl	a1, a1, a6
   1705c:	e3 e0 d7 fe 	bltu	a5, a3, -32
   17060:	23 20 b7 00 	sw	a1, 0(a4)
   17064:	63 84 05 00 	beqz	a1, 8
   17068:	13 89 29 00 	addi	s2, s3, 2
   1706c:	13 09 f9 ff 	addi	s2, s2, -1
   17070:	23 28 2a 01 	sw	s2, 16(s4)
   17074:	13 85 0a 00 	mv	a0, s5
   17078:	93 85 04 00 	mv	a1, s1
   1707c:	ef f0 df 82 	jal	-2004
   17080:	83 20 c1 02 	lw	ra, 44(sp)
   17084:	03 24 81 02 	lw	s0, 40(sp)
   17088:	13 05 0a 00 	mv	a0, s4
   1708c:	83 24 41 02 	lw	s1, 36(sp)
   17090:	03 29 01 02 	lw	s2, 32(sp)
   17094:	83 29 c1 01 	lw	s3, 28(sp)
   17098:	03 2a 81 01 	lw	s4, 24(sp)
   1709c:	83 2a 41 01 	lw	s5, 20(sp)
   170a0:	13 01 01 03 	addi	sp, sp, 48
   170a4:	67 80 00 00 	ret
   170a8:	93 85 15 00 	addi	a1, a1, 1
   170ac:	93 97 17 00 	slli	a5, a5, 1
   170b0:	6f f0 df f2 	j	-212
   170b4:	23 ae 06 fe 	sw	zero, -4(a3)
   170b8:	13 07 17 00 	addi	a4, a4, 1
   170bc:	6f f0 5f f4 	j	-188
   170c0:	93 87 47 00 	addi	a5, a5, 4
   170c4:	03 a6 c7 ff 	lw	a2, -4(a5)
   170c8:	13 07 47 00 	addi	a4, a4, 4
   170cc:	23 2e c7 fe 	sw	a2, -4(a4)
   170d0:	e3 e8 d7 fe 	bltu	a5, a3, -16
   170d4:	6f f0 9f f9 	j	-104

__mcmp:
   170d8:	83 27 05 01 	lw	a5, 16(a0)
   170dc:	03 a7 05 01 	lw	a4, 16(a1)
   170e0:	b3 87 e7 40 	sub	a5, a5, a4
   170e4:	63 9c 07 02 	bnez	a5, 56
   170e8:	13 17 27 00 	slli	a4, a4, 2
   170ec:	13 05 45 01 	addi	a0, a0, 20
   170f0:	93 85 45 01 	addi	a1, a1, 20
   170f4:	b3 06 e5 00 	add	a3, a0, a4
   170f8:	b3 85 e5 00 	add	a1, a1, a4
   170fc:	93 86 c6 ff 	addi	a3, a3, -4
   17100:	93 85 c5 ff 	addi	a1, a1, -4
   17104:	03 a6 06 00 	lw	a2, 0(a3)
   17108:	03 a7 05 00 	lw	a4, 0(a1)
   1710c:	63 0c e6 00 	beq	a2, a4, 24
   17110:	93 07 f0 ff 	addi	a5, zero, -1
   17114:	63 64 e6 00 	bltu	a2, a4, 8
   17118:	93 07 10 00 	addi	a5, zero, 1
   1711c:	13 85 07 00 	mv	a0, a5
   17120:	67 80 00 00 	ret
   17124:	e3 6c d5 fc 	bltu	a0, a3, -40
   17128:	6f f0 5f ff 	j	-12

__mdiff:
   1712c:	13 01 01 fe 	addi	sp, sp, -32
   17130:	23 2a 91 00 	sw	s1, 20(sp)
   17134:	93 84 05 00 	mv	s1, a1
   17138:	23 26 31 01 	sw	s3, 12(sp)
   1713c:	93 05 06 00 	mv	a1, a2
   17140:	93 09 05 00 	mv	s3, a0
   17144:	13 85 04 00 	mv	a0, s1
   17148:	23 2c 81 00 	sw	s0, 24(sp)
   1714c:	23 2e 11 00 	sw	ra, 28(sp)
   17150:	23 28 21 01 	sw	s2, 16(sp)
   17154:	13 04 06 00 	mv	s0, a2
   17158:	ef f0 1f f8 	jal	-128
   1715c:	63 1c 05 02 	bnez	a0, 56
   17160:	93 05 00 00 	mv	a1, zero
   17164:	13 85 09 00 	mv	a0, s3
   17168:	ef f0 8f e9 	jal	-2408
   1716c:	93 07 10 00 	addi	a5, zero, 1
   17170:	23 28 f5 00 	sw	a5, 16(a0)
   17174:	23 2a 05 00 	sw	zero, 20(a0)
   17178:	83 20 c1 01 	lw	ra, 28(sp)
   1717c:	03 24 81 01 	lw	s0, 24(sp)
   17180:	83 24 41 01 	lw	s1, 20(sp)
   17184:	03 29 01 01 	lw	s2, 16(sp)
   17188:	83 29 c1 00 	lw	s3, 12(sp)
   1718c:	13 01 01 02 	addi	sp, sp, 32
   17190:	67 80 00 00 	ret
   17194:	13 09 10 00 	addi	s2, zero, 1
   17198:	63 4a 05 00 	bltz	a0, 20
   1719c:	93 07 04 00 	mv	a5, s0
   171a0:	13 09 00 00 	mv	s2, zero
   171a4:	13 84 04 00 	mv	s0, s1
   171a8:	93 84 07 00 	mv	s1, a5
   171ac:	83 25 44 00 	lw	a1, 4(s0)
   171b0:	13 85 09 00 	mv	a0, s3
   171b4:	ef f0 cf e4 	jal	-2484
   171b8:	03 23 04 01 	lw	t1, 16(s0)
   171bc:	83 a8 04 01 	lw	a7, 16(s1)
   171c0:	13 06 44 01 	addi	a2, s0, 20
   171c4:	13 1e 23 00 	slli	t3, t1, 2
   171c8:	13 88 44 01 	addi	a6, s1, 20
   171cc:	93 98 28 00 	slli	a7, a7, 2
   171d0:	b7 0e 01 00 	lui	t4, 16
   171d4:	23 26 25 01 	sw	s2, 12(a0)
   171d8:	33 0e c6 01 	add	t3, a2, t3
   171dc:	b3 08 18 01 	add	a7, a6, a7
   171e0:	93 06 45 01 	addi	a3, a0, 20
   171e4:	13 0f 00 00 	mv	t5, zero
   171e8:	93 8e fe ff 	addi	t4, t4, -1
   171ec:	03 27 06 00 	lw	a4, 0(a2)
   171f0:	83 2f 08 00 	lw	t6, 0(a6)
   171f4:	93 86 46 00 	addi	a3, a3, 4
   171f8:	b3 75 d7 01 	and	a1, a4, t4
   171fc:	b3 f7 df 01 	and	a5, t6, t4
   17200:	b3 85 e5 01 	add	a1, a1, t5
   17204:	b3 85 f5 40 	sub	a1, a1, a5
   17208:	93 df 0f 01 	srli	t6, t6, 16
   1720c:	93 57 07 01 	srli	a5, a4, 16
   17210:	b3 87 f7 41 	sub	a5, a5, t6
   17214:	13 d7 05 41 	srai	a4, a1, 16
   17218:	b3 87 e7 00 	add	a5, a5, a4
   1721c:	13 df 07 41 	srai	t5, a5, 16
   17220:	b3 f5 d5 01 	and	a1, a1, t4
   17224:	93 97 07 01 	slli	a5, a5, 16
   17228:	b3 e7 b7 00 	or	a5, a5, a1
   1722c:	13 08 48 00 	addi	a6, a6, 4
   17230:	23 ae f6 fe 	sw	a5, -4(a3)
   17234:	13 06 46 00 	addi	a2, a2, 4
   17238:	e3 6a 18 fb 	bltu	a6, a7, -76
   1723c:	b7 05 01 00 	lui	a1, 16
   17240:	93 85 f5 ff 	addi	a1, a1, -1
   17244:	63 6c c6 01 	bltu	a2, t3, 24
   17248:	93 86 c6 ff 	addi	a3, a3, -4
   1724c:	83 a7 06 00 	lw	a5, 0(a3)
   17250:	63 82 07 04 	beqz	a5, 68
   17254:	23 28 65 00 	sw	t1, 16(a0)
   17258:	6f f0 1f f2 	j	-224
   1725c:	83 27 06 00 	lw	a5, 0(a2)
   17260:	93 86 46 00 	addi	a3, a3, 4
   17264:	13 06 46 00 	addi	a2, a2, 4
   17268:	33 f7 b7 00 	and	a4, a5, a1
   1726c:	33 07 e7 01 	add	a4, a4, t5
   17270:	13 58 07 41 	srai	a6, a4, 16
   17274:	93 d7 07 01 	srli	a5, a5, 16
   17278:	b3 87 07 01 	add	a5, a5, a6
   1727c:	13 df 07 41 	srai	t5, a5, 16
   17280:	33 77 b7 00 	and	a4, a4, a1
   17284:	93 97 07 01 	slli	a5, a5, 16
   17288:	b3 e7 e7 00 	or	a5, a5, a4
   1728c:	23 ae f6 fe 	sw	a5, -4(a3)
   17290:	6f f0 5f fb 	j	-76
   17294:	13 03 f3 ff 	addi	t1, t1, -1
   17298:	6f f0 1f fb 	j	-80

__ulp:
   1729c:	b7 07 f0 7f 	lui	a5, 524032
   172a0:	b3 f5 b7 00 	and	a1, a5, a1
   172a4:	b7 07 c0 fc 	lui	a5, 1035264
   172a8:	b3 85 f5 00 	add	a1, a1, a5
   172ac:	63 58 b0 00 	blez	a1, 16
   172b0:	93 07 00 00 	mv	a5, zero
   172b4:	13 85 07 00 	mv	a0, a5
   172b8:	67 80 00 00 	ret
   172bc:	b3 05 b0 40 	neg	a1, a1
   172c0:	93 d7 45 41 	srai	a5, a1, 20
   172c4:	13 07 30 01 	addi	a4, zero, 19
   172c8:	63 48 f7 00 	blt	a4, a5, 16
   172cc:	b7 05 08 00 	lui	a1, 128
   172d0:	b3 d5 f5 40 	sra	a1, a1, a5
   172d4:	6f f0 df fd 	j	-36
   172d8:	13 87 c7 fe 	addi	a4, a5, -20
   172dc:	93 06 e0 01 	addi	a3, zero, 30
   172e0:	93 05 00 00 	mv	a1, zero
   172e4:	93 07 10 00 	addi	a5, zero, 1
   172e8:	e3 c6 e6 fc 	blt	a3, a4, -52
   172ec:	b7 07 00 80 	lui	a5, 524288
   172f0:	b3 d7 e7 00 	srl	a5, a5, a4
   172f4:	6f f0 1f fc 	j	-64

__b2d:
   172f8:	13 01 01 fd 	addi	sp, sp, -48
   172fc:	23 22 91 02 	sw	s1, 36(sp)
   17300:	83 24 05 01 	lw	s1, 16(a0)
   17304:	23 2e 31 01 	sw	s3, 28(sp)
   17308:	93 09 45 01 	addi	s3, a0, 20
   1730c:	93 94 24 00 	slli	s1, s1, 2
   17310:	b3 84 99 00 	add	s1, s3, s1
   17314:	23 24 81 02 	sw	s0, 40(sp)
   17318:	03 a4 c4 ff 	lw	s0, -4(s1)
   1731c:	23 20 21 03 	sw	s2, 32(sp)
   17320:	23 26 b1 00 	sw	a1, 12(sp)
   17324:	13 05 04 00 	mv	a0, s0
   17328:	23 26 11 02 	sw	ra, 44(sp)
   1732c:	ef f0 cf fd 	jal	-2084
   17330:	83 25 c1 00 	lw	a1, 12(sp)
   17334:	93 07 00 02 	addi	a5, zero, 32
   17338:	b3 87 a7 40 	sub	a5, a5, a0
   1733c:	23 a0 f5 00 	sw	a5, 0(a1)
   17340:	93 07 a0 00 	addi	a5, zero, 10
   17344:	13 89 c4 ff 	addi	s2, s1, -4
   17348:	63 cc a7 04 	blt	a5, a0, 88
   1734c:	93 07 b0 00 	addi	a5, zero, 11
   17350:	b3 87 a7 40 	sub	a5, a5, a0
   17354:	37 07 f0 3f 	lui	a4, 261888
   17358:	b3 56 f4 00 	srl	a3, s0, a5
   1735c:	b3 e6 e6 00 	or	a3, a3, a4
   17360:	13 07 00 00 	mv	a4, zero
   17364:	63 f4 29 01 	bgeu	s3, s2, 8
   17368:	03 a7 84 ff 	lw	a4, -8(s1)
   1736c:	13 05 55 01 	addi	a0, a0, 21
   17370:	33 15 a4 00 	sll	a0, s0, a0
   17374:	b3 57 f7 00 	srl	a5, a4, a5
   17378:	b3 67 f5 00 	or	a5, a0, a5
   1737c:	83 20 c1 02 	lw	ra, 44(sp)
   17380:	03 24 81 02 	lw	s0, 40(sp)
   17384:	83 24 41 02 	lw	s1, 36(sp)
   17388:	03 29 01 02 	lw	s2, 32(sp)
   1738c:	83 29 c1 01 	lw	s3, 28(sp)
   17390:	13 85 07 00 	mv	a0, a5
   17394:	93 85 06 00 	mv	a1, a3
   17398:	13 01 01 03 	addi	sp, sp, 48
   1739c:	67 80 00 00 	ret
   173a0:	93 07 00 00 	mv	a5, zero
   173a4:	63 f6 29 01 	bgeu	s3, s2, 12
   173a8:	83 a7 84 ff 	lw	a5, -8(s1)
   173ac:	13 89 84 ff 	addi	s2, s1, -8
   173b0:	13 05 55 ff 	addi	a0, a0, -11
   173b4:	63 0e 05 02 	beqz	a0, 60
   173b8:	13 07 00 02 	addi	a4, zero, 32
   173bc:	33 06 a7 40 	sub	a2, a4, a0
   173c0:	33 d7 c7 00 	srl	a4, a5, a2
   173c4:	33 14 a4 00 	sll	s0, s0, a0
   173c8:	33 64 e4 00 	or	s0, s0, a4
   173cc:	b7 06 f0 3f 	lui	a3, 261888
   173d0:	b3 66 d4 00 	or	a3, s0, a3
   173d4:	13 07 00 00 	mv	a4, zero
   173d8:	63 f4 29 01 	bgeu	s3, s2, 8
   173dc:	03 27 c9 ff 	lw	a4, -4(s2)
   173e0:	b3 97 a7 00 	sll	a5, a5, a0
   173e4:	33 57 c7 00 	srl	a4, a4, a2
   173e8:	b3 e7 e7 00 	or	a5, a5, a4
   173ec:	6f f0 1f f9 	j	-112
   173f0:	b7 06 f0 3f 	lui	a3, 261888
   173f4:	b3 66 d4 00 	or	a3, s0, a3
   173f8:	6f f0 5f f8 	j	-124

__d2b:
   173fc:	13 01 01 fd 	addi	sp, sp, -48
   17400:	23 24 81 02 	sw	s0, 40(sp)
   17404:	13 84 05 00 	mv	s0, a1
   17408:	93 05 10 00 	addi	a1, zero, 1
   1740c:	23 22 91 02 	sw	s1, 36(sp)
   17410:	23 20 21 03 	sw	s2, 32(sp)
   17414:	93 04 06 00 	mv	s1, a2
   17418:	23 2e 31 01 	sw	s3, 28(sp)
   1741c:	23 2c 41 01 	sw	s4, 24(sp)
   17420:	13 09 07 00 	mv	s2, a4
   17424:	23 26 11 02 	sw	ra, 44(sp)
   17428:	13 8a 06 00 	mv	s4, a3
   1742c:	ef f0 4f bd 	jal	-3116
   17430:	37 07 10 00 	lui	a4, 256
   17434:	93 07 f7 ff 	addi	a5, a4, -1
   17438:	b3 f7 97 00 	and	a5, a5, s1
   1743c:	93 d4 44 01 	srli	s1, s1, 20
   17440:	93 f4 f4 7f 	andi	s1, s1, 2047
   17444:	93 09 05 00 	mv	s3, a0
   17448:	63 9a 04 08 	bnez	s1, 148
   1744c:	23 26 f1 00 	sw	a5, 12(sp)
   17450:	63 0e 04 08 	beqz	s0, 156
   17454:	13 05 81 00 	addi	a0, sp, 8
   17458:	23 24 81 00 	sw	s0, 8(sp)
   1745c:	ef f0 cf f1 	jal	-2276
   17460:	83 26 81 00 	lw	a3, 8(sp)
   17464:	63 00 05 08 	beqz	a0, 128
   17468:	03 27 c1 00 	lw	a4, 12(sp)
   1746c:	93 07 00 02 	addi	a5, zero, 32
   17470:	b3 87 a7 40 	sub	a5, a5, a0
   17474:	b3 17 f7 00 	sll	a5, a4, a5
   17478:	b3 e7 d7 00 	or	a5, a5, a3
   1747c:	33 57 a7 00 	srl	a4, a4, a0
   17480:	23 aa f9 00 	sw	a5, 20(s3)
   17484:	23 26 e1 00 	sw	a4, 12(sp)
   17488:	03 24 c1 00 	lw	s0, 12(sp)
   1748c:	23 ac 89 00 	sw	s0, 24(s3)
   17490:	33 34 80 00 	snez	s0, s0
   17494:	13 04 14 00 	addi	s0, s0, 1
   17498:	23 a8 89 00 	sw	s0, 16(s3)
   1749c:	63 8a 04 06 	beqz	s1, 116
   174a0:	93 84 d4 bc 	addi	s1, s1, -1075
   174a4:	b3 84 a4 00 	add	s1, s1, a0
   174a8:	93 07 50 03 	addi	a5, zero, 53
   174ac:	23 20 9a 00 	sw	s1, 0(s4)
   174b0:	33 85 a7 40 	sub	a0, a5, a0
   174b4:	23 20 a9 00 	sw	a0, 0(s2)
   174b8:	83 20 c1 02 	lw	ra, 44(sp)
   174bc:	03 24 81 02 	lw	s0, 40(sp)
   174c0:	13 85 09 00 	mv	a0, s3
   174c4:	83 24 41 02 	lw	s1, 36(sp)
   174c8:	03 29 01 02 	lw	s2, 32(sp)
   174cc:	83 29 c1 01 	lw	s3, 28(sp)
   174d0:	03 2a 81 01 	lw	s4, 24(sp)
   174d4:	13 01 01 03 	addi	sp, sp, 48
   174d8:	67 80 00 00 	ret
   174dc:	b3 e7 e7 00 	or	a5, a5, a4
   174e0:	6f f0 df f6 	j	-148
   174e4:	23 aa d9 00 	sw	a3, 20(s3)
   174e8:	6f f0 1f fa 	j	-96
   174ec:	13 05 c1 00 	addi	a0, sp, 12
   174f0:	ef f0 8f e8 	jal	-2424
   174f4:	83 27 c1 00 	lw	a5, 12(sp)
   174f8:	13 05 05 02 	addi	a0, a0, 32
   174fc:	13 04 10 00 	addi	s0, zero, 1
   17500:	23 aa f9 00 	sw	a5, 20(s3)
   17504:	93 07 10 00 	addi	a5, zero, 1
   17508:	23 a8 f9 00 	sw	a5, 16(s3)
   1750c:	6f f0 1f f9 	j	-112
   17510:	93 17 24 00 	slli	a5, s0, 2
   17514:	13 05 e5 bc 	addi	a0, a0, -1074
   17518:	b3 87 f9 00 	add	a5, s3, a5
   1751c:	23 20 aa 00 	sw	a0, 0(s4)
   17520:	03 a5 07 01 	lw	a0, 16(a5)
   17524:	13 14 54 00 	slli	s0, s0, 5
   17528:	ef f0 0f de 	jal	-2592
   1752c:	33 04 a4 40 	sub	s0, s0, a0
   17530:	23 20 89 00 	sw	s0, 0(s2)
   17534:	6f f0 5f f8 	j	-124

__ratio:
   17538:	13 01 01 fd 	addi	sp, sp, -48
   1753c:	23 20 21 03 	sw	s2, 32(sp)
   17540:	13 89 05 00 	mv	s2, a1
   17544:	93 05 81 00 	addi	a1, sp, 8
   17548:	23 26 11 02 	sw	ra, 44(sp)
   1754c:	23 24 81 02 	sw	s0, 40(sp)
   17550:	23 22 91 02 	sw	s1, 36(sp)
   17554:	23 2e 31 01 	sw	s3, 28(sp)
   17558:	23 2c 41 01 	sw	s4, 24(sp)
   1755c:	13 0a 05 00 	mv	s4, a0
   17560:	ef f0 9f d9 	jal	-616
   17564:	93 09 05 00 	mv	s3, a0
   17568:	93 84 05 00 	mv	s1, a1
   1756c:	13 84 05 00 	mv	s0, a1
   17570:	13 05 09 00 	mv	a0, s2
   17574:	93 05 c1 00 	addi	a1, sp, 12
   17578:	ef f0 1f d8 	jal	-640
   1757c:	83 27 09 01 	lw	a5, 16(s2)
   17580:	03 27 0a 01 	lw	a4, 16(s4)
   17584:	83 26 81 00 	lw	a3, 8(sp)
   17588:	33 07 f7 40 	sub	a4, a4, a5
   1758c:	83 27 c1 00 	lw	a5, 12(sp)
   17590:	13 17 57 00 	slli	a4, a4, 5
   17594:	b3 86 f6 40 	sub	a3, a3, a5
   17598:	b3 07 d7 00 	add	a5, a4, a3
   1759c:	63 54 f0 04 	blez	a5, 72
   175a0:	93 97 47 01 	slli	a5, a5, 20
   175a4:	13 86 05 00 	mv	a2, a1
   175a8:	33 84 97 00 	add	s0, a5, s1
   175ac:	13 07 06 00 	mv	a4, a2
   175b0:	93 05 04 00 	mv	a1, s0
   175b4:	13 06 05 00 	mv	a2, a0
   175b8:	93 06 07 00 	mv	a3, a4
   175bc:	13 85 09 00 	mv	a0, s3
   175c0:	ef 60 00 46 	jal	25696
   175c4:	83 20 c1 02 	lw	ra, 44(sp)
   175c8:	03 24 81 02 	lw	s0, 40(sp)
   175cc:	83 24 41 02 	lw	s1, 36(sp)
   175d0:	03 29 01 02 	lw	s2, 32(sp)
   175d4:	83 29 c1 01 	lw	s3, 28(sp)
   175d8:	03 2a 81 01 	lw	s4, 24(sp)
   175dc:	13 01 01 03 	addi	sp, sp, 48
   175e0:	67 80 00 00 	ret
   175e4:	93 97 47 01 	slli	a5, a5, 20
   175e8:	33 86 f5 40 	sub	a2, a1, a5
   175ec:	6f f0 1f fc 	j	-64

_mprec_log10:
   175f0:	13 01 01 ff 	addi	sp, sp, -16
   175f4:	23 24 81 00 	sw	s0, 8(sp)
   175f8:	23 26 11 00 	sw	ra, 12(sp)
   175fc:	23 22 21 01 	sw	s2, 4(sp)
   17600:	23 20 31 01 	sw	s3, 0(sp)
   17604:	93 07 70 01 	addi	a5, zero, 23
   17608:	13 04 05 00 	mv	s0, a0
   1760c:	63 ca a7 02 	blt	a5, a0, 52
   17610:	b7 27 02 00 	lui	a5, 34
   17614:	13 14 35 00 	slli	s0, a0, 3
   17618:	93 87 87 27 	addi	a5, a5, 632
   1761c:	33 84 87 00 	add	s0, a5, s0
   17620:	03 25 04 01 	lw	a0, 16(s0)
   17624:	83 25 44 01 	lw	a1, 20(s0)
   17628:	83 20 c1 00 	lw	ra, 12(sp)
   1762c:	03 24 81 00 	lw	s0, 8(sp)
   17630:	03 29 41 00 	lw	s2, 4(sp)
   17634:	83 29 01 00 	lw	s3, 0(sp)
   17638:	13 01 01 01 	addi	sp, sp, 16
   1763c:	67 80 00 00 	ret
   17640:	b7 47 02 00 	lui	a5, 36
   17644:	03 a5 07 a6 	lw	a0, -1440(a5)
   17648:	83 a5 47 a6 	lw	a1, -1436(a5)
   1764c:	b7 47 02 00 	lui	a5, 36
   17650:	03 a9 87 a6 	lw	s2, -1432(a5)
   17654:	83 a9 c7 a6 	lw	s3, -1428(a5)
   17658:	13 06 09 00 	mv	a2, s2
   1765c:	93 86 09 00 	mv	a3, s3
   17660:	13 04 f4 ff 	addi	s0, s0, -1
   17664:	ef 60 90 38 	jal	27528
   17668:	e3 18 04 fe 	bnez	s0, -16
   1766c:	6f f0 df fb 	j	-68

__copybits:
   17670:	93 87 f5 ff 	addi	a5, a1, -1
   17674:	03 27 06 01 	lw	a4, 16(a2)
   17678:	93 d7 57 40 	srai	a5, a5, 5
   1767c:	93 87 17 00 	addi	a5, a5, 1
   17680:	93 97 27 00 	slli	a5, a5, 2
   17684:	93 06 46 01 	addi	a3, a2, 20
   17688:	13 17 27 00 	slli	a4, a4, 2
   1768c:	b3 07 f5 00 	add	a5, a0, a5
   17690:	33 87 e6 00 	add	a4, a3, a4
   17694:	63 e6 e6 00 	bltu	a3, a4, 12
   17698:	63 6e f5 00 	bltu	a0, a5, 28
   1769c:	67 80 00 00 	ret
   176a0:	93 86 46 00 	addi	a3, a3, 4
   176a4:	03 a6 c6 ff 	lw	a2, -4(a3)
   176a8:	13 05 45 00 	addi	a0, a0, 4
   176ac:	23 2e c5 fe 	sw	a2, -4(a0)
   176b0:	6f f0 5f fe 	j	-28
   176b4:	13 05 45 00 	addi	a0, a0, 4
   176b8:	23 2e 05 fe 	sw	zero, -4(a0)
   176bc:	6f f0 df fd 	j	-36

__any_on:
   176c0:	83 26 05 01 	lw	a3, 16(a0)
   176c4:	93 d7 55 40 	srai	a5, a1, 5
   176c8:	13 07 45 01 	addi	a4, a0, 20
   176cc:	63 c0 f6 04 	blt	a3, a5, 64
   176d0:	63 d4 d7 02 	bge	a5, a3, 40
   176d4:	93 f5 f5 01 	andi	a1, a1, 31
   176d8:	63 80 05 02 	beqz	a1, 32
   176dc:	93 96 27 00 	slli	a3, a5, 2
   176e0:	b3 06 d7 00 	add	a3, a4, a3
   176e4:	03 a6 06 00 	lw	a2, 0(a3)
   176e8:	13 05 10 00 	addi	a0, zero, 1
   176ec:	b3 56 b6 00 	srl	a3, a2, a1
   176f0:	b3 95 b6 00 	sll	a1, a3, a1
   176f4:	63 18 b6 02 	bne	a2, a1, 48
   176f8:	93 97 27 00 	slli	a5, a5, 2
   176fc:	b3 07 f7 00 	add	a5, a4, a5
   17700:	63 6a f7 00 	bltu	a4, a5, 20
   17704:	13 05 00 00 	mv	a0, zero
   17708:	67 80 00 00 	ret
   1770c:	93 87 06 00 	mv	a5, a3
   17710:	6f f0 9f fe 	j	-24
   17714:	93 87 c7 ff 	addi	a5, a5, -4
   17718:	83 a6 07 00 	lw	a3, 0(a5)
   1771c:	e3 82 06 fe 	beqz	a3, -28
   17720:	13 05 10 00 	addi	a0, zero, 1
   17724:	67 80 00 00 	ret

cleanup_glue:
   17728:	13 01 01 ff 	addi	sp, sp, -16
   1772c:	23 24 81 00 	sw	s0, 8(sp)
   17730:	13 84 05 00 	mv	s0, a1
   17734:	83 a5 05 00 	lw	a1, 0(a1)
   17738:	23 22 91 00 	sw	s1, 4(sp)
   1773c:	23 26 11 00 	sw	ra, 12(sp)
   17740:	93 04 05 00 	mv	s1, a0
   17744:	63 84 05 00 	beqz	a1, 8
   17748:	ef f0 1f fe 	jal	-32
   1774c:	93 05 04 00 	mv	a1, s0
   17750:	03 24 81 00 	lw	s0, 8(sp)
   17754:	83 20 c1 00 	lw	ra, 12(sp)
   17758:	13 85 04 00 	mv	a0, s1
   1775c:	83 24 41 00 	lw	s1, 4(sp)
   17760:	13 01 01 01 	addi	sp, sp, 16
   17764:	6f c0 1f b6 	j	-13472

_reclaim_reent:
   17768:	83 a7 01 1c 	lw	a5, 448(gp)
   1776c:	63 84 a7 10 	beq	a5, a0, 264
   17770:	83 27 c5 04 	lw	a5, 76(a0)
   17774:	13 01 01 fe 	addi	sp, sp, -32
   17778:	23 2c 81 00 	sw	s0, 24(sp)
   1777c:	23 2a 91 00 	sw	s1, 20(sp)
   17780:	23 28 21 01 	sw	s2, 16(sp)
   17784:	23 2e 11 00 	sw	ra, 28(sp)
   17788:	23 26 31 01 	sw	s3, 12(sp)
   1778c:	13 04 05 00 	mv	s0, a0
   17790:	93 04 00 00 	mv	s1, zero
   17794:	13 09 00 08 	addi	s2, zero, 128
   17798:	63 9a 07 06 	bnez	a5, 116
   1779c:	83 25 04 04 	lw	a1, 64(s0)
   177a0:	63 86 05 00 	beqz	a1, 12
   177a4:	13 05 04 00 	mv	a0, s0
   177a8:	ef c0 df b1 	jal	-13540
   177ac:	83 25 84 14 	lw	a1, 328(s0)
   177b0:	93 04 c4 14 	addi	s1, s0, 332
   177b4:	63 90 05 08 	bnez	a1, 128
   177b8:	83 25 44 05 	lw	a1, 84(s0)
   177bc:	63 98 05 08 	bnez	a1, 144
   177c0:	83 27 84 03 	lw	a5, 56(s0)
   177c4:	63 8a 07 08 	beqz	a5, 148
   177c8:	83 27 c4 03 	lw	a5, 60(s0)
   177cc:	13 05 04 00 	mv	a0, s0
   177d0:	e7 80 07 00 	jalr	a5
   177d4:	83 25 04 2e 	lw	a1, 736(s0)
   177d8:	63 80 05 08 	beqz	a1, 128
   177dc:	13 05 04 00 	mv	a0, s0
   177e0:	03 24 81 01 	lw	s0, 24(sp)
   177e4:	83 20 c1 01 	lw	ra, 28(sp)
   177e8:	83 24 41 01 	lw	s1, 20(sp)
   177ec:	03 29 01 01 	lw	s2, 16(sp)
   177f0:	83 29 c1 00 	lw	s3, 12(sp)
   177f4:	13 01 01 02 	addi	sp, sp, 32
   177f8:	6f f0 1f f3 	j	-208
   177fc:	b3 85 95 00 	add	a1, a1, s1
   17800:	83 a5 05 00 	lw	a1, 0(a1)
   17804:	63 9e 05 00 	bnez	a1, 28
   17808:	93 84 44 00 	addi	s1, s1, 4
   1780c:	83 25 c4 04 	lw	a1, 76(s0)
   17810:	e3 96 24 ff 	bne	s1, s2, -20
   17814:	13 05 04 00 	mv	a0, s0
   17818:	ef c0 df aa 	jal	-13652
   1781c:	6f f0 1f f8 	j	-128
   17820:	83 a9 05 00 	lw	s3, 0(a1)
   17824:	13 05 04 00 	mv	a0, s0
   17828:	ef c0 df a9 	jal	-13668
   1782c:	93 85 09 00 	mv	a1, s3
   17830:	6f f0 5f fd 	j	-44
   17834:	e3 82 95 f8 	beq	a1, s1, -124
   17838:	03 a9 05 00 	lw	s2, 0(a1)
   1783c:	13 05 04 00 	mv	a0, s0
   17840:	ef c0 5f a8 	jal	-13692
   17844:	93 05 09 00 	mv	a1, s2
   17848:	6f f0 df fe 	j	-20
   1784c:	13 05 04 00 	mv	a0, s0
   17850:	ef c0 5f a7 	jal	-13708
   17854:	6f f0 df f6 	j	-148
   17858:	83 20 c1 01 	lw	ra, 28(sp)
   1785c:	03 24 81 01 	lw	s0, 24(sp)
   17860:	83 24 41 01 	lw	s1, 20(sp)
   17864:	03 29 01 01 	lw	s2, 16(sp)
   17868:	83 29 c1 00 	lw	s3, 12(sp)
   1786c:	13 01 01 02 	addi	sp, sp, 32
   17870:	67 80 00 00 	ret
   17874:	67 80 00 00 	ret

frexp:
   17878:	13 01 01 ff 	addi	sp, sp, -16
   1787c:	23 22 91 00 	sw	s1, 4(sp)
   17880:	b7 04 00 80 	lui	s1, 524288
   17884:	23 24 81 00 	sw	s0, 8(sp)
   17888:	23 26 11 00 	sw	ra, 12(sp)
   1788c:	93 c4 f4 ff 	not	s1, s1
   17890:	33 f7 b4 00 	and	a4, s1, a1
   17894:	23 20 06 00 	sw	zero, 0(a2)
   17898:	37 08 f0 7f 	lui	a6, 524032
   1789c:	93 06 05 00 	mv	a3, a0
   178a0:	93 87 05 00 	mv	a5, a1
   178a4:	13 04 06 00 	mv	s0, a2
   178a8:	63 52 07 07 	bge	a4, a6, 100
   178ac:	b3 68 a7 00 	or	a7, a4, a0
   178b0:	63 8e 08 04 	beqz	a7, 92
   178b4:	33 f8 05 01 	and	a6, a1, a6
   178b8:	13 86 05 00 	mv	a2, a1
   178bc:	63 14 08 02 	bnez	a6, 40
   178c0:	b7 47 02 00 	lui	a5, 36
   178c4:	03 a6 07 a7 	lw	a2, -1424(a5)
   178c8:	83 a6 47 a7 	lw	a3, -1420(a5)
   178cc:	ef 60 10 12 	jal	26912
   178d0:	93 07 a0 fc 	addi	a5, zero, -54
   178d4:	93 06 05 00 	mv	a3, a0
   178d8:	13 86 05 00 	mv	a2, a1
   178dc:	33 f7 b4 00 	and	a4, s1, a1
   178e0:	23 20 f4 00 	sw	a5, 0(s0)
   178e4:	83 27 04 00 	lw	a5, 0(s0)
   178e8:	13 57 47 41 	srai	a4, a4, 20
   178ec:	13 07 27 c0 	addi	a4, a4, -1022
   178f0:	33 87 e7 00 	add	a4, a5, a4
   178f4:	b7 07 10 80 	lui	a5, 524544
   178f8:	93 87 f7 ff 	addi	a5, a5, -1
   178fc:	33 76 f6 00 	and	a2, a2, a5
   17900:	b7 07 e0 3f 	lui	a5, 261632
   17904:	23 20 e4 00 	sw	a4, 0(s0)
   17908:	b3 67 f6 00 	or	a5, a2, a5
   1790c:	83 20 c1 00 	lw	ra, 12(sp)
   17910:	03 24 81 00 	lw	s0, 8(sp)
   17914:	83 24 41 00 	lw	s1, 4(sp)
   17918:	13 85 06 00 	mv	a0, a3
   1791c:	93 85 07 00 	mv	a1, a5
   17920:	13 01 01 01 	addi	sp, sp, 16
   17924:	67 80 00 00 	ret

_sprintf_r:
   17928:	13 01 01 f6 	addi	sp, sp, -160
   1792c:	23 2a f1 08 	sw	a5, 148(sp)
   17930:	b7 07 00 80 	lui	a5, 524288
   17934:	93 c7 f7 ff 	not	a5, a5
   17938:	23 2e f1 00 	sw	a5, 28(sp)
   1793c:	23 28 f1 00 	sw	a5, 16(sp)
   17940:	b7 07 ff ff 	lui	a5, 1048560
   17944:	23 26 d1 08 	sw	a3, 140(sp)
   17948:	23 24 b1 00 	sw	a1, 8(sp)
   1794c:	23 2c b1 00 	sw	a1, 24(sp)
   17950:	93 87 87 20 	addi	a5, a5, 520
   17954:	93 06 c1 08 	addi	a3, sp, 140
   17958:	93 05 81 00 	addi	a1, sp, 8
   1795c:	23 2e 11 06 	sw	ra, 124(sp)
   17960:	23 2a f1 00 	sw	a5, 20(sp)
   17964:	23 28 e1 08 	sw	a4, 144(sp)
   17968:	23 2c 01 09 	sw	a6, 152(sp)
   1796c:	23 2e 11 09 	sw	a7, 156(sp)
   17970:	23 22 d1 00 	sw	a3, 4(sp)
   17974:	ef 00 40 23 	jal	564
   17978:	83 27 81 00 	lw	a5, 8(sp)
   1797c:	23 80 07 00 	sb	zero, 0(a5)
   17980:	83 20 c1 07 	lw	ra, 124(sp)
   17984:	13 01 01 0a 	addi	sp, sp, 160
   17988:	67 80 00 00 	ret

sprintf:
   1798c:	13 01 01 f6 	addi	sp, sp, -160
   17990:	23 2a f1 08 	sw	a5, 148(sp)
   17994:	b7 07 00 80 	lui	a5, 524288
   17998:	93 c7 f7 ff 	not	a5, a5
   1799c:	23 2e f1 00 	sw	a5, 28(sp)
   179a0:	23 28 f1 00 	sw	a5, 16(sp)
   179a4:	b7 07 ff ff 	lui	a5, 1048560
   179a8:	93 87 87 20 	addi	a5, a5, 520
   179ac:	23 2a f1 00 	sw	a5, 20(sp)
   179b0:	23 24 a1 00 	sw	a0, 8(sp)
   179b4:	23 2c a1 00 	sw	a0, 24(sp)
   179b8:	03 a5 01 1c 	lw	a0, 448(gp)
   179bc:	23 24 c1 08 	sw	a2, 136(sp)
   179c0:	23 26 d1 08 	sw	a3, 140(sp)
   179c4:	13 86 05 00 	mv	a2, a1
   179c8:	93 06 81 08 	addi	a3, sp, 136
   179cc:	93 05 81 00 	addi	a1, sp, 8
   179d0:	23 2e 11 06 	sw	ra, 124(sp)
   179d4:	23 28 e1 08 	sw	a4, 144(sp)
   179d8:	23 2c 01 09 	sw	a6, 152(sp)
   179dc:	23 2e 11 09 	sw	a7, 156(sp)
   179e0:	23 22 d1 00 	sw	a3, 4(sp)
   179e4:	ef 00 40 1c 	jal	452
   179e8:	83 27 81 00 	lw	a5, 8(sp)
   179ec:	23 80 07 00 	sb	zero, 0(a5)
   179f0:	83 20 c1 07 	lw	ra, 124(sp)
   179f4:	13 01 01 0a 	addi	sp, sp, 160
   179f8:	67 80 00 00 	ret

__sread:
   179fc:	13 01 01 ff 	addi	sp, sp, -16
   17a00:	23 24 81 00 	sw	s0, 8(sp)
   17a04:	13 84 05 00 	mv	s0, a1
   17a08:	83 95 e5 00 	lh	a1, 14(a1)
   17a0c:	23 26 11 00 	sw	ra, 12(sp)
   17a10:	ef 30 50 2b 	jal	15028
   17a14:	63 40 05 02 	bltz	a0, 32
   17a18:	83 27 04 05 	lw	a5, 80(s0)
   17a1c:	b3 87 a7 00 	add	a5, a5, a0
   17a20:	23 28 f4 04 	sw	a5, 80(s0)
   17a24:	83 20 c1 00 	lw	ra, 12(sp)
   17a28:	03 24 81 00 	lw	s0, 8(sp)
   17a2c:	13 01 01 01 	addi	sp, sp, 16
   17a30:	67 80 00 00 	ret
   17a34:	83 57 c4 00 	lhu	a5, 12(s0)
   17a38:	37 f7 ff ff 	lui	a4, 1048575
   17a3c:	13 07 f7 ff 	addi	a4, a4, -1
   17a40:	b3 f7 e7 00 	and	a5, a5, a4
   17a44:	23 16 f4 00 	sh	a5, 12(s0)
   17a48:	6f f0 df fd 	j	-36

__seofread:
   17a4c:	13 05 00 00 	mv	a0, zero
   17a50:	67 80 00 00 	ret

__swrite:
   17a54:	83 d7 c5 00 	lhu	a5, 12(a1)
   17a58:	13 01 01 fe 	addi	sp, sp, -32
   17a5c:	23 2c 81 00 	sw	s0, 24(sp)
   17a60:	23 2a 91 00 	sw	s1, 20(sp)
   17a64:	23 28 21 01 	sw	s2, 16(sp)
   17a68:	23 26 31 01 	sw	s3, 12(sp)
   17a6c:	23 2e 11 00 	sw	ra, 28(sp)
   17a70:	93 f7 07 10 	andi	a5, a5, 256
   17a74:	93 04 05 00 	mv	s1, a0
   17a78:	13 84 05 00 	mv	s0, a1
   17a7c:	13 09 06 00 	mv	s2, a2
   17a80:	93 89 06 00 	mv	s3, a3
   17a84:	63 8a 07 00 	beqz	a5, 20
   17a88:	83 95 e5 00 	lh	a1, 14(a1)
   17a8c:	93 06 20 00 	addi	a3, zero, 2
   17a90:	13 06 00 00 	mv	a2, zero
   17a94:	ef 30 90 03 	jal	14392
   17a98:	83 57 c4 00 	lhu	a5, 12(s0)
   17a9c:	37 f7 ff ff 	lui	a4, 1048575
   17aa0:	13 07 f7 ff 	addi	a4, a4, -1
   17aa4:	b3 f7 e7 00 	and	a5, a5, a4
   17aa8:	23 16 f4 00 	sh	a5, 12(s0)
   17aac:	83 15 e4 00 	lh	a1, 14(s0)
   17ab0:	03 24 81 01 	lw	s0, 24(sp)
   17ab4:	83 20 c1 01 	lw	ra, 28(sp)
   17ab8:	93 86 09 00 	mv	a3, s3
   17abc:	13 06 09 00 	mv	a2, s2
   17ac0:	83 29 c1 00 	lw	s3, 12(sp)
   17ac4:	03 29 01 01 	lw	s2, 16(sp)
   17ac8:	13 85 04 00 	mv	a0, s1
   17acc:	83 24 41 01 	lw	s1, 20(sp)
   17ad0:	13 01 01 02 	addi	sp, sp, 32
   17ad4:	6f 20 10 68 	j	11904

__sseek:
   17ad8:	13 01 01 ff 	addi	sp, sp, -16
   17adc:	23 24 81 00 	sw	s0, 8(sp)
   17ae0:	13 84 05 00 	mv	s0, a1
   17ae4:	83 95 e5 00 	lh	a1, 14(a1)
   17ae8:	23 26 11 00 	sw	ra, 12(sp)
   17aec:	ef 30 00 7e 	jal	14304
   17af0:	93 07 f0 ff 	addi	a5, zero, -1
   17af4:	03 57 c4 00 	lhu	a4, 12(s0)
   17af8:	63 12 f5 02 	bne	a0, a5, 36
   17afc:	b7 f7 ff ff 	lui	a5, 1048575
   17b00:	93 87 f7 ff 	addi	a5, a5, -1
   17b04:	b3 f7 e7 00 	and	a5, a5, a4
   17b08:	23 16 f4 00 	sh	a5, 12(s0)
   17b0c:	83 20 c1 00 	lw	ra, 12(sp)
   17b10:	03 24 81 00 	lw	s0, 8(sp)
   17b14:	13 01 01 01 	addi	sp, sp, 16
   17b18:	67 80 00 00 	ret
   17b1c:	b7 17 00 00 	lui	a5, 1
   17b20:	b3 67 f7 00 	or	a5, a4, a5
   17b24:	23 16 f4 00 	sh	a5, 12(s0)
   17b28:	23 28 a4 04 	sw	a0, 80(s0)
   17b2c:	6f f0 1f fe 	j	-32

__sclose:
   17b30:	83 95 e5 00 	lh	a1, 14(a1)
   17b34:	6f 20 10 72 	j	12064

strcpy:
   17b38:	93 07 05 00 	mv	a5, a0
   17b3c:	03 c7 05 00 	lbu	a4, 0(a1)
   17b40:	93 87 17 00 	addi	a5, a5, 1
   17b44:	93 85 15 00 	addi	a1, a1, 1
   17b48:	a3 8f e7 fe 	sb	a4, -1(a5)
   17b4c:	e3 18 07 fe 	bnez	a4, -16
   17b50:	67 80 00 00 	ret

strlen:
   17b54:	93 07 05 00 	mv	a5, a0
   17b58:	93 87 17 00 	addi	a5, a5, 1
   17b5c:	03 c7 f7 ff 	lbu	a4, -1(a5)
   17b60:	e3 1c 07 fe 	bnez	a4, -8
   17b64:	33 85 a7 40 	sub	a0, a5, a0
   17b68:	13 05 f5 ff 	addi	a0, a0, -1
   17b6c:	67 80 00 00 	ret

strncpy:
   17b70:	93 07 05 00 	mv	a5, a0
   17b74:	63 0e 06 00 	beqz	a2, 28
   17b78:	93 85 15 00 	addi	a1, a1, 1
   17b7c:	03 c7 f5 ff 	lbu	a4, -1(a1)
   17b80:	93 87 17 00 	addi	a5, a5, 1
   17b84:	13 06 f6 ff 	addi	a2, a2, -1
   17b88:	a3 8f e7 fe 	sb	a4, -1(a5)
   17b8c:	e3 14 07 fe 	bnez	a4, -24
   17b90:	33 86 c7 00 	add	a2, a5, a2
   17b94:	63 94 c7 00 	bne	a5, a2, 8
   17b98:	67 80 00 00 	ret
   17b9c:	93 87 17 00 	addi	a5, a5, 1
   17ba0:	a3 8f 07 fe 	sb	zero, -1(a5)
   17ba4:	6f f0 1f ff 	j	-16

_svfprintf_r:
   17ba8:	13 01 01 e2 	addi	sp, sp, -480
   17bac:	23 2e 11 1c 	sw	ra, 476(sp)
   17bb0:	23 2a 91 1c 	sw	s1, 468(sp)
   17bb4:	23 28 21 1d 	sw	s2, 464(sp)
   17bb8:	23 26 31 1d 	sw	s3, 460(sp)
   17bbc:	23 22 51 1d 	sw	s5, 452(sp)
   17bc0:	93 89 05 00 	mv	s3, a1
   17bc4:	93 04 06 00 	mv	s1, a2
   17bc8:	93 8a 06 00 	mv	s5, a3
   17bcc:	23 2c 81 1c 	sw	s0, 472(sp)
   17bd0:	23 24 41 1d 	sw	s4, 456(sp)
   17bd4:	23 20 61 1d 	sw	s6, 448(sp)
   17bd8:	23 2e 71 1b 	sw	s7, 444(sp)
   17bdc:	23 2c 81 1b 	sw	s8, 440(sp)
   17be0:	23 2a 91 1b 	sw	s9, 436(sp)
   17be4:	23 28 a1 1b 	sw	s10, 432(sp)
   17be8:	23 26 b1 1b 	sw	s11, 428(sp)
   17bec:	13 09 05 00 	mv	s2, a0
   17bf0:	ef e0 1f a3 	jal	-5584
   17bf4:	83 27 05 00 	lw	a5, 0(a0)
   17bf8:	13 85 07 00 	mv	a0, a5
   17bfc:	23 2a f1 02 	sw	a5, 52(sp)
   17c00:	ef f0 5f f5 	jal	-172
   17c04:	83 d7 c9 00 	lhu	a5, 12(s3)
   17c08:	23 20 a1 02 	sw	a0, 32(sp)
   17c0c:	23 20 01 0e 	sw	zero, 224(sp)
   17c10:	23 22 01 0e 	sw	zero, 228(sp)
   17c14:	23 24 01 0e 	sw	zero, 232(sp)
   17c18:	23 26 01 0e 	sw	zero, 236(sp)
   17c1c:	93 f7 07 08 	andi	a5, a5, 128
   17c20:	63 80 07 04 	beqz	a5, 64
   17c24:	83 a7 09 01 	lw	a5, 16(s3)
   17c28:	63 9c 07 02 	bnez	a5, 56
   17c2c:	93 05 00 04 	addi	a1, zero, 64
   17c30:	13 05 09 00 	mv	a0, s2
   17c34:	ef 90 8f ce 	jal	-27416
   17c38:	23 a0 a9 00 	sw	a0, 0(s3)
   17c3c:	23 a8 a9 00 	sw	a0, 16(s3)
   17c40:	63 1c 05 00 	bnez	a0, 24
   17c44:	93 07 c0 00 	addi	a5, zero, 12
   17c48:	23 20 f9 00 	sw	a5, 0(s2)
   17c4c:	93 07 f0 ff 	addi	a5, zero, -1
   17c50:	23 22 f1 02 	sw	a5, 36(sp)
   17c54:	6f 00 c0 7e 	j	2028
   17c58:	93 07 00 04 	addi	a5, zero, 64
   17c5c:	23 aa f9 00 	sw	a5, 20(s3)
   17c60:	b7 27 02 00 	lui	a5, 34
   17c64:	93 87 07 3a 	addi	a5, a5, 928
   17c68:	b7 2b 02 00 	lui	s7, 34
   17c6c:	93 08 c1 0f 	addi	a7, sp, 252
   17c70:	23 26 f1 04 	sw	a5, 76(sp)
   17c74:	93 87 cb 51 	addi	a5, s7, 1308
   17c78:	23 2a 11 0d 	sw	a7, 212(sp)
   17c7c:	23 2e 01 0c 	sw	zero, 220(sp)
   17c80:	23 2c 01 0c 	sw	zero, 216(sp)
   17c84:	13 0a 00 00 	mv	s4, zero
   17c88:	13 8c 08 00 	mv	s8, a7
   17c8c:	23 20 01 04 	sw	zero, 64(sp)
   17c90:	23 2e 01 02 	sw	zero, 60(sp)
   17c94:	23 28 01 00 	sw	zero, 16(sp)
   17c98:	23 28 01 02 	sw	zero, 48(sp)
   17c9c:	23 2c 01 02 	sw	zero, 56(sp)
   17ca0:	23 22 01 02 	sw	zero, 36(sp)
   17ca4:	23 2a f1 00 	sw	a5, 20(sp)
   17ca8:	13 84 04 00 	mv	s0, s1
   17cac:	13 07 50 02 	addi	a4, zero, 37
   17cb0:	83 47 04 00 	lbu	a5, 0(s0)
   17cb4:	63 84 07 00 	beqz	a5, 8
   17cb8:	63 9a e7 0a 	bne	a5, a4, 180
   17cbc:	33 0b 94 40 	sub	s6, s0, s1
   17cc0:	63 0a 0b 04 	beqz	s6, 84
   17cc4:	83 27 c1 0d 	lw	a5, 220(sp)
   17cc8:	23 20 9c 00 	sw	s1, 0(s8)
   17ccc:	23 22 6c 01 	sw	s6, 4(s8)
   17cd0:	b3 87 67 01 	add	a5, a5, s6
   17cd4:	23 2e f1 0c 	sw	a5, 220(sp)
   17cd8:	83 27 81 0d 	lw	a5, 216(sp)
   17cdc:	13 07 70 00 	addi	a4, zero, 7
   17ce0:	13 0c 8c 00 	addi	s8, s8, 8
   17ce4:	93 87 17 00 	addi	a5, a5, 1
   17ce8:	23 2c f1 0c 	sw	a5, 216(sp)
   17cec:	63 5e f7 00 	bge	a4, a5, 28
   17cf0:	13 06 41 0d 	addi	a2, sp, 212
   17cf4:	93 85 09 00 	mv	a1, s3
   17cf8:	13 05 09 00 	mv	a0, s2
   17cfc:	ef 30 90 6e 	jal	16104
   17d00:	63 1a 05 72 	bnez	a0, 1844
   17d04:	13 0c c1 0f 	addi	s8, sp, 252
   17d08:	83 27 41 02 	lw	a5, 36(sp)
   17d0c:	b3 87 67 01 	add	a5, a5, s6
   17d10:	23 22 f1 02 	sw	a5, 36(sp)
   17d14:	83 47 04 00 	lbu	a5, 0(s0)
   17d18:	63 94 07 00 	bnez	a5, 8
   17d1c:	6f 10 10 5a 	j	7584
   17d20:	93 07 14 00 	addi	a5, s0, 1
   17d24:	a3 0b 01 0a 	sb	zero, 183(sp)
   17d28:	93 0b f0 ff 	addi	s7, zero, -1
   17d2c:	23 24 01 02 	sw	zero, 40(sp)
   17d30:	13 04 00 00 	mv	s0, zero
   17d34:	93 0c a0 05 	addi	s9, zero, 90
   17d38:	93 0d 90 00 	addi	s11, zero, 9
   17d3c:	13 0d a0 02 	addi	s10, zero, 42
   17d40:	03 cb 07 00 	lbu	s6, 0(a5)
   17d44:	13 87 17 00 	addi	a4, a5, 1
   17d48:	23 2e e1 00 	sw	a4, 28(sp)
   17d4c:	93 07 0b fe 	addi	a5, s6, -32
   17d50:	63 f4 fc 00 	bgeu	s9, a5, 8
   17d54:	6f 10 00 28 	j	4736
   17d58:	03 27 c1 04 	lw	a4, 76(sp)
   17d5c:	93 97 27 00 	slli	a5, a5, 2
   17d60:	b3 87 e7 00 	add	a5, a5, a4
   17d64:	83 a7 07 00 	lw	a5, 0(a5)
   17d68:	67 80 07 00 	jr	a5
   17d6c:	13 04 14 00 	addi	s0, s0, 1
   17d70:	6f f0 1f f4 	j	-192
   17d74:	13 05 09 00 	mv	a0, s2
   17d78:	ef e0 9f 8a 	jal	-5976
   17d7c:	83 27 45 00 	lw	a5, 4(a0)
   17d80:	13 85 07 00 	mv	a0, a5
   17d84:	23 2c f1 02 	sw	a5, 56(sp)
   17d88:	ef f0 df dc 	jal	-564
   17d8c:	23 28 a1 02 	sw	a0, 48(sp)
   17d90:	13 05 09 00 	mv	a0, s2
   17d94:	ef e0 df 88 	jal	-6004
   17d98:	83 27 85 00 	lw	a5, 8(a0)
   17d9c:	23 28 f1 00 	sw	a5, 16(sp)
   17da0:	83 27 01 03 	lw	a5, 48(sp)
   17da4:	63 8c 07 00 	beqz	a5, 24
   17da8:	83 27 01 01 	lw	a5, 16(sp)
   17dac:	63 88 07 00 	beqz	a5, 16
   17db0:	83 c7 07 00 	lbu	a5, 0(a5)
   17db4:	63 84 07 00 	beqz	a5, 8
   17db8:	13 64 04 40 	ori	s0, s0, 1024
   17dbc:	83 27 c1 01 	lw	a5, 28(sp)
   17dc0:	6f f0 1f f8 	j	-128
   17dc4:	83 47 71 0b 	lbu	a5, 183(sp)
   17dc8:	e3 9a 07 fe 	bnez	a5, -12
   17dcc:	93 07 00 02 	addi	a5, zero, 32
   17dd0:	a3 0b f1 0a 	sb	a5, 183(sp)
   17dd4:	6f f0 9f fe 	j	-24
   17dd8:	13 64 14 00 	ori	s0, s0, 1
   17ddc:	6f f0 1f fe 	j	-32
   17de0:	83 a7 0a 00 	lw	a5, 0(s5)
   17de4:	93 8a 4a 00 	addi	s5, s5, 4
   17de8:	23 24 f1 02 	sw	a5, 40(sp)
   17dec:	e3 d8 07 fc 	bgez	a5, -48
   17df0:	b3 07 f0 40 	neg	a5, a5
   17df4:	23 24 f1 02 	sw	a5, 40(sp)
   17df8:	13 64 44 00 	ori	s0, s0, 4
   17dfc:	6f f0 1f fc 	j	-64
   17e00:	93 07 b0 02 	addi	a5, zero, 43
   17e04:	6f f0 df fc 	j	-52
   17e08:	03 27 c1 01 	lw	a4, 28(sp)
   17e0c:	83 27 c1 01 	lw	a5, 28(sp)
   17e10:	03 4b 07 00 	lbu	s6, 0(a4)
   17e14:	93 87 17 00 	addi	a5, a5, 1
   17e18:	63 14 ab 05 	bne	s6, s10, 72
   17e1c:	83 ab 0a 00 	lw	s7, 0(s5)
   17e20:	13 87 4a 00 	addi	a4, s5, 4
   17e24:	63 d4 0b 00 	bgez	s7, 8
   17e28:	93 0b f0 ff 	addi	s7, zero, -1
   17e2c:	93 0a 07 00 	mv	s5, a4
   17e30:	23 2e f1 00 	sw	a5, 28(sp)
   17e34:	6f f0 9f f8 	j	-120
   17e38:	13 97 2b 00 	slli	a4, s7, 2
   17e3c:	93 87 17 00 	addi	a5, a5, 1
   17e40:	33 03 77 01 	add	t1, a4, s7
   17e44:	03 cb f7 ff 	lbu	s6, -1(a5)
   17e48:	13 13 13 00 	slli	t1, t1, 1
   17e4c:	b3 0b d3 00 	add	s7, t1, a3
   17e50:	93 06 0b fd 	addi	a3, s6, -48
   17e54:	e3 f2 dd fe 	bgeu	s11, a3, -28
   17e58:	23 2e f1 00 	sw	a5, 28(sp)
   17e5c:	6f f0 1f ef 	j	-272
   17e60:	93 0b 00 00 	mv	s7, zero
   17e64:	6f f0 df fe 	j	-20
   17e68:	13 64 04 08 	ori	s0, s0, 128
   17e6c:	6f f0 1f f5 	j	-176
   17e70:	83 27 c1 01 	lw	a5, 28(sp)
   17e74:	23 24 01 02 	sw	zero, 40(sp)
   17e78:	03 27 81 02 	lw	a4, 40(sp)
   17e7c:	83 26 81 02 	lw	a3, 40(sp)
   17e80:	13 0b 0b fd 	addi	s6, s6, -48
   17e84:	13 17 27 00 	slli	a4, a4, 2
   17e88:	33 07 d7 00 	add	a4, a4, a3
   17e8c:	13 17 17 00 	slli	a4, a4, 1
   17e90:	93 87 17 00 	addi	a5, a5, 1
   17e94:	33 07 eb 00 	add	a4, s6, a4
   17e98:	03 cb f7 ff 	lbu	s6, -1(a5)
   17e9c:	23 24 e1 02 	sw	a4, 40(sp)
   17ea0:	13 07 0b fd 	addi	a4, s6, -48
   17ea4:	e3 fa ed fc 	bgeu	s11, a4, -44
   17ea8:	6f f0 1f fb 	j	-80
   17eac:	13 64 84 00 	ori	s0, s0, 8
   17eb0:	6f f0 df f0 	j	-244
   17eb4:	83 27 c1 01 	lw	a5, 28(sp)
   17eb8:	03 c7 07 00 	lbu	a4, 0(a5)
   17ebc:	93 07 80 06 	addi	a5, zero, 104
   17ec0:	63 1c f7 00 	bne	a4, a5, 24
   17ec4:	83 27 c1 01 	lw	a5, 28(sp)
   17ec8:	13 64 04 20 	ori	s0, s0, 512
   17ecc:	93 87 17 00 	addi	a5, a5, 1
   17ed0:	23 2e f1 00 	sw	a5, 28(sp)
   17ed4:	6f f0 9f ee 	j	-280
   17ed8:	13 64 04 04 	ori	s0, s0, 64
   17edc:	6f f0 1f ee 	j	-288
   17ee0:	83 27 c1 01 	lw	a5, 28(sp)
   17ee4:	03 c7 07 00 	lbu	a4, 0(a5)
   17ee8:	93 07 c0 06 	addi	a5, zero, 108
   17eec:	63 1c f7 00 	bne	a4, a5, 24
   17ef0:	83 27 c1 01 	lw	a5, 28(sp)
   17ef4:	93 87 17 00 	addi	a5, a5, 1
   17ef8:	23 2e f1 00 	sw	a5, 28(sp)
   17efc:	13 64 04 02 	ori	s0, s0, 32
   17f00:	6f f0 df eb 	j	-324
   17f04:	13 64 04 01 	ori	s0, s0, 16
   17f08:	6f f0 5f eb 	j	-332
   17f0c:	93 87 4a 00 	addi	a5, s5, 4
   17f10:	23 2c f1 00 	sw	a5, 24(sp)
   17f14:	83 a7 0a 00 	lw	a5, 0(s5)
   17f18:	a3 0b 01 0a 	sb	zero, 183(sp)
   17f1c:	23 0e f1 12 	sb	a5, 316(sp)
   17f20:	23 26 01 00 	sw	zero, 12(sp)
   17f24:	93 0b 10 00 	addi	s7, zero, 1
   17f28:	13 07 00 00 	mv	a4, zero
   17f2c:	13 0d 00 00 	mv	s10, zero
   17f30:	93 0c 00 00 	mv	s9, zero
   17f34:	93 0d 00 00 	mv	s11, zero
   17f38:	93 04 c1 13 	addi	s1, sp, 316
   17f3c:	23 26 e1 02 	sw	a4, 44(sp)
   17f40:	63 54 77 01 	bge	a4, s7, 8
   17f44:	23 26 71 03 	sw	s7, 44(sp)
   17f48:	83 46 71 0b 	lbu	a3, 183(sp)
   17f4c:	63 88 06 00 	beqz	a3, 16
   17f50:	83 27 c1 02 	lw	a5, 44(sp)
   17f54:	93 87 17 00 	addi	a5, a5, 1
   17f58:	23 26 f1 02 	sw	a5, 44(sp)
   17f5c:	93 7a 24 00 	andi	s5, s0, 2
   17f60:	63 88 0a 00 	beqz	s5, 16
   17f64:	83 27 c1 02 	lw	a5, 44(sp)
   17f68:	93 87 27 00 	addi	a5, a5, 2
   17f6c:	23 26 f1 02 	sw	a5, 44(sp)
   17f70:	93 77 44 08 	andi	a5, s0, 132
   17f74:	23 22 f1 04 	sw	a5, 68(sp)
   17f78:	63 90 07 08 	bnez	a5, 128
   17f7c:	83 27 81 02 	lw	a5, 40(sp)
   17f80:	83 26 c1 02 	lw	a3, 44(sp)
   17f84:	b3 86 d7 40 	sub	a3, a5, a3
   17f88:	63 58 d0 06 	blez	a3, 112
   17f8c:	b7 27 02 00 	lui	a5, 34
   17f90:	13 0e 00 01 	addi	t3, zero, 16
   17f94:	13 88 c7 50 	addi	a6, a5, 1292
   17f98:	93 0e 70 00 	addi	t4, zero, 7
   17f9c:	03 26 81 0d 	lw	a2, 216(sp)
   17fa0:	23 20 0c 01 	sw	a6, 0(s8)
   17fa4:	83 25 c1 0d 	lw	a1, 220(sp)
   17fa8:	13 06 16 00 	addi	a2, a2, 1
   17fac:	13 05 8c 00 	addi	a0, s8, 8
   17fb0:	63 54 de 00 	bge	t3, a3, 8
   17fb4:	6f 10 40 03 	j	4148
   17fb8:	23 22 dc 00 	sw	a3, 4(s8)
   17fbc:	b3 86 b6 00 	add	a3, a3, a1
   17fc0:	23 2e d1 0c 	sw	a3, 220(sp)
   17fc4:	23 2c c1 0c 	sw	a2, 216(sp)
   17fc8:	93 06 70 00 	addi	a3, zero, 7
   17fcc:	13 0c 05 00 	mv	s8, a0
   17fd0:	63 d4 c6 02 	bge	a3, a2, 40
   17fd4:	13 06 41 0d 	addi	a2, sp, 212
   17fd8:	93 85 09 00 	mv	a1, s3
   17fdc:	13 05 09 00 	mv	a0, s2
   17fe0:	23 24 e1 04 	sw	a4, 72(sp)
   17fe4:	ef 30 10 40 	jal	15360
   17fe8:	63 04 05 00 	beqz	a0, 8
   17fec:	6f 10 d0 26 	j	6764
   17ff0:	03 27 81 04 	lw	a4, 72(sp)
   17ff4:	13 0c c1 0f 	addi	s8, sp, 252
   17ff8:	83 46 71 0b 	lbu	a3, 183(sp)
   17ffc:	63 8e 06 04 	beqz	a3, 92
   18000:	93 06 71 0b 	addi	a3, sp, 183
   18004:	23 20 dc 00 	sw	a3, 0(s8)
   18008:	93 06 10 00 	addi	a3, zero, 1
   1800c:	23 22 dc 00 	sw	a3, 4(s8)
   18010:	83 26 c1 0d 	lw	a3, 220(sp)
   18014:	13 06 70 00 	addi	a2, zero, 7
   18018:	13 0c 8c 00 	addi	s8, s8, 8
   1801c:	93 86 16 00 	addi	a3, a3, 1
   18020:	23 2e d1 0c 	sw	a3, 220(sp)
   18024:	83 26 81 0d 	lw	a3, 216(sp)
   18028:	93 86 16 00 	addi	a3, a3, 1
   1802c:	23 2c d1 0c 	sw	a3, 216(sp)
   18030:	63 54 d6 02 	bge	a2, a3, 40
   18034:	13 06 41 0d 	addi	a2, sp, 212
   18038:	93 85 09 00 	mv	a1, s3
   1803c:	13 05 09 00 	mv	a0, s2
   18040:	23 24 e1 04 	sw	a4, 72(sp)
   18044:	ef 30 10 3a 	jal	15264
   18048:	63 04 05 00 	beqz	a0, 8
   1804c:	6f 10 d0 20 	j	6668
   18050:	03 27 81 04 	lw	a4, 72(sp)
   18054:	13 0c c1 0f 	addi	s8, sp, 252
   18058:	63 8e 0a 04 	beqz	s5, 92
   1805c:	93 06 81 0b 	addi	a3, sp, 184
   18060:	23 20 dc 00 	sw	a3, 0(s8)
   18064:	93 06 20 00 	addi	a3, zero, 2
   18068:	23 22 dc 00 	sw	a3, 4(s8)
   1806c:	83 26 c1 0d 	lw	a3, 220(sp)
   18070:	13 06 70 00 	addi	a2, zero, 7
   18074:	13 0c 8c 00 	addi	s8, s8, 8
   18078:	93 86 26 00 	addi	a3, a3, 2
   1807c:	23 2e d1 0c 	sw	a3, 220(sp)
   18080:	83 26 81 0d 	lw	a3, 216(sp)
   18084:	93 86 16 00 	addi	a3, a3, 1
   18088:	23 2c d1 0c 	sw	a3, 216(sp)
   1808c:	63 54 d6 02 	bge	a2, a3, 40
   18090:	13 06 41 0d 	addi	a2, sp, 212
   18094:	93 85 09 00 	mv	a1, s3
   18098:	13 05 09 00 	mv	a0, s2
   1809c:	23 24 e1 04 	sw	a4, 72(sp)
   180a0:	ef 30 50 34 	jal	15172
   180a4:	63 04 05 00 	beqz	a0, 8
   180a8:	6f 10 10 1b 	j	6576
   180ac:	03 27 81 04 	lw	a4, 72(sp)
   180b0:	13 0c c1 0f 	addi	s8, sp, 252
   180b4:	83 27 41 04 	lw	a5, 68(sp)
   180b8:	93 06 00 08 	addi	a3, zero, 128
   180bc:	63 9c d7 06 	bne	a5, a3, 120
   180c0:	83 27 81 02 	lw	a5, 40(sp)
   180c4:	83 26 c1 02 	lw	a3, 44(sp)
   180c8:	b3 8a d7 40 	sub	s5, a5, a3
   180cc:	63 54 50 07 	blez	s5, 104
   180d0:	13 08 00 01 	addi	a6, zero, 16
   180d4:	13 0e 70 00 	addi	t3, zero, 7
   180d8:	83 27 41 01 	lw	a5, 20(sp)
   180dc:	83 26 81 0d 	lw	a3, 216(sp)
   180e0:	03 26 c1 0d 	lw	a2, 220(sp)
   180e4:	23 20 fc 00 	sw	a5, 0(s8)
   180e8:	93 86 16 00 	addi	a3, a3, 1
   180ec:	93 05 8c 00 	addi	a1, s8, 8
   180f0:	e3 48 58 75 	blt	a6, s5, 3920
   180f4:	23 22 5c 01 	sw	s5, 4(s8)
   180f8:	b3 8a ca 00 	add	s5, s5, a2
   180fc:	23 2e 51 0d 	sw	s5, 220(sp)
   18100:	23 2c d1 0c 	sw	a3, 216(sp)
   18104:	13 06 70 00 	addi	a2, zero, 7
   18108:	13 8c 05 00 	mv	s8, a1
   1810c:	63 54 d6 02 	bge	a2, a3, 40
   18110:	13 06 41 0d 	addi	a2, sp, 212
   18114:	93 85 09 00 	mv	a1, s3
   18118:	13 05 09 00 	mv	a0, s2
   1811c:	23 22 e1 04 	sw	a4, 68(sp)
   18120:	ef 30 50 2c 	jal	15044
   18124:	63 04 05 00 	beqz	a0, 8
   18128:	6f 10 10 13 	j	6448
   1812c:	03 27 41 04 	lw	a4, 68(sp)
   18130:	13 0c c1 0f 	addi	s8, sp, 252
   18134:	b3 0a 77 41 	sub	s5, a4, s7
   18138:	63 50 50 07 	blez	s5, 96
   1813c:	13 08 00 01 	addi	a6, zero, 16
   18140:	13 0e 70 00 	addi	t3, zero, 7
   18144:	83 27 41 01 	lw	a5, 20(sp)
   18148:	83 26 81 0d 	lw	a3, 216(sp)
   1814c:	03 27 c1 0d 	lw	a4, 220(sp)
   18150:	23 20 fc 00 	sw	a5, 0(s8)
   18154:	93 86 16 00 	addi	a3, a3, 1
   18158:	13 06 8c 00 	addi	a2, s8, 8
   1815c:	e3 46 58 73 	blt	a6, s5, 3884
   18160:	33 87 ea 00 	add	a4, s5, a4
   18164:	23 22 5c 01 	sw	s5, 4(s8)
   18168:	23 2e e1 0c 	sw	a4, 220(sp)
   1816c:	23 2c d1 0c 	sw	a3, 216(sp)
   18170:	13 07 70 00 	addi	a4, zero, 7
   18174:	13 0c 06 00 	mv	s8, a2
   18178:	63 50 d7 02 	bge	a4, a3, 32
   1817c:	13 06 41 0d 	addi	a2, sp, 212
   18180:	93 85 09 00 	mv	a1, s3
   18184:	13 05 09 00 	mv	a0, s2
   18188:	ef 30 d0 25 	jal	14940
   1818c:	63 04 05 00 	beqz	a0, 8
   18190:	6f 10 90 0c 	j	6344
   18194:	13 0c c1 0f 	addi	s8, sp, 252
   18198:	93 76 04 10 	andi	a3, s0, 256
   1819c:	03 27 c1 0d 	lw	a4, 220(sp)
   181a0:	e3 94 06 72 	bnez	a3, 3880
   181a4:	83 27 81 0d 	lw	a5, 216(sp)
   181a8:	33 83 eb 00 	add	t1, s7, a4
   181ac:	23 20 9c 00 	sw	s1, 0(s8)
   181b0:	93 87 17 00 	addi	a5, a5, 1
   181b4:	23 22 7c 01 	sw	s7, 4(s8)
   181b8:	23 2e 61 0c 	sw	t1, 220(sp)
   181bc:	23 2c f1 0c 	sw	a5, 216(sp)
   181c0:	13 07 70 00 	addi	a4, zero, 7
   181c4:	13 0c 8c 00 	addi	s8, s8, 8
   181c8:	63 44 f7 00 	blt	a4, a5, 8
   181cc:	6f 10 40 1c 	j	4548
   181d0:	13 06 41 0d 	addi	a2, sp, 212
   181d4:	93 85 09 00 	mv	a1, s3
   181d8:	13 05 09 00 	mv	a0, s2
   181dc:	ef 30 90 20 	jal	14856
   181e0:	63 04 05 00 	beqz	a0, 8
   181e4:	6f 10 50 07 	j	6260
   181e8:	13 0c c1 0f 	addi	s8, sp, 252
   181ec:	6f 10 40 1a 	j	4516
   181f0:	13 64 04 01 	ori	s0, s0, 16
   181f4:	93 77 04 02 	andi	a5, s0, 32
   181f8:	63 84 07 06 	beqz	a5, 104
   181fc:	93 8a 7a 00 	addi	s5, s5, 7
   18200:	93 fa 8a ff 	andi	s5, s5, -8
   18204:	03 ad 0a 00 	lw	s10, 0(s5)
   18208:	83 ad 4a 00 	lw	s11, 4(s5)
   1820c:	93 87 8a 00 	addi	a5, s5, 8
   18210:	23 2c f1 00 	sw	a5, 24(sp)
   18214:	63 c4 0d 00 	bltz	s11, 8
   18218:	6f 10 50 0c 	j	6340
   1821c:	33 0d a0 41 	neg	s10, s10
   18220:	b3 37 a0 01 	snez	a5, s10
   18224:	b3 0d b0 41 	neg	s11, s11
   18228:	b3 8d fd 40 	sub	s11, s11, a5
   1822c:	93 07 d0 02 	addi	a5, zero, 45
   18230:	a3 0b f1 0a 	sb	a5, 183(sp)
   18234:	93 07 10 00 	addi	a5, zero, 1
   18238:	13 07 f0 ff 	addi	a4, zero, -1
   1823c:	e3 82 eb 40 	beq	s7, a4, 3076
   18240:	13 07 04 00 	mv	a4, s0
   18244:	b3 66 bd 01 	or	a3, s10, s11
   18248:	13 74 f4 f7 	andi	s0, s0, -129
   1824c:	e3 9a 06 3e 	bnez	a3, 3060
   18250:	e3 84 0b 56 	beqz	s7, 3432
   18254:	13 07 10 00 	addi	a4, zero, 1
   18258:	e3 98 e7 3e 	bne	a5, a4, 3056
   1825c:	6f 10 50 09 	j	6292
   18260:	93 87 4a 00 	addi	a5, s5, 4
   18264:	23 2c f1 00 	sw	a5, 24(sp)
   18268:	93 77 04 01 	andi	a5, s0, 16
   1826c:	63 88 07 00 	beqz	a5, 16
   18270:	03 ad 0a 00 	lw	s10, 0(s5)
   18274:	93 5d fd 41 	srai	s11, s10, 31
   18278:	6f f0 df f9 	j	-100
   1827c:	93 77 04 04 	andi	a5, s0, 64
   18280:	03 ad 0a 00 	lw	s10, 0(s5)
   18284:	63 88 07 00 	beqz	a5, 16
   18288:	13 1d 0d 01 	slli	s10, s10, 16
   1828c:	13 5d 0d 41 	srai	s10, s10, 16
   18290:	6f f0 5f fe 	j	-28
   18294:	93 77 04 20 	andi	a5, s0, 512
   18298:	e3 8e 07 fc 	beqz	a5, -36
   1829c:	13 1d 8d 01 	slli	s10, s10, 24
   182a0:	13 5d 8d 41 	srai	s10, s10, 24
   182a4:	6f f0 1f fd 	j	-48
   182a8:	93 77 84 00 	andi	a5, s0, 8
   182ac:	63 88 07 0a 	beqz	a5, 176
   182b0:	93 87 4a 00 	addi	a5, s5, 4
   182b4:	23 2c f1 00 	sw	a5, 24(sp)
   182b8:	83 a7 0a 00 	lw	a5, 0(s5)
   182bc:	03 a6 07 00 	lw	a2, 0(a5)
   182c0:	83 a6 47 00 	lw	a3, 4(a5)
   182c4:	03 a7 87 00 	lw	a4, 8(a5)
   182c8:	83 a7 c7 00 	lw	a5, 12(a5)
   182cc:	23 20 c1 0e 	sw	a2, 224(sp)
   182d0:	23 22 d1 0e 	sw	a3, 228(sp)
   182d4:	23 24 e1 0e 	sw	a4, 232(sp)
   182d8:	13 05 01 0e 	addi	a0, sp, 224
   182dc:	23 26 f1 0e 	sw	a5, 236(sp)
   182e0:	ef e0 4f ad 	jal	-7468
   182e4:	23 2e a1 0a 	sw	a0, 188(sp)
   182e8:	93 07 20 00 	addi	a5, zero, 2
   182ec:	63 1e f5 0a 	bne	a0, a5, 188
   182f0:	83 27 01 0e 	lw	a5, 224(sp)
   182f4:	93 05 01 09 	addi	a1, sp, 144
   182f8:	13 05 01 0a 	addi	a0, sp, 160
   182fc:	23 20 f1 0a 	sw	a5, 160(sp)
   18300:	83 27 41 0e 	lw	a5, 228(sp)
   18304:	23 28 01 08 	sw	zero, 144(sp)
   18308:	23 2a 01 08 	sw	zero, 148(sp)
   1830c:	23 22 f1 0a 	sw	a5, 164(sp)
   18310:	83 27 81 0e 	lw	a5, 232(sp)
   18314:	23 2c 01 08 	sw	zero, 152(sp)
   18318:	23 2e 01 08 	sw	zero, 156(sp)
   1831c:	23 24 f1 0a 	sw	a5, 168(sp)
   18320:	83 27 c1 0e 	lw	a5, 236(sp)
   18324:	23 26 f1 0a 	sw	a5, 172(sp)
   18328:	ef 60 00 74 	jal	26432
   1832c:	63 56 05 00 	bgez	a0, 12
   18330:	93 07 d0 02 	addi	a5, zero, 45
   18334:	a3 0b f1 0a 	sb	a5, 183(sp)
   18338:	93 07 70 04 	addi	a5, zero, 71
   1833c:	63 d0 67 07 	bge	a5, s6, 96
   18340:	b7 24 02 00 	lui	s1, 34
   18344:	93 84 44 fc 	addi	s1, s1, -60
   18348:	13 74 f4 f7 	andi	s0, s0, -129
   1834c:	23 26 01 00 	sw	zero, 12(sp)
   18350:	93 0b 30 00 	addi	s7, zero, 3
   18354:	13 07 00 00 	mv	a4, zero
   18358:	6f 00 d0 34 	j	2892
   1835c:	93 8a 7a 00 	addi	s5, s5, 7
   18360:	93 fa 8a ff 	andi	s5, s5, -8
   18364:	83 a5 0a 00 	lw	a1, 0(s5)
   18368:	03 a6 4a 00 	lw	a2, 4(s5)
   1836c:	93 87 8a 00 	addi	a5, s5, 8
   18370:	13 05 01 0a 	addi	a0, sp, 160
   18374:	23 2c f1 00 	sw	a5, 24(sp)
   18378:	ef 90 40 41 	jal	37908
   1837c:	83 27 01 0a 	lw	a5, 160(sp)
   18380:	23 20 f1 0e 	sw	a5, 224(sp)
   18384:	83 27 41 0a 	lw	a5, 164(sp)
   18388:	23 22 f1 0e 	sw	a5, 228(sp)
   1838c:	83 27 81 0a 	lw	a5, 168(sp)
   18390:	23 24 f1 0e 	sw	a5, 232(sp)
   18394:	83 27 c1 0a 	lw	a5, 172(sp)
   18398:	6f f0 1f f4 	j	-192
   1839c:	b7 24 02 00 	lui	s1, 34
   183a0:	93 84 04 fc 	addi	s1, s1, -64
   183a4:	6f f0 5f fa 	j	-92
   183a8:	93 07 10 00 	addi	a5, zero, 1
   183ac:	63 1a f5 02 	bne	a0, a5, 52
   183b0:	83 27 c1 0e 	lw	a5, 236(sp)
   183b4:	63 d6 07 00 	bgez	a5, 12
   183b8:	93 07 d0 02 	addi	a5, zero, 45
   183bc:	a3 0b f1 0a 	sb	a5, 183(sp)
   183c0:	93 07 70 04 	addi	a5, zero, 71
   183c4:	63 d8 67 01 	bge	a5, s6, 16
   183c8:	b7 24 02 00 	lui	s1, 34
   183cc:	93 84 c4 fc 	addi	s1, s1, -52
   183d0:	6f f0 9f f7 	j	-136
   183d4:	b7 24 02 00 	lui	s1, 34
   183d8:	93 84 84 fc 	addi	s1, s1, -56
   183dc:	6f f0 df f6 	j	-148
   183e0:	93 7c fb fd 	andi	s9, s6, -33
   183e4:	93 07 10 04 	addi	a5, zero, 65
   183e8:	63 9c fc 08 	bne	s9, a5, 152
   183ec:	93 07 00 03 	addi	a5, zero, 48
   183f0:	23 0c f1 0a 	sb	a5, 184(sp)
   183f4:	13 07 10 06 	addi	a4, zero, 97
   183f8:	93 07 80 07 	addi	a5, zero, 120
   183fc:	63 04 eb 00 	beq	s6, a4, 8
   18400:	93 07 80 05 	addi	a5, zero, 88
   18404:	a3 0c f1 0a 	sb	a5, 185(sp)
   18408:	93 07 30 06 	addi	a5, zero, 99
   1840c:	13 64 24 00 	ori	s0, s0, 2
   18410:	63 d2 77 4f 	bge	a5, s7, 1252
   18414:	93 85 1b 00 	addi	a1, s7, 1
   18418:	13 05 09 00 	mv	a0, s2
   1841c:	ef 80 1f d0 	jal	-29440
   18420:	93 04 05 00 	mv	s1, a0
   18424:	63 1e 05 4c 	bnez	a0, 1244
   18428:	83 d7 c9 00 	lhu	a5, 12(s3)
   1842c:	93 e7 07 04 	ori	a5, a5, 64
   18430:	23 96 f9 00 	sh	a5, 12(s3)
   18434:	83 d7 c9 00 	lhu	a5, 12(s3)
   18438:	93 f7 07 04 	andi	a5, a5, 64
   1843c:	e3 98 07 80 	bnez	a5, -2032
   18440:	83 20 c1 1d 	lw	ra, 476(sp)
   18444:	03 24 81 1d 	lw	s0, 472(sp)
   18448:	03 25 41 02 	lw	a0, 36(sp)
   1844c:	83 24 41 1d 	lw	s1, 468(sp)
   18450:	03 29 01 1d 	lw	s2, 464(sp)
   18454:	83 29 c1 1c 	lw	s3, 460(sp)
   18458:	03 2a 81 1c 	lw	s4, 456(sp)
   1845c:	83 2a 41 1c 	lw	s5, 452(sp)
   18460:	03 2b 01 1c 	lw	s6, 448(sp)
   18464:	83 2b c1 1b 	lw	s7, 444(sp)
   18468:	03 2c 81 1b 	lw	s8, 440(sp)
   1846c:	83 2c 41 1b 	lw	s9, 436(sp)
   18470:	03 2d 01 1b 	lw	s10, 432(sp)
   18474:	83 2d c1 1a 	lw	s11, 428(sp)
   18478:	13 01 01 1e 	addi	sp, sp, 480
   1847c:	67 80 00 00 	ret
   18480:	93 07 f0 ff 	addi	a5, zero, -1
   18484:	63 82 fb 48 	beq	s7, a5, 1156
   18488:	93 07 70 04 	addi	a5, zero, 71
   1848c:	23 26 01 00 	sw	zero, 12(sp)
   18490:	63 98 fc 00 	bne	s9, a5, 16
   18494:	63 96 0b 00 	bnez	s7, 12
   18498:	23 26 71 01 	sw	s7, 12(sp)
   1849c:	93 0b 10 00 	addi	s7, zero, 1
   184a0:	03 2a c1 0e 	lw	s4, 236(sp)
   184a4:	93 67 04 10 	ori	a5, s0, 256
   184a8:	23 26 f1 02 	sw	a5, 44(sp)
   184ac:	23 22 01 04 	sw	zero, 68(sp)
   184b0:	83 2e 01 0e 	lw	t4, 224(sp)
   184b4:	03 2e 41 0e 	lw	t3, 228(sp)
   184b8:	83 2d 81 0e 	lw	s11, 232(sp)
   184bc:	63 5a 0a 00 	bgez	s4, 20
   184c0:	b7 07 00 80 	lui	a5, 524288
   184c4:	33 ca 47 01 	xor	s4, a5, s4
   184c8:	93 07 d0 02 	addi	a5, zero, 45
   184cc:	23 22 f1 04 	sw	a5, 68(sp)
   184d0:	93 07 10 04 	addi	a5, zero, 65
   184d4:	63 94 fc 48 	bne	s9, a5, 1160
   184d8:	13 05 01 0a 	addi	a0, sp, 160
   184dc:	23 20 d1 0b 	sw	t4, 160(sp)
   184e0:	23 22 c1 0b 	sw	t3, 164(sp)
   184e4:	23 24 b1 0b 	sw	s11, 168(sp)
   184e8:	23 26 41 0b 	sw	s4, 172(sp)
   184ec:	ef 90 80 4a 	jal	38056
   184f0:	13 06 c1 0b 	addi	a2, sp, 188
   184f4:	ef f0 4f b8 	jal	-3196
   184f8:	13 86 05 00 	mv	a2, a1
   184fc:	93 05 05 00 	mv	a1, a0
   18500:	13 05 01 0a 	addi	a0, sp, 160
   18504:	ef 90 80 28 	jal	37512
   18508:	83 27 01 0a 	lw	a5, 160(sp)
   1850c:	13 06 01 07 	addi	a2, sp, 112
   18510:	93 05 01 08 	addi	a1, sp, 128
   18514:	23 20 f1 08 	sw	a5, 128(sp)
   18518:	83 27 41 0a 	lw	a5, 164(sp)
   1851c:	13 05 01 09 	addi	a0, sp, 144
   18520:	23 28 01 06 	sw	zero, 112(sp)
   18524:	23 22 f1 08 	sw	a5, 132(sp)
   18528:	83 27 81 0a 	lw	a5, 168(sp)
   1852c:	23 2a 01 06 	sw	zero, 116(sp)
   18530:	23 2c 01 06 	sw	zero, 120(sp)
   18534:	23 24 f1 08 	sw	a5, 136(sp)
   18538:	83 27 c1 0a 	lw	a5, 172(sp)
   1853c:	23 26 f1 08 	sw	a5, 140(sp)
   18540:	b7 07 fc 3f 	lui	a5, 262080
   18544:	23 2e f1 06 	sw	a5, 124(sp)
   18548:	ef 60 40 66 	jal	26212
   1854c:	03 28 01 09 	lw	a6, 144(sp)
   18550:	03 26 41 09 	lw	a2, 148(sp)
   18554:	83 26 81 09 	lw	a3, 152(sp)
   18558:	83 2d c1 09 	lw	s11, 156(sp)
   1855c:	93 05 01 09 	addi	a1, sp, 144
   18560:	13 05 01 0a 	addi	a0, sp, 160
   18564:	23 20 01 0b 	sw	a6, 160(sp)
   18568:	23 2a 01 05 	sw	a6, 84(sp)
   1856c:	23 22 c1 0a 	sw	a2, 164(sp)
   18570:	23 28 c1 04 	sw	a2, 80(sp)
   18574:	23 24 d1 0a 	sw	a3, 168(sp)
   18578:	23 24 d1 04 	sw	a3, 72(sp)
   1857c:	23 26 b1 0b 	sw	s11, 172(sp)
   18580:	23 28 01 08 	sw	zero, 144(sp)
   18584:	23 2a 01 08 	sw	zero, 148(sp)
   18588:	23 2c 01 08 	sw	zero, 152(sp)
   1858c:	23 2e 01 08 	sw	zero, 156(sp)
   18590:	ef 60 80 2c 	jal	25288
   18594:	83 26 81 04 	lw	a3, 72(sp)
   18598:	03 26 01 05 	lw	a2, 80(sp)
   1859c:	03 28 41 05 	lw	a6, 84(sp)
   185a0:	63 16 05 00 	bnez	a0, 12
   185a4:	93 07 10 00 	addi	a5, zero, 1
   185a8:	23 2e f1 0a 	sw	a5, 188(sp)
   185ac:	93 07 10 06 	addi	a5, zero, 97
   185b0:	63 02 fb 36 	beq	s6, a5, 868
   185b4:	37 2a 02 00 	lui	s4, 34
   185b8:	13 0a 4a fe 	addi	s4, s4, -28
   185bc:	13 8e fb ff 	addi	t3, s7, -1
   185c0:	13 8d 04 00 	mv	s10, s1
   185c4:	b7 07 03 40 	lui	a5, 262192
   185c8:	93 05 01 09 	addi	a1, sp, 144
   185cc:	23 2a c1 08 	sw	a2, 148(sp)
   185d0:	13 05 01 0a 	addi	a0, sp, 160
   185d4:	13 06 01 08 	addi	a2, sp, 128
   185d8:	23 2c c1 05 	sw	t3, 88(sp)
   185dc:	23 26 f1 08 	sw	a5, 140(sp)
   185e0:	23 28 01 09 	sw	a6, 144(sp)
   185e4:	23 2c d1 08 	sw	a3, 152(sp)
   185e8:	23 2e b1 09 	sw	s11, 156(sp)
   185ec:	23 20 01 08 	sw	zero, 128(sp)
   185f0:	23 22 01 08 	sw	zero, 132(sp)
   185f4:	23 24 01 08 	sw	zero, 136(sp)
   185f8:	ef 60 40 5b 	jal	26036
   185fc:	03 26 01 0a 	lw	a2, 160(sp)
   18600:	83 26 41 0a 	lw	a3, 164(sp)
   18604:	03 27 81 0a 	lw	a4, 168(sp)
   18608:	13 05 01 0a 	addi	a0, sp, 160
   1860c:	23 2a c1 04 	sw	a2, 84(sp)
   18610:	23 28 d1 04 	sw	a3, 80(sp)
   18614:	23 24 e1 04 	sw	a4, 72(sp)
   18618:	ef 80 d0 69 	jal	36508
   1861c:	93 05 05 00 	mv	a1, a0
   18620:	93 0a 05 00 	mv	s5, a0
   18624:	13 05 01 0a 	addi	a0, sp, 160
   18628:	83 2d c1 0a 	lw	s11, 172(sp)
   1862c:	ef 80 90 7d 	jal	36824
   18630:	03 27 81 04 	lw	a4, 72(sp)
   18634:	03 26 41 05 	lw	a2, 84(sp)
   18638:	83 26 01 05 	lw	a3, 80(sp)
   1863c:	23 24 e1 08 	sw	a4, 136(sp)
   18640:	03 27 01 0a 	lw	a4, 160(sp)
   18644:	23 20 c1 08 	sw	a2, 128(sp)
   18648:	93 05 01 08 	addi	a1, sp, 128
   1864c:	23 28 e1 06 	sw	a4, 112(sp)
   18650:	03 27 41 0a 	lw	a4, 164(sp)
   18654:	13 06 01 07 	addi	a2, sp, 112
   18658:	13 05 01 09 	addi	a0, sp, 144
   1865c:	23 2a e1 06 	sw	a4, 116(sp)
   18660:	03 27 81 0a 	lw	a4, 168(sp)
   18664:	23 26 b1 09 	sw	s11, 140(sp)
   18668:	23 22 d1 08 	sw	a3, 132(sp)
   1866c:	23 2c e1 06 	sw	a4, 120(sp)
   18670:	03 27 c1 0a 	lw	a4, 172(sp)
   18674:	13 0d 1d 00 	addi	s10, s10, 1
   18678:	23 2e e1 06 	sw	a4, 124(sp)
   1867c:	ef 70 90 09 	jal	30872
   18680:	b3 05 5a 01 	add	a1, s4, s5
   18684:	83 c5 05 00 	lbu	a1, 0(a1)
   18688:	03 2e 81 05 	lw	t3, 88(sp)
   1868c:	83 2e c1 09 	lw	t4, 156(sp)
   18690:	83 22 01 09 	lw	t0, 144(sp)
   18694:	83 2f 41 09 	lw	t6, 148(sp)
   18698:	03 2f 81 09 	lw	t5, 152(sp)
   1869c:	23 24 c1 05 	sw	t3, 72(sp)
   186a0:	a3 0f bd fe 	sb	a1, -1(s10)
   186a4:	93 07 f0 ff 	addi	a5, zero, -1
   186a8:	93 8d 0e 00 	mv	s11, t4
   186ac:	63 0c fe 06 	beq	t3, a5, 120
   186b0:	13 0e fe ff 	addi	t3, t3, -1
   186b4:	93 05 01 09 	addi	a1, sp, 144
   186b8:	13 05 01 0a 	addi	a0, sp, 160
   186bc:	23 26 d1 07 	sw	t4, 108(sp)
   186c0:	23 24 e1 07 	sw	t5, 104(sp)
   186c4:	23 22 f1 07 	sw	t6, 100(sp)
   186c8:	23 20 51 06 	sw	t0, 96(sp)
   186cc:	23 2e c1 05 	sw	t3, 92(sp)
   186d0:	23 20 51 0a 	sw	t0, 160(sp)
   186d4:	23 2c 51 04 	sw	t0, 88(sp)
   186d8:	23 22 f1 0b 	sw	t6, 164(sp)
   186dc:	23 2a f1 05 	sw	t6, 84(sp)
   186e0:	23 24 e1 0b 	sw	t5, 168(sp)
   186e4:	23 28 e1 05 	sw	t5, 80(sp)
   186e8:	23 26 d1 0b 	sw	t4, 172(sp)
   186ec:	23 28 01 08 	sw	zero, 144(sp)
   186f0:	23 2a 01 08 	sw	zero, 148(sp)
   186f4:	23 2c 01 08 	sw	zero, 152(sp)
   186f8:	23 2e 01 08 	sw	zero, 156(sp)
   186fc:	ef 60 c0 15 	jal	24924
   18700:	83 26 01 05 	lw	a3, 80(sp)
   18704:	03 26 41 05 	lw	a2, 84(sp)
   18708:	03 28 81 05 	lw	a6, 88(sp)
   1870c:	03 2e c1 05 	lw	t3, 92(sp)
   18710:	83 22 01 06 	lw	t0, 96(sp)
   18714:	83 2f 41 06 	lw	t6, 100(sp)
   18718:	03 2f 81 06 	lw	t5, 104(sp)
   1871c:	83 2e c1 06 	lw	t4, 108(sp)
   18720:	e3 12 05 ea 	bnez	a0, -348
   18724:	b7 0d fe 3f 	lui	s11, 262112
   18728:	93 05 01 09 	addi	a1, sp, 144
   1872c:	13 05 01 0a 	addi	a0, sp, 160
   18730:	23 20 51 0a 	sw	t0, 160(sp)
   18734:	23 2e 51 04 	sw	t0, 92(sp)
   18738:	23 22 f1 0b 	sw	t6, 164(sp)
   1873c:	23 2c f1 05 	sw	t6, 88(sp)
   18740:	23 24 e1 0b 	sw	t5, 168(sp)
   18744:	23 2a e1 05 	sw	t5, 84(sp)
   18748:	23 26 d1 0b 	sw	t4, 172(sp)
   1874c:	23 28 d1 05 	sw	t4, 80(sp)
   18750:	23 28 01 08 	sw	zero, 144(sp)
   18754:	23 2a 01 08 	sw	zero, 148(sp)
   18758:	23 2c 01 08 	sw	zero, 152(sp)
   1875c:	23 2e b1 09 	sw	s11, 156(sp)
   18760:	ef 60 40 1c 	jal	25028
   18764:	63 46 a0 04 	bgtz	a0, 76
   18768:	83 22 c1 05 	lw	t0, 92(sp)
   1876c:	83 2f 81 05 	lw	t6, 88(sp)
   18770:	03 2f 41 05 	lw	t5, 84(sp)
   18774:	83 2e 01 05 	lw	t4, 80(sp)
   18778:	93 05 01 09 	addi	a1, sp, 144
   1877c:	13 05 01 0a 	addi	a0, sp, 160
   18780:	23 20 51 0a 	sw	t0, 160(sp)
   18784:	23 22 f1 0b 	sw	t6, 164(sp)
   18788:	23 24 e1 0b 	sw	t5, 168(sp)
   1878c:	23 26 d1 0b 	sw	t4, 172(sp)
   18790:	23 28 01 08 	sw	zero, 144(sp)
   18794:	23 2a 01 08 	sw	zero, 148(sp)
   18798:	23 2c 01 08 	sw	zero, 152(sp)
   1879c:	23 2e b1 09 	sw	s11, 156(sp)
   187a0:	ef 60 80 0b 	jal	24760
   187a4:	63 12 05 1a 	bnez	a0, 420
   187a8:	93 fa 1a 00 	andi	s5, s5, 1
   187ac:	63 8e 0a 18 	beqz	s5, 412
   187b0:	03 46 fa 00 	lbu	a2, 15(s4)
   187b4:	23 26 a1 0d 	sw	s10, 204(sp)
   187b8:	93 05 00 03 	addi	a1, zero, 48
   187bc:	83 26 c1 0c 	lw	a3, 204(sp)
   187c0:	13 87 f6 ff 	addi	a4, a3, -1
   187c4:	23 26 e1 0c 	sw	a4, 204(sp)
   187c8:	03 c7 f6 ff 	lbu	a4, -1(a3)
   187cc:	63 0a c7 14 	beq	a4, a2, 340
   187d0:	13 06 90 03 	addi	a2, zero, 57
   187d4:	63 1a c7 14 	bne	a4, a2, 340
   187d8:	03 47 aa 00 	lbu	a4, 10(s4)
   187dc:	a3 8f e6 fe 	sb	a4, -1(a3)
   187e0:	13 0a 0d 00 	mv	s4, s10
   187e4:	13 07 70 04 	addi	a4, zero, 71
   187e8:	33 0a 9a 40 	sub	s4, s4, s1
   187ec:	83 2d c1 0b 	lw	s11, 188(sp)
   187f0:	63 96 ec 2a 	bne	s9, a4, 684
   187f4:	13 07 d0 ff 	addi	a4, zero, -3
   187f8:	63 c4 ed 00 	blt	s11, a4, 8
   187fc:	63 d0 bb 33 	bge	s7, s11, 800
   18800:	13 0b eb ff 	addi	s6, s6, -2
   18804:	93 8a fd ff 	addi	s5, s11, -1
   18808:	23 2e 51 0b 	sw	s5, 188(sp)
   1880c:	93 76 fb fd 	andi	a3, s6, -33
   18810:	93 05 10 04 	addi	a1, zero, 65
   18814:	13 77 fb 0f 	andi	a4, s6, 255
   18818:	13 06 00 00 	mv	a2, zero
   1881c:	63 98 b6 00 	bne	a3, a1, 16
   18820:	13 07 f7 00 	addi	a4, a4, 15
   18824:	13 77 f7 0f 	andi	a4, a4, 255
   18828:	13 06 10 00 	addi	a2, zero, 1
   1882c:	23 02 e1 0c 	sb	a4, 196(sp)
   18830:	93 07 b0 02 	addi	a5, zero, 43
   18834:	63 d8 0a 00 	bgez	s5, 16
   18838:	93 0a 10 00 	addi	s5, zero, 1
   1883c:	b3 8a ba 41 	sub	s5, s5, s11
   18840:	93 07 d0 02 	addi	a5, zero, 45
   18844:	a3 02 f1 0c 	sb	a5, 197(sp)
   18848:	93 07 90 00 	addi	a5, zero, 9
   1884c:	63 de 57 29 	bge	a5, s5, 668
   18850:	93 0c 31 0d 	addi	s9, sp, 211
   18854:	93 8d 0c 00 	mv	s11, s9
   18858:	93 0b 30 06 	addi	s7, zero, 99
   1885c:	93 05 a0 00 	addi	a1, zero, 10
   18860:	13 85 0a 00 	mv	a0, s5
   18864:	ef 90 c0 50 	jal	38156
   18868:	13 05 05 03 	addi	a0, a0, 48
   1886c:	a3 8f ac fe 	sb	a0, -1(s9)
   18870:	93 05 a0 00 	addi	a1, zero, 10
   18874:	13 85 0a 00 	mv	a0, s5
   18878:	13 8d fc ff 	addi	s10, s9, -1
   1887c:	ef 90 00 47 	jal	38000
   18880:	63 c4 5b 25 	blt	s7, s5, 584
   18884:	13 05 05 03 	addi	a0, a0, 48
   18888:	93 8c ec ff 	addi	s9, s9, -2
   1888c:	a3 0f ad fe 	sb	a0, -1(s10)
   18890:	93 07 61 0c 	addi	a5, sp, 198
   18894:	63 e0 bc 25 	bltu	s9, s11, 576
   18898:	13 07 41 0c 	addi	a4, sp, 196
   1889c:	b3 87 e7 40 	sub	a5, a5, a4
   188a0:	23 2e f1 02 	sw	a5, 60(sp)
   188a4:	b3 8b 47 01 	add	s7, a5, s4
   188a8:	93 07 10 00 	addi	a5, zero, 1
   188ac:	63 c6 47 01 	blt	a5, s4, 12
   188b0:	93 77 14 00 	andi	a5, s0, 1
   188b4:	63 86 07 00 	beqz	a5, 12
   188b8:	83 27 01 02 	lw	a5, 32(sp)
   188bc:	b3 8b fb 00 	add	s7, s7, a5
   188c0:	13 74 f4 bf 	andi	s0, s0, -1025
   188c4:	93 67 04 10 	ori	a5, s0, 256
   188c8:	23 26 f1 02 	sw	a5, 44(sp)
   188cc:	13 0d 00 00 	mv	s10, zero
   188d0:	93 0c 00 00 	mv	s9, zero
   188d4:	93 0d 00 00 	mv	s11, zero
   188d8:	83 27 41 04 	lw	a5, 68(sp)
   188dc:	63 86 07 00 	beqz	a5, 12
   188e0:	13 07 d0 02 	addi	a4, zero, 45
   188e4:	a3 0b e1 0a 	sb	a4, 183(sp)
   188e8:	03 24 c1 02 	lw	s0, 44(sp)
   188ec:	13 07 00 00 	mv	a4, zero
   188f0:	6f f0 cf e4 	j	-2484
   188f4:	23 26 01 00 	sw	zero, 12(sp)
   188f8:	93 04 c1 13 	addi	s1, sp, 316
   188fc:	6f f0 5f ba 	j	-1116
   18900:	23 26 a1 00 	sw	a0, 12(sp)
   18904:	6f f0 df b9 	j	-1124
   18908:	23 26 01 00 	sw	zero, 12(sp)
   1890c:	93 0b 60 00 	addi	s7, zero, 6
   18910:	6f f0 1f b9 	j	-1136
   18914:	37 2a 02 00 	lui	s4, 34
   18918:	13 0a 0a fd 	addi	s4, s4, -48
   1891c:	6f f0 1f ca 	j	-864
   18920:	a3 8f b6 fe 	sb	a1, -1(a3)
   18924:	6f f0 9f e9 	j	-360
   18928:	13 07 17 00 	addi	a4, a4, 1
   1892c:	13 77 f7 0f 	andi	a4, a4, 255
   18930:	6f f0 df ea 	j	-340
   18934:	13 0a 1a 00 	addi	s4, s4, 1
   18938:	a3 0f ea fe 	sb	a4, -1(s4)
   1893c:	b3 07 4d 41 	sub	a5, s10, s4
   18940:	e3 da 07 fe 	bgez	a5, -12
   18944:	6f f0 1f ea 	j	-352
   18948:	83 27 81 04 	lw	a5, 72(sp)
   1894c:	13 0a 0d 00 	mv	s4, s10
   18950:	13 07 00 03 	addi	a4, zero, 48
   18954:	33 0d fd 00 	add	s10, s10, a5
   18958:	6f f0 5f fe 	j	-28
   1895c:	93 07 60 04 	addi	a5, zero, 70
   18960:	63 8e fc 00 	beq	s9, a5, 28
   18964:	93 07 50 04 	addi	a5, zero, 69
   18968:	93 8a 1b 00 	addi	s5, s7, 1
   1896c:	63 84 fc 00 	beq	s9, a5, 8
   18970:	93 8a 0b 00 	mv	s5, s7
   18974:	13 06 20 00 	addi	a2, zero, 2
   18978:	6f 00 c0 00 	j	12
   1897c:	93 8a 0b 00 	mv	s5, s7
   18980:	13 06 30 00 	addi	a2, zero, 3
   18984:	93 07 01 0c 	addi	a5, sp, 192
   18988:	13 08 c1 0c 	addi	a6, sp, 204
   1898c:	13 07 c1 0b 	addi	a4, sp, 188
   18990:	93 86 0a 00 	mv	a3, s5
   18994:	93 05 01 0a 	addi	a1, sp, 160
   18998:	13 05 09 00 	mv	a0, s2
   1899c:	23 20 d1 0b 	sw	t4, 160(sp)
   189a0:	23 28 d1 05 	sw	t4, 80(sp)
   189a4:	23 22 c1 0b 	sw	t3, 164(sp)
   189a8:	23 24 c1 05 	sw	t3, 72(sp)
   189ac:	23 24 b1 0b 	sw	s11, 168(sp)
   189b0:	23 26 41 0b 	sw	s4, 172(sp)
   189b4:	ef d0 0f 80 	jal	-12288
   189b8:	93 07 70 04 	addi	a5, zero, 71
   189bc:	93 04 05 00 	mv	s1, a0
   189c0:	03 2e 81 04 	lw	t3, 72(sp)
   189c4:	83 2e 01 05 	lw	t4, 80(sp)
   189c8:	63 9a fc 00 	bne	s9, a5, 20
   189cc:	93 77 14 00 	andi	a5, s0, 1
   189d0:	63 96 07 00 	bnez	a5, 12
   189d4:	03 2a c1 0c 	lw	s4, 204(sp)
   189d8:	6f f0 df e0 	j	-500
   189dc:	93 07 60 04 	addi	a5, zero, 70
   189e0:	33 8d 54 01 	add	s10, s1, s5
   189e4:	63 92 fc 06 	bne	s9, a5, 100
   189e8:	03 c7 04 00 	lbu	a4, 0(s1)
   189ec:	93 07 00 03 	addi	a5, zero, 48
   189f0:	63 18 f7 04 	bne	a4, a5, 80
   189f4:	93 05 01 09 	addi	a1, sp, 144
   189f8:	13 05 01 0a 	addi	a0, sp, 160
   189fc:	23 20 d1 0b 	sw	t4, 160(sp)
   18a00:	23 28 d1 05 	sw	t4, 80(sp)
   18a04:	23 22 c1 0b 	sw	t3, 164(sp)
   18a08:	23 24 c1 05 	sw	t3, 72(sp)
   18a0c:	23 24 b1 0b 	sw	s11, 168(sp)
   18a10:	23 26 41 0b 	sw	s4, 172(sp)
   18a14:	23 28 01 08 	sw	zero, 144(sp)
   18a18:	23 2a 01 08 	sw	zero, 148(sp)
   18a1c:	23 2c 01 08 	sw	zero, 152(sp)
   18a20:	23 2e 01 08 	sw	zero, 156(sp)
   18a24:	ef 50 50 63 	jal	24116
   18a28:	03 2e 81 04 	lw	t3, 72(sp)
   18a2c:	83 2e 01 05 	lw	t4, 80(sp)
   18a30:	63 08 05 00 	beqz	a0, 16
   18a34:	93 07 10 00 	addi	a5, zero, 1
   18a38:	b3 8a 57 41 	sub	s5, a5, s5
   18a3c:	23 2e 51 0b 	sw	s5, 188(sp)
   18a40:	83 27 c1 0b 	lw	a5, 188(sp)
   18a44:	33 0d fd 00 	add	s10, s10, a5
   18a48:	93 05 01 09 	addi	a1, sp, 144
   18a4c:	13 05 01 0a 	addi	a0, sp, 160
   18a50:	23 20 d1 0b 	sw	t4, 160(sp)
   18a54:	23 22 c1 0b 	sw	t3, 164(sp)
   18a58:	23 24 b1 0b 	sw	s11, 168(sp)
   18a5c:	23 26 41 0b 	sw	s4, 172(sp)
   18a60:	23 28 01 08 	sw	zero, 144(sp)
   18a64:	23 2a 01 08 	sw	zero, 148(sp)
   18a68:	23 2c 01 08 	sw	zero, 152(sp)
   18a6c:	23 2e 01 08 	sw	zero, 156(sp)
   18a70:	ef 50 90 5e 	jal	24040
   18a74:	63 14 05 00 	bnez	a0, 8
   18a78:	23 26 a1 0d 	sw	s10, 204(sp)
   18a7c:	13 07 00 03 	addi	a4, zero, 48
   18a80:	6f 00 00 01 	j	16
   18a84:	93 86 17 00 	addi	a3, a5, 1
   18a88:	23 26 d1 0c 	sw	a3, 204(sp)
   18a8c:	23 80 e7 00 	sb	a4, 0(a5)
   18a90:	83 27 c1 0c 	lw	a5, 204(sp)
   18a94:	e3 e8 a7 ff 	bltu	a5, s10, -16
   18a98:	6f f0 df f3 	j	-196
   18a9c:	13 07 60 04 	addi	a4, zero, 70
   18aa0:	e3 92 ec d6 	bne	s9, a4, -668
   18aa4:	13 77 14 00 	andi	a4, s0, 1
   18aa8:	33 67 77 01 	or	a4, a4, s7
   18aac:	63 50 b0 07 	blez	s11, 96
   18ab0:	63 00 07 0c 	beqz	a4, 192
   18ab4:	83 27 01 02 	lw	a5, 32(sp)
   18ab8:	33 87 fd 00 	add	a4, s11, a5
   18abc:	b3 8b eb 00 	add	s7, s7, a4
   18ac0:	13 0b 60 06 	addi	s6, zero, 102
   18ac4:	6f 00 00 09 	j	144
   18ac8:	93 0c 0d 00 	mv	s9, s10
   18acc:	93 0a 05 00 	mv	s5, a0
   18ad0:	6f f0 df d8 	j	-628
   18ad4:	93 8c 1c 00 	addi	s9, s9, 1
   18ad8:	03 c7 fc ff 	lbu	a4, -1(s9)
   18adc:	93 87 17 00 	addi	a5, a5, 1
   18ae0:	a3 8f e7 fe 	sb	a4, -1(a5)
   18ae4:	6f f0 1f db 	j	-592
   18ae8:	13 07 61 0c 	addi	a4, sp, 198
   18aec:	63 18 06 00 	bnez	a2, 16
   18af0:	93 07 00 03 	addi	a5, zero, 48
   18af4:	23 03 f1 0c 	sb	a5, 198(sp)
   18af8:	13 07 71 0c 	addi	a4, sp, 199
   18afc:	93 8a 0a 03 	addi	s5, s5, 48
   18b00:	93 07 17 00 	addi	a5, a4, 1
   18b04:	23 00 57 01 	sb	s5, 0(a4)
   18b08:	6f f0 1f d9 	j	-624
   18b0c:	63 06 07 06 	beqz	a4, 108
   18b10:	83 27 01 02 	lw	a5, 32(sp)
   18b14:	13 87 17 00 	addi	a4, a5, 1
   18b18:	6f f0 5f fa 	j	-92
   18b1c:	63 c0 4d 03 	blt	s11, s4, 32
   18b20:	13 77 14 00 	andi	a4, s0, 1
   18b24:	93 8b 0d 00 	mv	s7, s11
   18b28:	63 06 07 00 	beqz	a4, 12
   18b2c:	83 27 01 02 	lw	a5, 32(sp)
   18b30:	b3 8b fd 00 	add	s7, s11, a5
   18b34:	13 0b 70 06 	addi	s6, zero, 103
   18b38:	6f 00 c0 01 	j	28
   18b3c:	83 27 01 02 	lw	a5, 32(sp)
   18b40:	13 0b 70 06 	addi	s6, zero, 103
   18b44:	b3 0b fa 00 	add	s7, s4, a5
   18b48:	63 46 b0 01 	bgtz	s11, 12
   18b4c:	33 83 bb 41 	sub	t1, s7, s11
   18b50:	93 0b 13 00 	addi	s7, t1, 1
   18b54:	93 7c 04 40 	andi	s9, s0, 1024
   18b58:	13 0d 00 00 	mv	s10, zero
   18b5c:	e3 8e 0c d6 	beqz	s9, -644
   18b60:	93 0c 00 00 	mv	s9, zero
   18b64:	e3 5a b0 d7 	blez	s11, -652
   18b68:	93 06 f0 0f 	addi	a3, zero, 255
   18b6c:	6f 00 80 03 	j	56
   18b70:	93 8b 0d 00 	mv	s7, s11
   18b74:	6f f0 df f4 	j	-180
   18b78:	13 0b 60 06 	addi	s6, zero, 102
   18b7c:	93 0b 10 00 	addi	s7, zero, 1
   18b80:	6f f0 5f fd 	j	-44
   18b84:	63 56 b7 03 	bge	a4, s11, 44
   18b88:	83 27 01 01 	lw	a5, 16(sp)
   18b8c:	b3 8d ed 40 	sub	s11, s11, a4
   18b90:	03 c7 17 00 	lbu	a4, 1(a5)
   18b94:	63 08 07 02 	beqz	a4, 48
   18b98:	93 87 17 00 	addi	a5, a5, 1
   18b9c:	93 8c 1c 00 	addi	s9, s9, 1
   18ba0:	23 28 f1 00 	sw	a5, 16(sp)
   18ba4:	83 27 01 01 	lw	a5, 16(sp)
   18ba8:	03 c7 07 00 	lbu	a4, 0(a5)
   18bac:	e3 1c d7 fc 	bne	a4, a3, -40
   18bb0:	83 25 01 03 	lw	a1, 48(sp)
   18bb4:	33 85 ac 01 	add	a0, s9, s10
   18bb8:	ef 90 00 11 	jal	37136
   18bbc:	b3 0b 75 01 	add	s7, a0, s7
   18bc0:	6f f0 9f d1 	j	-744
   18bc4:	13 0d 1d 00 	addi	s10, s10, 1
   18bc8:	6f f0 df fd 	j	-36
   18bcc:	13 87 4a 00 	addi	a4, s5, 4
   18bd0:	23 2c e1 00 	sw	a4, 24(sp)
   18bd4:	13 77 04 02 	andi	a4, s0, 32
   18bd8:	83 a7 0a 00 	lw	a5, 0(s5)
   18bdc:	63 00 07 02 	beqz	a4, 32
   18be0:	03 27 41 02 	lw	a4, 36(sp)
   18be4:	23 a0 e7 00 	sw	a4, 0(a5)
   18be8:	13 57 f7 41 	srai	a4, a4, 31
   18bec:	23 a2 e7 00 	sw	a4, 4(a5)
   18bf0:	83 2a 81 01 	lw	s5, 24(sp)
   18bf4:	83 24 c1 01 	lw	s1, 28(sp)
   18bf8:	6f f0 0f 8b 	j	-3920
   18bfc:	13 77 04 01 	andi	a4, s0, 16
   18c00:	63 08 07 00 	beqz	a4, 16
   18c04:	03 27 41 02 	lw	a4, 36(sp)
   18c08:	23 a0 e7 00 	sw	a4, 0(a5)
   18c0c:	6f f0 5f fe 	j	-28
   18c10:	13 77 04 04 	andi	a4, s0, 64
   18c14:	63 08 07 00 	beqz	a4, 16
   18c18:	03 27 41 02 	lw	a4, 36(sp)
   18c1c:	23 90 e7 00 	sh	a4, 0(a5)
   18c20:	6f f0 1f fd 	j	-48
   18c24:	13 74 04 20 	andi	s0, s0, 512
   18c28:	e3 0e 04 fc 	beqz	s0, -36
   18c2c:	03 27 41 02 	lw	a4, 36(sp)
   18c30:	23 80 e7 00 	sb	a4, 0(a5)
   18c34:	6f f0 df fb 	j	-68
   18c38:	13 64 04 01 	ori	s0, s0, 16
   18c3c:	93 77 04 02 	andi	a5, s0, 32
   18c40:	63 86 07 02 	beqz	a5, 44
   18c44:	93 8a 7a 00 	addi	s5, s5, 7
   18c48:	93 fa 8a ff 	andi	s5, s5, -8
   18c4c:	03 ad 0a 00 	lw	s10, 0(s5)
   18c50:	83 ad 4a 00 	lw	s11, 4(s5)
   18c54:	93 87 8a 00 	addi	a5, s5, 8
   18c58:	23 2c f1 00 	sw	a5, 24(sp)
   18c5c:	13 74 f4 bf 	andi	s0, s0, -1025
   18c60:	93 07 00 00 	mv	a5, zero
   18c64:	a3 0b 01 0a 	sb	zero, 183(sp)
   18c68:	6f f0 0f dd 	j	-2608
   18c6c:	93 87 4a 00 	addi	a5, s5, 4
   18c70:	23 2c f1 00 	sw	a5, 24(sp)
   18c74:	93 77 04 01 	andi	a5, s0, 16
   18c78:	63 86 07 00 	beqz	a5, 12
   18c7c:	03 ad 0a 00 	lw	s10, 0(s5)
   18c80:	6f 00 00 01 	j	16
   18c84:	93 77 04 04 	andi	a5, s0, 64
   18c88:	63 88 07 00 	beqz	a5, 16
   18c8c:	03 dd 0a 00 	lhu	s10, 0(s5)
   18c90:	93 0d 00 00 	mv	s11, zero
   18c94:	6f f0 9f fc 	j	-56
   18c98:	93 77 04 20 	andi	a5, s0, 512
   18c9c:	e3 80 07 fe 	beqz	a5, -32
   18ca0:	03 cd 0a 00 	lbu	s10, 0(s5)
   18ca4:	6f f0 df fe 	j	-20
   18ca8:	93 87 4a 00 	addi	a5, s5, 4
   18cac:	23 2c f1 00 	sw	a5, 24(sp)
   18cb0:	b7 87 ff ff 	lui	a5, 1048568
   18cb4:	93 c7 07 83 	xori	a5, a5, -2000
   18cb8:	23 1c f1 0a 	sh	a5, 184(sp)
   18cbc:	b7 27 02 00 	lui	a5, 34
   18cc0:	93 87 07 fd 	addi	a5, a5, -48
   18cc4:	23 20 f1 04 	sw	a5, 64(sp)
   18cc8:	03 ad 0a 00 	lw	s10, 0(s5)
   18ccc:	93 0d 00 00 	mv	s11, zero
   18cd0:	13 64 24 00 	ori	s0, s0, 2
   18cd4:	93 07 20 00 	addi	a5, zero, 2
   18cd8:	13 0b 80 07 	addi	s6, zero, 120
   18cdc:	6f f0 9f f8 	j	-120
   18ce0:	93 87 4a 00 	addi	a5, s5, 4
   18ce4:	23 2c f1 00 	sw	a5, 24(sp)
   18ce8:	a3 0b 01 0a 	sb	zero, 183(sp)
   18cec:	93 07 f0 ff 	addi	a5, zero, -1
   18cf0:	83 a4 0a 00 	lw	s1, 0(s5)
   18cf4:	63 84 fb 02 	beq	s7, a5, 40
   18cf8:	13 86 0b 00 	mv	a2, s7
   18cfc:	93 05 00 00 	mv	a1, zero
   18d00:	13 85 04 00 	mv	a0, s1
   18d04:	ef d0 9f ad 	jal	-9512
   18d08:	23 26 a1 00 	sw	a0, 12(sp)
   18d0c:	63 04 05 e4 	beqz	a0, -2488
   18d10:	b3 0b 95 40 	sub	s7, a0, s1
   18d14:	23 26 01 00 	sw	zero, 12(sp)
   18d18:	6f f0 cf e3 	j	-2500
   18d1c:	13 85 04 00 	mv	a0, s1
   18d20:	ef e0 5f e3 	jal	-4556
   18d24:	93 0b 05 00 	mv	s7, a0
   18d28:	6f f0 df fe 	j	-20
   18d2c:	13 64 04 01 	ori	s0, s0, 16
   18d30:	93 77 04 02 	andi	a5, s0, 32
   18d34:	63 82 07 02 	beqz	a5, 36
   18d38:	93 8a 7a 00 	addi	s5, s5, 7
   18d3c:	93 fa 8a ff 	andi	s5, s5, -8
   18d40:	03 ad 0a 00 	lw	s10, 0(s5)
   18d44:	83 ad 4a 00 	lw	s11, 4(s5)
   18d48:	93 87 8a 00 	addi	a5, s5, 8
   18d4c:	23 2c f1 00 	sw	a5, 24(sp)
   18d50:	93 07 10 00 	addi	a5, zero, 1
   18d54:	6f f0 1f f1 	j	-240
   18d58:	93 87 4a 00 	addi	a5, s5, 4
   18d5c:	23 2c f1 00 	sw	a5, 24(sp)
   18d60:	93 77 04 01 	andi	a5, s0, 16
   18d64:	63 86 07 00 	beqz	a5, 12
   18d68:	03 ad 0a 00 	lw	s10, 0(s5)
   18d6c:	6f 00 00 01 	j	16
   18d70:	93 77 04 04 	andi	a5, s0, 64
   18d74:	63 88 07 00 	beqz	a5, 16
   18d78:	03 dd 0a 00 	lhu	s10, 0(s5)
   18d7c:	93 0d 00 00 	mv	s11, zero
   18d80:	6f f0 1f fd 	j	-48
   18d84:	93 77 04 20 	andi	a5, s0, 512
   18d88:	e3 80 07 fe 	beqz	a5, -32
   18d8c:	03 cd 0a 00 	lbu	s10, 0(s5)
   18d90:	6f f0 df fe 	j	-20
   18d94:	b7 27 02 00 	lui	a5, 34
   18d98:	93 87 47 fe 	addi	a5, a5, -28
   18d9c:	23 20 f1 04 	sw	a5, 64(sp)
   18da0:	93 77 04 02 	andi	a5, s0, 32
   18da4:	63 8a 07 04 	beqz	a5, 84
   18da8:	93 8a 7a 00 	addi	s5, s5, 7
   18dac:	93 fa 8a ff 	andi	s5, s5, -8
   18db0:	03 ad 0a 00 	lw	s10, 0(s5)
   18db4:	83 ad 4a 00 	lw	s11, 4(s5)
   18db8:	93 87 8a 00 	addi	a5, s5, 8
   18dbc:	23 2c f1 00 	sw	a5, 24(sp)
   18dc0:	93 77 14 00 	andi	a5, s0, 1
   18dc4:	63 8e 07 00 	beqz	a5, 28
   18dc8:	b3 67 bd 01 	or	a5, s10, s11
   18dcc:	63 8a 07 00 	beqz	a5, 20
   18dd0:	93 07 00 03 	addi	a5, zero, 48
   18dd4:	23 0c f1 0a 	sb	a5, 184(sp)
   18dd8:	a3 0c 61 0b 	sb	s6, 185(sp)
   18ddc:	13 64 24 00 	ori	s0, s0, 2
   18de0:	13 74 f4 bf 	andi	s0, s0, -1025
   18de4:	93 07 20 00 	addi	a5, zero, 2
   18de8:	6f f0 df e7 	j	-388
   18dec:	b7 27 02 00 	lui	a5, 34
   18df0:	93 87 07 fd 	addi	a5, a5, -48
   18df4:	6f f0 9f fa 	j	-88
   18df8:	93 87 4a 00 	addi	a5, s5, 4
   18dfc:	23 2c f1 00 	sw	a5, 24(sp)
   18e00:	93 77 04 01 	andi	a5, s0, 16
   18e04:	63 86 07 00 	beqz	a5, 12
   18e08:	03 ad 0a 00 	lw	s10, 0(s5)
   18e0c:	6f 00 00 01 	j	16
   18e10:	93 77 04 04 	andi	a5, s0, 64
   18e14:	63 88 07 00 	beqz	a5, 16
   18e18:	03 dd 0a 00 	lhu	s10, 0(s5)
   18e1c:	93 0d 00 00 	mv	s11, zero
   18e20:	6f f0 1f fa 	j	-96
   18e24:	93 77 04 20 	andi	a5, s0, 512
   18e28:	e3 80 07 fe 	beqz	a5, -32
   18e2c:	03 cd 0a 00 	lbu	s10, 0(s5)
   18e30:	6f f0 df fe 	j	-20
   18e34:	13 07 04 00 	mv	a4, s0
   18e38:	93 07 10 00 	addi	a5, zero, 1
   18e3c:	6f f0 8f c0 	j	-3064
   18e40:	13 07 10 00 	addi	a4, zero, 1
   18e44:	e3 80 e7 4a 	beq	a5, a4, 3232
   18e48:	13 07 20 00 	addi	a4, zero, 2
   18e4c:	63 8a e7 12 	beq	a5, a4, 308
   18e50:	93 07 01 1a 	addi	a5, sp, 416
   18e54:	93 96 dd 01 	slli	a3, s11, 29
   18e58:	13 77 7d 00 	andi	a4, s10, 7
   18e5c:	13 5d 3d 00 	srli	s10, s10, 3
   18e60:	13 07 07 03 	addi	a4, a4, 48
   18e64:	33 ed a6 01 	or	s10, a3, s10
   18e68:	93 dd 3d 00 	srli	s11, s11, 3
   18e6c:	a3 8f e7 fe 	sb	a4, -1(a5)
   18e70:	b3 66 bd 01 	or	a3, s10, s11
   18e74:	93 84 f7 ff 	addi	s1, a5, -1
   18e78:	63 9e 06 02 	bnez	a3, 60
   18e7c:	93 76 14 00 	andi	a3, s0, 1
   18e80:	63 8a 06 00 	beqz	a3, 20
   18e84:	93 06 00 03 	addi	a3, zero, 48
   18e88:	63 06 d7 00 	beq	a4, a3, 12
   18e8c:	a3 8f d4 fe 	sb	a3, -1(s1)
   18e90:	93 84 e7 ff 	addi	s1, a5, -2
   18e94:	93 07 01 1a 	addi	a5, sp, 416
   18e98:	13 87 0b 00 	mv	a4, s7
   18e9c:	23 26 01 00 	sw	zero, 12(sp)
   18ea0:	b3 8b 97 40 	sub	s7, a5, s1
   18ea4:	13 0d 00 00 	mv	s10, zero
   18ea8:	93 0c 00 00 	mv	s9, zero
   18eac:	93 0d 00 00 	mv	s11, zero
   18eb0:	6f f0 cf 88 	j	-3956
   18eb4:	93 87 04 00 	mv	a5, s1
   18eb8:	6f f0 df f9 	j	-100
   18ebc:	13 77 04 40 	andi	a4, s0, 1024
   18ec0:	13 0a 00 00 	mv	s4, zero
   18ec4:	93 07 01 1a 	addi	a5, sp, 416
   18ec8:	23 26 e1 00 	sw	a4, 12(sp)
   18ecc:	93 0c f0 0f 	addi	s9, zero, 255
   18ed0:	93 0a 90 00 	addi	s5, zero, 9
   18ed4:	13 06 a0 00 	addi	a2, zero, 10
   18ed8:	93 06 00 00 	mv	a3, zero
   18edc:	13 05 0d 00 	mv	a0, s10
   18ee0:	93 85 0d 00 	mv	a1, s11
   18ee4:	93 84 f7 ff 	addi	s1, a5, -1
   18ee8:	23 26 f1 02 	sw	a5, 44(sp)
   18eec:	ef 40 40 64 	jal	17988
   18ef0:	83 27 c1 02 	lw	a5, 44(sp)
   18ef4:	13 05 05 03 	addi	a0, a0, 48
   18ef8:	13 0a 1a 00 	addi	s4, s4, 1
   18efc:	a3 8f a7 fe 	sb	a0, -1(a5)
   18f00:	83 27 c1 00 	lw	a5, 12(sp)
   18f04:	63 88 07 04 	beqz	a5, 80
   18f08:	83 27 01 01 	lw	a5, 16(sp)
   18f0c:	83 c7 07 00 	lbu	a5, 0(a5)
   18f10:	63 12 fa 04 	bne	s4, a5, 68
   18f14:	63 00 9a 05 	beq	s4, s9, 64
   18f18:	63 94 0d 00 	bnez	s11, 8
   18f1c:	63 fc aa 03 	bgeu	s5, s10, 56
   18f20:	83 27 01 03 	lw	a5, 48(sp)
   18f24:	83 25 81 03 	lw	a1, 56(sp)
   18f28:	13 0a 00 00 	mv	s4, zero
   18f2c:	b3 84 f4 40 	sub	s1, s1, a5
   18f30:	13 86 07 00 	mv	a2, a5
   18f34:	13 85 04 00 	mv	a0, s1
   18f38:	ef e0 9f c3 	jal	-5064
   18f3c:	83 27 01 01 	lw	a5, 16(sp)
   18f40:	83 c7 17 00 	lbu	a5, 1(a5)
   18f44:	63 88 07 00 	beqz	a5, 16
   18f48:	83 27 01 01 	lw	a5, 16(sp)
   18f4c:	93 87 17 00 	addi	a5, a5, 1
   18f50:	23 28 f1 00 	sw	a5, 16(sp)
   18f54:	13 06 a0 00 	addi	a2, zero, 10
   18f58:	93 06 00 00 	mv	a3, zero
   18f5c:	13 05 0d 00 	mv	a0, s10
   18f60:	93 85 0d 00 	mv	a1, s11
   18f64:	ef 30 90 7f 	jal	16376
   18f68:	63 94 0d 00 	bnez	s11, 8
   18f6c:	e3 f4 aa f3 	bgeu	s5, s10, -216
   18f70:	13 0d 05 00 	mv	s10, a0
   18f74:	93 8d 05 00 	mv	s11, a1
   18f78:	93 87 04 00 	mv	a5, s1
   18f7c:	6f f0 9f f5 	j	-168
   18f80:	93 04 01 1a 	addi	s1, sp, 416
   18f84:	03 27 01 04 	lw	a4, 64(sp)
   18f88:	93 77 fd 00 	andi	a5, s10, 15
   18f8c:	93 84 f4 ff 	addi	s1, s1, -1
   18f90:	b3 07 f7 00 	add	a5, a4, a5
   18f94:	83 c7 07 00 	lbu	a5, 0(a5)
   18f98:	13 5d 4d 00 	srli	s10, s10, 4
   18f9c:	23 80 f4 00 	sb	a5, 0(s1)
   18fa0:	93 97 cd 01 	slli	a5, s11, 28
   18fa4:	33 ed a7 01 	or	s10, a5, s10
   18fa8:	93 dd 4d 00 	srli	s11, s11, 4
   18fac:	b3 67 bd 01 	or	a5, s10, s11
   18fb0:	e3 9a 07 fc 	bnez	a5, -44
   18fb4:	6f f0 1f ee 	j	-288
   18fb8:	93 04 01 1a 	addi	s1, sp, 416
   18fbc:	e3 9c 07 ec 	bnez	a5, -296
   18fc0:	13 77 17 00 	andi	a4, a4, 1
   18fc4:	e3 08 07 ec 	beqz	a4, -304
   18fc8:	93 07 00 03 	addi	a5, zero, 48
   18fcc:	a3 0f f1 18 	sb	a5, 415(sp)
   18fd0:	6f 00 90 32 	j	2856
   18fd4:	e3 04 0b 2e 	beqz	s6, 2792
   18fd8:	23 0e 61 13 	sb	s6, 316(sp)
   18fdc:	a3 0b 01 0a 	sb	zero, 183(sp)
   18fe0:	23 2c 51 01 	sw	s5, 24(sp)
   18fe4:	6f e0 df f3 	j	-4292
   18fe8:	93 85 05 01 	addi	a1, a1, 16
   18fec:	23 22 cc 01 	sw	t3, 4(s8)
   18ff0:	23 2e b1 0c 	sw	a1, 220(sp)
   18ff4:	23 2c c1 0c 	sw	a2, 216(sp)
   18ff8:	63 de ce 02 	bge	t4, a2, 60
   18ffc:	13 06 41 0d 	addi	a2, sp, 212
   19000:	93 85 09 00 	mv	a1, s3
   19004:	13 05 09 00 	mv	a0, s2
   19008:	23 28 e1 04 	sw	a4, 80(sp)
   1900c:	23 24 d1 04 	sw	a3, 72(sp)
   19010:	ef 20 50 3d 	jal	11220
   19014:	e3 12 05 24 	bnez	a0, 2628
   19018:	03 27 01 05 	lw	a4, 80(sp)
   1901c:	83 26 81 04 	lw	a3, 72(sp)
   19020:	b7 27 02 00 	lui	a5, 34
   19024:	13 05 c1 0f 	addi	a0, sp, 252
   19028:	93 0e 70 00 	addi	t4, zero, 7
   1902c:	13 88 c7 50 	addi	a6, a5, 1292
   19030:	13 0e 00 01 	addi	t3, zero, 16
   19034:	93 86 06 ff 	addi	a3, a3, -16
   19038:	13 0c 05 00 	mv	s8, a0
   1903c:	6f e0 1f f6 	j	-4256
   19040:	13 06 06 01 	addi	a2, a2, 16
   19044:	23 22 0c 01 	sw	a6, 4(s8)
   19048:	23 2e c1 0c 	sw	a2, 220(sp)
   1904c:	23 2c d1 0c 	sw	a3, 216(sp)
   19050:	63 56 de 02 	bge	t3, a3, 44
   19054:	13 06 41 0d 	addi	a2, sp, 212
   19058:	93 85 09 00 	mv	a1, s3
   1905c:	13 05 09 00 	mv	a0, s2
   19060:	23 22 e1 04 	sw	a4, 68(sp)
   19064:	ef 20 10 38 	jal	11136
   19068:	e3 18 05 1e 	bnez	a0, 2544
   1906c:	03 27 41 04 	lw	a4, 68(sp)
   19070:	93 05 c1 0f 	addi	a1, sp, 252
   19074:	13 0e 70 00 	addi	t3, zero, 7
   19078:	13 08 00 01 	addi	a6, zero, 16
   1907c:	93 8a 0a ff 	addi	s5, s5, -16
   19080:	13 8c 05 00 	mv	s8, a1
   19084:	6f f0 4f 85 	j	-4012
   19088:	13 07 07 01 	addi	a4, a4, 16
   1908c:	23 22 0c 01 	sw	a6, 4(s8)
   19090:	23 2e e1 0c 	sw	a4, 220(sp)
   19094:	23 2c d1 0c 	sw	a3, 216(sp)
   19098:	63 52 de 02 	bge	t3, a3, 36
   1909c:	13 06 41 0d 	addi	a2, sp, 212
   190a0:	93 85 09 00 	mv	a1, s3
   190a4:	13 05 09 00 	mv	a0, s2
   190a8:	ef 20 d0 33 	jal	11068
   190ac:	e3 16 05 1a 	bnez	a0, 2476
   190b0:	13 06 c1 0f 	addi	a2, sp, 252
   190b4:	13 0e 70 00 	addi	t3, zero, 7
   190b8:	13 08 00 01 	addi	a6, zero, 16
   190bc:	93 8a 0a ff 	addi	s5, s5, -16
   190c0:	13 0c 06 00 	mv	s8, a2
   190c4:	6f f0 0f 88 	j	-3968
   190c8:	93 06 50 06 	addi	a3, zero, 101
   190cc:	63 d4 66 73 	bge	a3, s6, 1832
   190d0:	83 26 01 0e 	lw	a3, 224(sp)
   190d4:	93 05 01 09 	addi	a1, sp, 144
   190d8:	13 05 01 0a 	addi	a0, sp, 160
   190dc:	23 20 d1 0a 	sw	a3, 160(sp)
   190e0:	83 26 41 0e 	lw	a3, 228(sp)
   190e4:	23 22 e1 04 	sw	a4, 68(sp)
   190e8:	23 28 01 08 	sw	zero, 144(sp)
   190ec:	23 22 d1 0a 	sw	a3, 164(sp)
   190f0:	83 26 81 0e 	lw	a3, 232(sp)
   190f4:	23 2a 01 08 	sw	zero, 148(sp)
   190f8:	23 2c 01 08 	sw	zero, 152(sp)
   190fc:	23 24 d1 0a 	sw	a3, 168(sp)
   19100:	83 26 c1 0e 	lw	a3, 236(sp)
   19104:	23 2e 01 08 	sw	zero, 156(sp)
   19108:	23 26 d1 0a 	sw	a3, 172(sp)
   1910c:	ef 50 c0 74 	jal	22348
   19110:	03 27 41 04 	lw	a4, 68(sp)
   19114:	63 1a 05 12 	bnez	a0, 308
   19118:	b7 27 02 00 	lui	a5, 34
   1911c:	93 87 87 ff 	addi	a5, a5, -8
   19120:	23 20 fc 00 	sw	a5, 0(s8)
   19124:	93 07 10 00 	addi	a5, zero, 1
   19128:	23 22 fc 00 	sw	a5, 4(s8)
   1912c:	83 27 81 0d 	lw	a5, 216(sp)
   19130:	13 07 17 00 	addi	a4, a4, 1
   19134:	23 2e e1 0c 	sw	a4, 220(sp)
   19138:	93 87 17 00 	addi	a5, a5, 1
   1913c:	23 2c f1 0c 	sw	a5, 216(sp)
   19140:	13 07 70 00 	addi	a4, zero, 7
   19144:	13 0c 8c 00 	addi	s8, s8, 8
   19148:	63 5e f7 00 	bge	a4, a5, 28
   1914c:	13 06 41 0d 	addi	a2, sp, 212
   19150:	93 85 09 00 	mv	a1, s3
   19154:	13 05 09 00 	mv	a0, s2
   19158:	ef 20 d0 28 	jal	10892
   1915c:	e3 1e 05 0e 	bnez	a0, 2300
   19160:	13 0c c1 0f 	addi	s8, sp, 252
   19164:	83 27 c1 0b 	lw	a5, 188(sp)
   19168:	63 c6 47 01 	blt	a5, s4, 12
   1916c:	93 77 14 00 	andi	a5, s0, 1
   19170:	63 80 07 22 	beqz	a5, 544
   19174:	83 27 41 03 	lw	a5, 52(sp)
   19178:	03 27 01 02 	lw	a4, 32(sp)
   1917c:	13 0c 8c 00 	addi	s8, s8, 8
   19180:	23 2c fc fe 	sw	a5, -8(s8)
   19184:	83 27 01 02 	lw	a5, 32(sp)
   19188:	23 2e fc fe 	sw	a5, -4(s8)
   1918c:	83 27 c1 0d 	lw	a5, 220(sp)
   19190:	b3 87 e7 00 	add	a5, a5, a4
   19194:	23 2e f1 0c 	sw	a5, 220(sp)
   19198:	83 27 81 0d 	lw	a5, 216(sp)
   1919c:	13 07 70 00 	addi	a4, zero, 7
   191a0:	93 87 17 00 	addi	a5, a5, 1
   191a4:	23 2c f1 0c 	sw	a5, 216(sp)
   191a8:	63 5e f7 00 	bge	a4, a5, 28
   191ac:	13 06 41 0d 	addi	a2, sp, 212
   191b0:	93 85 09 00 	mv	a1, s3
   191b4:	13 05 09 00 	mv	a0, s2
   191b8:	ef 20 d0 22 	jal	10796
   191bc:	e3 1e 05 08 	bnez	a0, 2204
   191c0:	13 0c c1 0f 	addi	s8, sp, 252
   191c4:	93 04 fa ff 	addi	s1, s4, -1
   191c8:	63 54 90 1c 	blez	s1, 456
   191cc:	93 0a 00 01 	addi	s5, zero, 16
   191d0:	13 0b 70 00 	addi	s6, zero, 7
   191d4:	03 26 41 01 	lw	a2, 20(sp)
   191d8:	83 27 81 0d 	lw	a5, 216(sp)
   191dc:	03 27 c1 0d 	lw	a4, 220(sp)
   191e0:	23 20 cc 00 	sw	a2, 0(s8)
   191e4:	93 87 17 00 	addi	a5, a5, 1
   191e8:	93 06 8c 00 	addi	a3, s8, 8
   191ec:	63 c2 9a 02 	blt	s5, s1, 36
   191f0:	23 22 9c 00 	sw	s1, 4(s8)
   191f4:	b3 84 e4 00 	add	s1, s1, a4
   191f8:	23 2e 91 0c 	sw	s1, 220(sp)
   191fc:	23 2c f1 0c 	sw	a5, 216(sp)
   19200:	13 07 70 00 	addi	a4, zero, 7
   19204:	13 8c 06 00 	mv	s8, a3
   19208:	63 54 f7 18 	bge	a4, a5, 392
   1920c:	6f e0 5f fc 	j	-4156
   19210:	13 07 07 01 	addi	a4, a4, 16
   19214:	23 22 5c 01 	sw	s5, 4(s8)
   19218:	23 2e e1 0c 	sw	a4, 220(sp)
   1921c:	23 2c f1 0c 	sw	a5, 216(sp)
   19220:	63 5e fb 00 	bge	s6, a5, 28
   19224:	13 06 41 0d 	addi	a2, sp, 212
   19228:	93 85 09 00 	mv	a1, s3
   1922c:	13 05 09 00 	mv	a0, s2
   19230:	ef 20 50 1b 	jal	10676
   19234:	e3 12 05 02 	bnez	a0, 2084
   19238:	93 06 c1 0f 	addi	a3, sp, 252
   1923c:	93 84 04 ff 	addi	s1, s1, -16
   19240:	13 8c 06 00 	mv	s8, a3
   19244:	6f f0 1f f9 	j	-112
   19248:	83 26 c1 0b 	lw	a3, 188(sp)
   1924c:	63 48 d0 1c 	bgtz	a3, 464
   19250:	b7 27 02 00 	lui	a5, 34
   19254:	93 87 87 ff 	addi	a5, a5, -8
   19258:	23 20 fc 00 	sw	a5, 0(s8)
   1925c:	93 07 10 00 	addi	a5, zero, 1
   19260:	23 22 fc 00 	sw	a5, 4(s8)
   19264:	83 27 81 0d 	lw	a5, 216(sp)
   19268:	13 07 17 00 	addi	a4, a4, 1
   1926c:	23 2e e1 0c 	sw	a4, 220(sp)
   19270:	93 87 17 00 	addi	a5, a5, 1
   19274:	23 2c f1 0c 	sw	a5, 216(sp)
   19278:	13 07 70 00 	addi	a4, zero, 7
   1927c:	13 0c 8c 00 	addi	s8, s8, 8
   19280:	63 5e f7 00 	bge	a4, a5, 28
   19284:	13 06 41 0d 	addi	a2, sp, 212
   19288:	93 85 09 00 	mv	a1, s3
   1928c:	13 05 09 00 	mv	a0, s2
   19290:	ef 20 50 15 	jal	10580
   19294:	63 12 05 7c 	bnez	a0, 1988
   19298:	13 0c c1 0f 	addi	s8, sp, 252
   1929c:	83 27 c1 0b 	lw	a5, 188(sp)
   192a0:	93 76 14 00 	andi	a3, s0, 1
   192a4:	03 27 c1 0d 	lw	a4, 220(sp)
   192a8:	b3 67 fa 00 	or	a5, s4, a5
   192ac:	b3 e7 d7 00 	or	a5, a5, a3
   192b0:	63 80 07 0e 	beqz	a5, 224
   192b4:	83 27 41 03 	lw	a5, 52(sp)
   192b8:	93 08 8c 00 	addi	a7, s8, 8
   192bc:	23 20 fc 00 	sw	a5, 0(s8)
   192c0:	83 27 01 02 	lw	a5, 32(sp)
   192c4:	23 22 fc 00 	sw	a5, 4(s8)
   192c8:	b3 07 f7 00 	add	a5, a4, a5
   192cc:	23 2e f1 0c 	sw	a5, 220(sp)
   192d0:	83 27 81 0d 	lw	a5, 216(sp)
   192d4:	13 07 70 00 	addi	a4, zero, 7
   192d8:	93 87 17 00 	addi	a5, a5, 1
   192dc:	23 2c f1 0c 	sw	a5, 216(sp)
   192e0:	63 5e f7 00 	bge	a4, a5, 28
   192e4:	13 06 41 0d 	addi	a2, sp, 212
   192e8:	93 85 09 00 	mv	a1, s3
   192ec:	13 05 09 00 	mv	a0, s2
   192f0:	ef 20 50 0f 	jal	10484
   192f4:	63 12 05 76 	bnez	a0, 1892
   192f8:	93 08 c1 0f 	addi	a7, sp, 252
   192fc:	83 2a c1 0b 	lw	s5, 188(sp)
   19300:	63 d0 0a 06 	bgez	s5, 96
   19304:	b3 0a 50 41 	neg	s5, s5
   19308:	13 87 08 00 	mv	a4, a7
   1930c:	13 0b 00 01 	addi	s6, zero, 16
   19310:	93 0c 70 00 	addi	s9, zero, 7
   19314:	03 26 41 01 	lw	a2, 20(sp)
   19318:	83 27 81 0d 	lw	a5, 216(sp)
   1931c:	83 26 c1 0d 	lw	a3, 220(sp)
   19320:	23 20 c7 00 	sw	a2, 0(a4)
   19324:	93 87 17 00 	addi	a5, a5, 1
   19328:	93 88 88 00 	addi	a7, a7, 8
   1932c:	63 4c 5b 0b 	blt	s6, s5, 184
   19330:	23 22 57 01 	sw	s5, 4(a4)
   19334:	b3 8a da 00 	add	s5, s5, a3
   19338:	23 2e 51 0d 	sw	s5, 220(sp)
   1933c:	23 2c f1 0c 	sw	a5, 216(sp)
   19340:	13 07 70 00 	addi	a4, zero, 7
   19344:	63 5e f7 00 	bge	a4, a5, 28
   19348:	13 06 41 0d 	addi	a2, sp, 212
   1934c:	93 85 09 00 	mv	a1, s3
   19350:	13 05 09 00 	mv	a0, s2
   19354:	ef 20 10 09 	jal	10384
   19358:	63 10 05 70 	bnez	a0, 1792
   1935c:	93 08 c1 0f 	addi	a7, sp, 252
   19360:	83 27 c1 0d 	lw	a5, 220(sp)
   19364:	23 a0 98 00 	sw	s1, 0(a7)
   19368:	23 a2 48 01 	sw	s4, 4(a7)
   1936c:	b3 87 47 01 	add	a5, a5, s4
   19370:	23 2e f1 0c 	sw	a5, 220(sp)
   19374:	83 27 81 0d 	lw	a5, 216(sp)
   19378:	13 07 70 00 	addi	a4, zero, 7
   1937c:	13 8c 88 00 	addi	s8, a7, 8
   19380:	93 87 17 00 	addi	a5, a5, 1
   19384:	23 2c f1 0c 	sw	a5, 216(sp)
   19388:	63 54 f7 00 	bge	a4, a5, 8
   1938c:	6f e0 5f e4 	j	-4540
   19390:	13 74 44 00 	andi	s0, s0, 4
   19394:	63 12 04 66 	bnez	s0, 1636
   19398:	03 2b 81 02 	lw	s6, 40(sp)
   1939c:	83 27 c1 02 	lw	a5, 44(sp)
   193a0:	63 54 fb 00 	bge	s6, a5, 8
   193a4:	13 8b 07 00 	mv	s6, a5
   193a8:	83 27 41 02 	lw	a5, 36(sp)
   193ac:	b3 87 67 01 	add	a5, a5, s6
   193b0:	23 22 f1 02 	sw	a5, 36(sp)
   193b4:	83 27 c1 0d 	lw	a5, 220(sp)
   193b8:	63 8c 07 00 	beqz	a5, 24
   193bc:	13 06 41 0d 	addi	a2, sp, 212
   193c0:	93 85 09 00 	mv	a1, s3
   193c4:	13 05 09 00 	mv	a0, s2
   193c8:	ef 20 d0 01 	jal	10268
   193cc:	63 16 05 68 	bnez	a0, 1676
   193d0:	83 27 c1 00 	lw	a5, 12(sp)
   193d4:	23 2c 01 0c 	sw	zero, 216(sp)
   193d8:	63 9a 07 6c 	bnez	a5, 1748
   193dc:	13 0c c1 0f 	addi	s8, sp, 252
   193e0:	6f f0 1f 81 	j	-2032
   193e4:	93 86 06 01 	addi	a3, a3, 16
   193e8:	23 22 67 01 	sw	s6, 4(a4)
   193ec:	23 2e d1 0c 	sw	a3, 220(sp)
   193f0:	23 2c f1 0c 	sw	a5, 216(sp)
   193f4:	63 de fc 00 	bge	s9, a5, 28
   193f8:	13 06 41 0d 	addi	a2, sp, 212
   193fc:	93 85 09 00 	mv	a1, s3
   19400:	13 05 09 00 	mv	a0, s2
   19404:	ef 20 00 7e 	jal	10208
   19408:	63 18 05 64 	bnez	a0, 1616
   1940c:	93 08 c1 0f 	addi	a7, sp, 252
   19410:	93 8a 0a ff 	addi	s5, s5, -16
   19414:	13 87 08 00 	mv	a4, a7
   19418:	6f f0 df ef 	j	-260
   1941c:	93 8a 0d 00 	mv	s5, s11
   19420:	63 54 ba 01 	bge	s4, s11, 8
   19424:	93 0a 0a 00 	mv	s5, s4
   19428:	63 52 50 05 	blez	s5, 68
   1942c:	33 87 ea 00 	add	a4, s5, a4
   19430:	23 2e e1 0c 	sw	a4, 220(sp)
   19434:	03 27 81 0d 	lw	a4, 216(sp)
   19438:	23 20 9c 00 	sw	s1, 0(s8)
   1943c:	23 22 5c 01 	sw	s5, 4(s8)
   19440:	13 07 17 00 	addi	a4, a4, 1
   19444:	23 2c e1 0c 	sw	a4, 216(sp)
   19448:	93 06 70 00 	addi	a3, zero, 7
   1944c:	13 0c 8c 00 	addi	s8, s8, 8
   19450:	63 de e6 00 	bge	a3, a4, 28
   19454:	13 06 41 0d 	addi	a2, sp, 212
   19458:	93 85 09 00 	mv	a1, s3
   1945c:	13 05 09 00 	mv	a0, s2
   19460:	ef 20 40 78 	jal	10116
   19464:	63 1a 05 5e 	bnez	a0, 1524
   19468:	13 0c c1 0f 	addi	s8, sp, 252
   1946c:	63 d4 0a 00 	bgez	s5, 8
   19470:	93 0a 00 00 	mv	s5, zero
   19474:	b3 8a 5d 41 	sub	s5, s11, s5
   19478:	63 5e 50 05 	blez	s5, 92
   1947c:	13 0b 00 01 	addi	s6, zero, 16
   19480:	93 0b 70 00 	addi	s7, zero, 7
   19484:	83 27 41 01 	lw	a5, 20(sp)
   19488:	03 27 81 0d 	lw	a4, 216(sp)
   1948c:	83 26 c1 0d 	lw	a3, 220(sp)
   19490:	23 20 fc 00 	sw	a5, 0(s8)
   19494:	13 07 17 00 	addi	a4, a4, 1
   19498:	13 06 8c 00 	addi	a2, s8, 8
   1949c:	63 4c 5b 19 	blt	s6, s5, 408
   194a0:	23 22 5c 01 	sw	s5, 4(s8)
   194a4:	b3 8a da 00 	add	s5, s5, a3
   194a8:	23 2e 51 0d 	sw	s5, 220(sp)
   194ac:	23 2c e1 0c 	sw	a4, 216(sp)
   194b0:	93 06 70 00 	addi	a3, zero, 7
   194b4:	13 0c 06 00 	mv	s8, a2
   194b8:	63 de e6 00 	bge	a3, a4, 28
   194bc:	13 06 41 0d 	addi	a2, sp, 212
   194c0:	93 85 09 00 	mv	a1, s3
   194c4:	13 05 09 00 	mv	a0, s2
   194c8:	ef 20 c0 71 	jal	10012
   194cc:	63 16 05 58 	bnez	a0, 1420
   194d0:	13 0c c1 0f 	addi	s8, sp, 252
   194d4:	93 77 04 40 	andi	a5, s0, 1024
   194d8:	b3 8a b4 01 	add	s5, s1, s11
   194dc:	63 80 07 02 	beqz	a5, 32
   194e0:	13 0b 70 00 	addi	s6, zero, 7
   194e4:	b3 8b 44 01 	add	s7, s1, s4
   194e8:	63 92 0c 18 	bnez	s9, 388
   194ec:	63 12 0d 18 	bnez	s10, 388
   194f0:	b3 87 44 01 	add	a5, s1, s4
   194f4:	63 f4 57 01 	bgeu	a5, s5, 8
   194f8:	93 8a 07 00 	mv	s5, a5
   194fc:	83 27 c1 0b 	lw	a5, 188(sp)
   19500:	63 c6 47 01 	blt	a5, s4, 12
   19504:	93 77 14 00 	andi	a5, s0, 1
   19508:	63 8a 07 04 	beqz	a5, 84
   1950c:	83 27 41 03 	lw	a5, 52(sp)
   19510:	03 27 01 02 	lw	a4, 32(sp)
   19514:	13 0c 8c 00 	addi	s8, s8, 8
   19518:	23 2c fc fe 	sw	a5, -8(s8)
   1951c:	83 27 01 02 	lw	a5, 32(sp)
   19520:	23 2e fc fe 	sw	a5, -4(s8)
   19524:	83 27 c1 0d 	lw	a5, 220(sp)
   19528:	b3 87 e7 00 	add	a5, a5, a4
   1952c:	23 2e f1 0c 	sw	a5, 220(sp)
   19530:	83 27 81 0d 	lw	a5, 216(sp)
   19534:	13 07 70 00 	addi	a4, zero, 7
   19538:	93 87 17 00 	addi	a5, a5, 1
   1953c:	23 2c f1 0c 	sw	a5, 216(sp)
   19540:	63 5e f7 00 	bge	a4, a5, 28
   19544:	13 06 41 0d 	addi	a2, sp, 212
   19548:	93 85 09 00 	mv	a1, s3
   1954c:	13 05 09 00 	mv	a0, s2
   19550:	ef 20 40 69 	jal	9876
   19554:	63 12 05 50 	bnez	a0, 1284
   19558:	13 0c c1 0f 	addi	s8, sp, 252
   1955c:	b3 84 44 01 	add	s1, s1, s4
   19560:	b3 87 54 41 	sub	a5, s1, s5
   19564:	83 24 c1 0b 	lw	s1, 188(sp)
   19568:	b3 04 9a 40 	sub	s1, s4, s1
   1956c:	63 d4 97 00 	bge	a5, s1, 8
   19570:	93 84 07 00 	mv	s1, a5
   19574:	63 54 90 04 	blez	s1, 72
   19578:	83 27 c1 0d 	lw	a5, 220(sp)
   1957c:	23 20 5c 01 	sw	s5, 0(s8)
   19580:	23 22 9c 00 	sw	s1, 4(s8)
   19584:	b3 87 f4 00 	add	a5, s1, a5
   19588:	23 2e f1 0c 	sw	a5, 220(sp)
   1958c:	83 27 81 0d 	lw	a5, 216(sp)
   19590:	13 07 70 00 	addi	a4, zero, 7
   19594:	13 0c 8c 00 	addi	s8, s8, 8
   19598:	93 87 17 00 	addi	a5, a5, 1
   1959c:	23 2c f1 0c 	sw	a5, 216(sp)
   195a0:	63 5e f7 00 	bge	a4, a5, 28
   195a4:	13 06 41 0d 	addi	a2, sp, 212
   195a8:	93 85 09 00 	mv	a1, s3
   195ac:	13 05 09 00 	mv	a0, s2
   195b0:	ef 20 40 63 	jal	9780
   195b4:	63 12 05 4a 	bnez	a0, 1188
   195b8:	13 0c c1 0f 	addi	s8, sp, 252
   195bc:	93 87 04 00 	mv	a5, s1
   195c0:	63 d4 04 00 	bgez	s1, 8
   195c4:	93 07 00 00 	mv	a5, zero
   195c8:	83 24 c1 0b 	lw	s1, 188(sp)
   195cc:	b3 04 9a 40 	sub	s1, s4, s1
   195d0:	b3 84 f4 40 	sub	s1, s1, a5
   195d4:	e3 5e 90 da 	blez	s1, -580
   195d8:	93 0a 00 01 	addi	s5, zero, 16
   195dc:	13 0b 70 00 	addi	s6, zero, 7
   195e0:	03 26 41 01 	lw	a2, 20(sp)
   195e4:	83 27 81 0d 	lw	a5, 216(sp)
   195e8:	03 27 c1 0d 	lw	a4, 220(sp)
   195ec:	23 20 cc 00 	sw	a2, 0(s8)
   195f0:	93 87 17 00 	addi	a5, a5, 1
   195f4:	93 06 8c 00 	addi	a3, s8, 8
   195f8:	e3 dc 9a be 	bge	s5, s1, -1032
   195fc:	13 07 07 01 	addi	a4, a4, 16
   19600:	23 22 5c 01 	sw	s5, 4(s8)
   19604:	23 2e e1 0c 	sw	a4, 220(sp)
   19608:	23 2c f1 0c 	sw	a5, 216(sp)
   1960c:	63 5e fb 00 	bge	s6, a5, 28
   19610:	13 06 41 0d 	addi	a2, sp, 212
   19614:	93 85 09 00 	mv	a1, s3
   19618:	13 05 09 00 	mv	a0, s2
   1961c:	ef 20 80 5c 	jal	9672
   19620:	63 1c 05 42 	bnez	a0, 1080
   19624:	93 06 c1 0f 	addi	a3, sp, 252
   19628:	93 84 04 ff 	addi	s1, s1, -16
   1962c:	13 8c 06 00 	mv	s8, a3
   19630:	6f f0 1f fb 	j	-80
   19634:	93 86 06 01 	addi	a3, a3, 16
   19638:	23 22 6c 01 	sw	s6, 4(s8)
   1963c:	23 2e d1 0c 	sw	a3, 220(sp)
   19640:	23 2c e1 0c 	sw	a4, 216(sp)
   19644:	63 de eb 00 	bge	s7, a4, 28
   19648:	13 06 41 0d 	addi	a2, sp, 212
   1964c:	93 85 09 00 	mv	a1, s3
   19650:	13 05 09 00 	mv	a0, s2
   19654:	ef 20 00 59 	jal	9616
   19658:	63 10 05 40 	bnez	a0, 1024
   1965c:	13 06 c1 0f 	addi	a2, sp, 252
   19660:	93 8a 0a ff 	addi	s5, s5, -16
   19664:	13 0c 06 00 	mv	s8, a2
   19668:	6f f0 df e1 	j	-484
   1966c:	63 02 0d 0e 	beqz	s10, 228
   19670:	13 0d fd ff 	addi	s10, s10, -1
   19674:	83 27 81 03 	lw	a5, 56(sp)
   19678:	03 27 01 03 	lw	a4, 48(sp)
   1967c:	13 0c 8c 00 	addi	s8, s8, 8
   19680:	23 2c fc fe 	sw	a5, -8(s8)
   19684:	83 27 01 03 	lw	a5, 48(sp)
   19688:	23 2e fc fe 	sw	a5, -4(s8)
   1968c:	83 27 c1 0d 	lw	a5, 220(sp)
   19690:	b3 87 e7 00 	add	a5, a5, a4
   19694:	23 2e f1 0c 	sw	a5, 220(sp)
   19698:	83 27 81 0d 	lw	a5, 216(sp)
   1969c:	93 87 17 00 	addi	a5, a5, 1
   196a0:	23 2c f1 0c 	sw	a5, 216(sp)
   196a4:	63 5e fb 00 	bge	s6, a5, 28
   196a8:	13 06 41 0d 	addi	a2, sp, 212
   196ac:	93 85 09 00 	mv	a1, s3
   196b0:	13 05 09 00 	mv	a0, s2
   196b4:	ef 20 00 53 	jal	9520
   196b8:	63 10 05 3a 	bnez	a0, 928
   196bc:	13 0c c1 0f 	addi	s8, sp, 252
   196c0:	83 27 01 01 	lw	a5, 16(sp)
   196c4:	33 87 5b 41 	sub	a4, s7, s5
   196c8:	83 c7 07 00 	lbu	a5, 0(a5)
   196cc:	63 54 f7 00 	bge	a4, a5, 8
   196d0:	93 07 07 00 	mv	a5, a4
   196d4:	63 56 f0 04 	blez	a5, 76
   196d8:	03 27 c1 0d 	lw	a4, 220(sp)
   196dc:	23 20 5c 01 	sw	s5, 0(s8)
   196e0:	23 22 fc 00 	sw	a5, 4(s8)
   196e4:	33 87 e7 00 	add	a4, a5, a4
   196e8:	23 2e e1 0c 	sw	a4, 220(sp)
   196ec:	03 27 81 0d 	lw	a4, 216(sp)
   196f0:	13 0c 8c 00 	addi	s8, s8, 8
   196f4:	13 07 17 00 	addi	a4, a4, 1
   196f8:	23 2c e1 0c 	sw	a4, 216(sp)
   196fc:	63 52 eb 02 	bge	s6, a4, 36
   19700:	13 06 41 0d 	addi	a2, sp, 212
   19704:	93 85 09 00 	mv	a1, s3
   19708:	13 05 09 00 	mv	a0, s2
   1970c:	23 22 f1 04 	sw	a5, 68(sp)
   19710:	ef 20 40 4d 	jal	9428
   19714:	63 12 05 34 	bnez	a0, 836
   19718:	83 27 41 04 	lw	a5, 68(sp)
   1971c:	13 0c c1 0f 	addi	s8, sp, 252
   19720:	13 87 07 00 	mv	a4, a5
   19724:	63 d4 07 00 	bgez	a5, 8
   19728:	13 07 00 00 	mv	a4, zero
   1972c:	83 27 01 01 	lw	a5, 16(sp)
   19730:	13 08 00 01 	addi	a6, zero, 16
   19734:	83 c7 07 00 	lbu	a5, 0(a5)
   19738:	b3 87 e7 40 	sub	a5, a5, a4
   1973c:	63 44 f0 06 	bgtz	a5, 104
   19740:	83 27 01 01 	lw	a5, 16(sp)
   19744:	83 c7 07 00 	lbu	a5, 0(a5)
   19748:	b3 8a fa 00 	add	s5, s5, a5
   1974c:	6f f0 df d9 	j	-612
   19750:	83 27 01 01 	lw	a5, 16(sp)
   19754:	93 8c fc ff 	addi	s9, s9, -1
   19758:	93 87 f7 ff 	addi	a5, a5, -1
   1975c:	23 28 f1 00 	sw	a5, 16(sp)
   19760:	6f f0 5f f1 	j	-236
   19764:	93 86 06 01 	addi	a3, a3, 16
   19768:	23 22 0c 01 	sw	a6, 4(s8)
   1976c:	23 2e d1 0c 	sw	a3, 220(sp)
   19770:	23 2c e1 0c 	sw	a4, 216(sp)
   19774:	63 54 eb 02 	bge	s6, a4, 40
   19778:	13 06 41 0d 	addi	a2, sp, 212
   1977c:	93 85 09 00 	mv	a1, s3
   19780:	13 05 09 00 	mv	a0, s2
   19784:	23 22 f1 04 	sw	a5, 68(sp)
   19788:	ef 20 c0 45 	jal	9308
   1978c:	63 16 05 2c 	bnez	a0, 716
   19790:	83 27 41 04 	lw	a5, 68(sp)
   19794:	13 06 c1 0f 	addi	a2, sp, 252
   19798:	13 08 00 01 	addi	a6, zero, 16
   1979c:	93 87 07 ff 	addi	a5, a5, -16
   197a0:	13 0c 06 00 	mv	s8, a2
   197a4:	83 25 41 01 	lw	a1, 20(sp)
   197a8:	03 27 81 0d 	lw	a4, 216(sp)
   197ac:	83 26 c1 0d 	lw	a3, 220(sp)
   197b0:	23 20 bc 00 	sw	a1, 0(s8)
   197b4:	13 07 17 00 	addi	a4, a4, 1
   197b8:	13 06 8c 00 	addi	a2, s8, 8
   197bc:	e3 44 f8 fa 	blt	a6, a5, -88
   197c0:	23 22 fc 00 	sw	a5, 4(s8)
   197c4:	b3 87 d7 00 	add	a5, a5, a3
   197c8:	23 2e f1 0c 	sw	a5, 220(sp)
   197cc:	23 2c e1 0c 	sw	a4, 216(sp)
   197d0:	13 0c 06 00 	mv	s8, a2
   197d4:	e3 56 eb f6 	bge	s6, a4, -148
   197d8:	13 06 41 0d 	addi	a2, sp, 212
   197dc:	93 85 09 00 	mv	a1, s3
   197e0:	13 05 09 00 	mv	a0, s2
   197e4:	ef 20 00 40 	jal	9216
   197e8:	63 18 05 26 	bnez	a0, 624
   197ec:	13 0c c1 0f 	addi	s8, sp, 252
   197f0:	6f f0 1f f5 	j	-176
   197f4:	83 27 81 0d 	lw	a5, 216(sp)
   197f8:	93 06 10 00 	addi	a3, zero, 1
   197fc:	23 20 9c 00 	sw	s1, 0(s8)
   19800:	13 07 17 00 	addi	a4, a4, 1
   19804:	93 87 17 00 	addi	a5, a5, 1
   19808:	93 0a 8c 00 	addi	s5, s8, 8
   1980c:	63 c6 46 01 	blt	a3, s4, 12
   19810:	13 76 14 00 	andi	a2, s0, 1
   19814:	63 06 06 1c 	beqz	a2, 460
   19818:	93 06 10 00 	addi	a3, zero, 1
   1981c:	23 2e e1 0c 	sw	a4, 220(sp)
   19820:	23 22 dc 00 	sw	a3, 4(s8)
   19824:	23 2c f1 0c 	sw	a5, 216(sp)
   19828:	13 07 70 00 	addi	a4, zero, 7
   1982c:	63 5e f7 00 	bge	a4, a5, 28
   19830:	13 06 41 0d 	addi	a2, sp, 212
   19834:	93 85 09 00 	mv	a1, s3
   19838:	13 05 09 00 	mv	a0, s2
   1983c:	ef 20 80 3a 	jal	9128
   19840:	63 1c 05 20 	bnez	a0, 536
   19844:	93 0a c1 0f 	addi	s5, sp, 252
   19848:	83 27 41 03 	lw	a5, 52(sp)
   1984c:	03 27 01 02 	lw	a4, 32(sp)
   19850:	93 8a 8a 00 	addi	s5, s5, 8
   19854:	23 ac fa fe 	sw	a5, -8(s5)
   19858:	83 27 01 02 	lw	a5, 32(sp)
   1985c:	23 ae fa fe 	sw	a5, -4(s5)
   19860:	83 27 c1 0d 	lw	a5, 220(sp)
   19864:	b3 87 e7 00 	add	a5, a5, a4
   19868:	23 2e f1 0c 	sw	a5, 220(sp)
   1986c:	83 27 81 0d 	lw	a5, 216(sp)
   19870:	13 07 70 00 	addi	a4, zero, 7
   19874:	93 87 17 00 	addi	a5, a5, 1
   19878:	23 2c f1 0c 	sw	a5, 216(sp)
   1987c:	63 5e f7 00 	bge	a4, a5, 28
   19880:	13 06 41 0d 	addi	a2, sp, 212
   19884:	93 85 09 00 	mv	a1, s3
   19888:	13 05 09 00 	mv	a0, s2
   1988c:	ef 20 80 35 	jal	9048
   19890:	63 14 05 1c 	bnez	a0, 456
   19894:	93 0a c1 0f 	addi	s5, sp, 252
   19898:	83 27 01 0e 	lw	a5, 224(sp)
   1989c:	93 05 01 09 	addi	a1, sp, 144
   198a0:	13 05 01 0a 	addi	a0, sp, 160
   198a4:	23 20 f1 0a 	sw	a5, 160(sp)
   198a8:	83 27 41 0e 	lw	a5, 228(sp)
   198ac:	13 0b fa ff 	addi	s6, s4, -1
   198b0:	23 28 01 08 	sw	zero, 144(sp)
   198b4:	23 22 f1 0a 	sw	a5, 164(sp)
   198b8:	83 27 81 0e 	lw	a5, 232(sp)
   198bc:	23 2a 01 08 	sw	zero, 148(sp)
   198c0:	23 2c 01 08 	sw	zero, 152(sp)
   198c4:	23 24 f1 0a 	sw	a5, 168(sp)
   198c8:	83 27 c1 0e 	lw	a5, 236(sp)
   198cc:	23 2e 01 08 	sw	zero, 156(sp)
   198d0:	23 26 f1 0a 	sw	a5, 172(sp)
   198d4:	ef 40 50 78 	jal	20356
   198d8:	63 06 05 08 	beqz	a0, 140
   198dc:	83 27 c1 0d 	lw	a5, 220(sp)
   198e0:	03 27 81 0d 	lw	a4, 216(sp)
   198e4:	93 84 14 00 	addi	s1, s1, 1
   198e8:	93 87 f7 ff 	addi	a5, a5, -1
   198ec:	b3 87 47 01 	add	a5, a5, s4
   198f0:	13 07 17 00 	addi	a4, a4, 1
   198f4:	23 a0 9a 00 	sw	s1, 0(s5)
   198f8:	23 a2 6a 01 	sw	s6, 4(s5)
   198fc:	23 2e f1 0c 	sw	a5, 220(sp)
   19900:	23 2c e1 0c 	sw	a4, 216(sp)
   19904:	93 07 70 00 	addi	a5, zero, 7
   19908:	93 8a 8a 00 	addi	s5, s5, 8
   1990c:	63 de e7 00 	bge	a5, a4, 28
   19910:	13 06 41 0d 	addi	a2, sp, 212
   19914:	93 85 09 00 	mv	a1, s3
   19918:	13 05 09 00 	mv	a0, s2
   1991c:	ef 20 80 2c 	jal	8904
   19920:	63 1c 05 12 	bnez	a0, 312
   19924:	93 0a c1 0f 	addi	s5, sp, 252
   19928:	93 07 41 0c 	addi	a5, sp, 196
   1992c:	23 a0 fa 00 	sw	a5, 0(s5)
   19930:	83 27 c1 03 	lw	a5, 60(sp)
   19934:	03 27 c1 03 	lw	a4, 60(sp)
   19938:	13 8c 8a 00 	addi	s8, s5, 8
   1993c:	23 a2 fa 00 	sw	a5, 4(s5)
   19940:	83 27 c1 0d 	lw	a5, 220(sp)
   19944:	b3 87 e7 00 	add	a5, a5, a4
   19948:	23 2e f1 0c 	sw	a5, 220(sp)
   1994c:	83 27 81 0d 	lw	a5, 216(sp)
   19950:	13 07 70 00 	addi	a4, zero, 7
   19954:	93 87 17 00 	addi	a5, a5, 1
   19958:	23 2c f1 0c 	sw	a5, 216(sp)
   1995c:	e3 5a f7 a2 	bge	a4, a5, -1484
   19960:	6f e0 1f 87 	j	-6032
   19964:	e3 52 60 fd 	blez	s6, -60
   19968:	93 04 00 01 	addi	s1, zero, 16
   1996c:	93 0c 70 00 	addi	s9, zero, 7
   19970:	03 26 41 01 	lw	a2, 20(sp)
   19974:	03 27 81 0d 	lw	a4, 216(sp)
   19978:	83 27 c1 0d 	lw	a5, 220(sp)
   1997c:	23 a0 ca 00 	sw	a2, 0(s5)
   19980:	13 07 17 00 	addi	a4, a4, 1
   19984:	93 86 8a 00 	addi	a3, s5, 8
   19988:	63 c0 64 03 	blt	s1, s6, 32
   1998c:	b3 07 fb 00 	add	a5, s6, a5
   19990:	23 a2 6a 01 	sw	s6, 4(s5)
   19994:	23 2e f1 0c 	sw	a5, 220(sp)
   19998:	23 2c e1 0c 	sw	a4, 216(sp)
   1999c:	93 07 70 00 	addi	a5, zero, 7
   199a0:	93 8a 06 00 	mv	s5, a3
   199a4:	6f f0 9f f6 	j	-152
   199a8:	93 87 07 01 	addi	a5, a5, 16
   199ac:	23 a2 9a 00 	sw	s1, 4(s5)
   199b0:	23 2e f1 0c 	sw	a5, 220(sp)
   199b4:	23 2c e1 0c 	sw	a4, 216(sp)
   199b8:	63 de ec 00 	bge	s9, a4, 28
   199bc:	13 06 41 0d 	addi	a2, sp, 212
   199c0:	93 85 09 00 	mv	a1, s3
   199c4:	13 05 09 00 	mv	a0, s2
   199c8:	ef 20 c0 21 	jal	8732
   199cc:	63 16 05 08 	bnez	a0, 140
   199d0:	93 06 c1 0f 	addi	a3, sp, 252
   199d4:	13 0b 0b ff 	addi	s6, s6, -16
   199d8:	93 8a 06 00 	mv	s5, a3
   199dc:	6f f0 5f f9 	j	-108
   199e0:	23 2e e1 0c 	sw	a4, 220(sp)
   199e4:	23 22 dc 00 	sw	a3, 4(s8)
   199e8:	23 2c f1 0c 	sw	a5, 216(sp)
   199ec:	13 07 70 00 	addi	a4, zero, 7
   199f0:	e3 5c f7 f2 	bge	a4, a5, -200
   199f4:	6f f0 df f1 	j	-228
   199f8:	83 27 81 02 	lw	a5, 40(sp)
   199fc:	03 27 c1 02 	lw	a4, 44(sp)
   19a00:	33 84 e7 40 	sub	s0, a5, a4
   19a04:	e3 5a 80 98 	blez	s0, -1644
   19a08:	b7 27 02 00 	lui	a5, 34
   19a0c:	93 0a 00 01 	addi	s5, zero, 16
   19a10:	93 84 c7 50 	addi	s1, a5, 1292
   19a14:	13 0b 70 00 	addi	s6, zero, 7
   19a18:	83 27 81 0d 	lw	a5, 216(sp)
   19a1c:	23 20 9c 00 	sw	s1, 0(s8)
   19a20:	03 27 c1 0d 	lw	a4, 220(sp)
   19a24:	93 87 17 00 	addi	a5, a5, 1
   19a28:	63 c6 8a 04 	blt	s5, s0, 76
   19a2c:	23 22 8c 00 	sw	s0, 4(s8)
   19a30:	33 04 e4 00 	add	s0, s0, a4
   19a34:	23 2e 81 0c 	sw	s0, 220(sp)
   19a38:	23 2c f1 0c 	sw	a5, 216(sp)
   19a3c:	13 07 70 00 	addi	a4, zero, 7
   19a40:	e3 5c f7 94 	bge	a4, a5, -1704
   19a44:	13 06 41 0d 	addi	a2, sp, 212
   19a48:	93 85 09 00 	mv	a1, s3
   19a4c:	13 05 09 00 	mv	a0, s2
   19a50:	ef 20 40 19 	jal	8596
   19a54:	e3 02 05 94 	beqz	a0, -1724
   19a58:	83 27 c1 00 	lw	a5, 12(sp)
   19a5c:	63 94 07 00 	bnez	a5, 8
   19a60:	6f e0 5f 9d 	j	-5676
   19a64:	93 85 07 00 	mv	a1, a5
   19a68:	13 05 09 00 	mv	a0, s2
   19a6c:	ef a0 9f 85 	jal	-22440
   19a70:	6f e0 5f 9c 	j	-5692
   19a74:	13 07 07 01 	addi	a4, a4, 16
   19a78:	23 22 5c 01 	sw	s5, 4(s8)
   19a7c:	23 2e e1 0c 	sw	a4, 220(sp)
   19a80:	23 2c f1 0c 	sw	a5, 216(sp)
   19a84:	13 0c 8c 00 	addi	s8, s8, 8
   19a88:	63 5e fb 00 	bge	s6, a5, 28
   19a8c:	13 06 41 0d 	addi	a2, sp, 212
   19a90:	93 85 09 00 	mv	a1, s3
   19a94:	13 05 09 00 	mv	a0, s2
   19a98:	ef 20 c0 14 	jal	8524
   19a9c:	e3 1e 05 fa 	bnez	a0, -68
   19aa0:	13 0c c1 0f 	addi	s8, sp, 252
   19aa4:	13 04 04 ff 	addi	s0, s0, -16
   19aa8:	6f f0 1f f7 	j	-144
   19aac:	83 25 c1 00 	lw	a1, 12(sp)
   19ab0:	13 05 09 00 	mv	a0, s2
   19ab4:	ef a0 1f 81 	jal	-22512
   19ab8:	6f f0 5f 92 	j	-1756
   19abc:	83 27 c1 0d 	lw	a5, 220(sp)
   19ac0:	63 94 07 00 	bnez	a5, 8
   19ac4:	6f e0 1f 97 	j	-5776
   19ac8:	13 06 41 0d 	addi	a2, sp, 212
   19acc:	93 85 09 00 	mv	a1, s3
   19ad0:	13 05 09 00 	mv	a0, s2
   19ad4:	ef 20 00 11 	jal	8464
   19ad8:	6f e0 df 95 	j	-5796
   19adc:	93 07 f0 ff 	addi	a5, zero, -1
   19ae0:	63 9a fb b4 	bne	s7, a5, -3244
   19ae4:	63 9c 0d bc 	bnez	s11, -3112
   19ae8:	93 07 90 00 	addi	a5, zero, 9
   19aec:	63 e8 a7 bd 	bltu	a5, s10, -3120
   19af0:	13 0d 0d 03 	addi	s10, s10, 48
   19af4:	a3 0f a1 19 	sb	s10, 415(sp)
   19af8:	93 04 f1 19 	addi	s1, sp, 415
   19afc:	6f f0 8f b9 	j	-3176

__sprint_r:
   19b00:	83 27 86 00 	lw	a5, 8(a2)
   19b04:	13 01 01 fd 	addi	sp, sp, -48
   19b08:	23 24 81 02 	sw	s0, 40(sp)
   19b0c:	23 26 11 02 	sw	ra, 44(sp)
   19b10:	23 22 91 02 	sw	s1, 36(sp)
   19b14:	23 20 21 03 	sw	s2, 32(sp)
   19b18:	23 2e 31 01 	sw	s3, 28(sp)
   19b1c:	23 2c 41 01 	sw	s4, 24(sp)
   19b20:	23 2a 51 01 	sw	s5, 20(sp)
   19b24:	23 28 61 01 	sw	s6, 16(sp)
   19b28:	23 26 71 01 	sw	s7, 12(sp)
   19b2c:	23 24 81 01 	sw	s8, 8(sp)
   19b30:	13 04 06 00 	mv	s0, a2
   19b34:	63 9e 07 02 	bnez	a5, 60
   19b38:	23 22 06 00 	sw	zero, 4(a2)
   19b3c:	13 05 00 00 	mv	a0, zero
   19b40:	83 20 c1 02 	lw	ra, 44(sp)
   19b44:	03 24 81 02 	lw	s0, 40(sp)
   19b48:	83 24 41 02 	lw	s1, 36(sp)
   19b4c:	03 29 01 02 	lw	s2, 32(sp)
   19b50:	83 29 c1 01 	lw	s3, 28(sp)
   19b54:	03 2a 81 01 	lw	s4, 24(sp)
   19b58:	83 2a 41 01 	lw	s5, 20(sp)
   19b5c:	03 2b 01 01 	lw	s6, 16(sp)
   19b60:	83 2b c1 00 	lw	s7, 12(sp)
   19b64:	03 2c 81 00 	lw	s8, 8(sp)
   19b68:	13 01 01 03 	addi	sp, sp, 48
   19b6c:	67 80 00 00 	ret
   19b70:	83 a7 45 06 	lw	a5, 100(a1)
   19b74:	93 89 05 00 	mv	s3, a1
   19b78:	13 97 27 01 	slli	a4, a5, 18
   19b7c:	63 58 07 06 	bgez	a4, 112
   19b80:	83 24 06 00 	lw	s1, 0(a2)
   19b84:	93 0a 05 00 	mv	s5, a0
   19b88:	13 0b f0 ff 	addi	s6, zero, -1
   19b8c:	03 a9 44 00 	lw	s2, 4(s1)
   19b90:	03 ac 04 00 	lw	s8, 0(s1)
   19b94:	13 0a 00 00 	mv	s4, zero
   19b98:	93 5b 29 00 	srli	s7, s2, 2
   19b9c:	63 46 7a 03 	blt	s4, s7, 44
   19ba0:	83 27 84 00 	lw	a5, 8(s0)
   19ba4:	13 79 c9 ff 	andi	s2, s2, -4
   19ba8:	93 84 84 00 	addi	s1, s1, 8
   19bac:	b3 87 27 41 	sub	a5, a5, s2
   19bb0:	23 24 f4 00 	sw	a5, 8(s0)
   19bb4:	e3 9c 07 fc 	bnez	a5, -40
   19bb8:	13 05 00 00 	mv	a0, zero
   19bbc:	23 24 04 00 	sw	zero, 8(s0)
   19bc0:	23 22 04 00 	sw	zero, 4(s0)
   19bc4:	6f f0 df f7 	j	-132
   19bc8:	93 17 2a 00 	slli	a5, s4, 2
   19bcc:	b3 07 fc 00 	add	a5, s8, a5
   19bd0:	83 a5 07 00 	lw	a1, 0(a5)
   19bd4:	13 86 09 00 	mv	a2, s3
   19bd8:	13 85 0a 00 	mv	a0, s5
   19bdc:	ef 10 00 0c 	jal	4288
   19be0:	63 0a 65 01 	beq	a0, s6, 20
   19be4:	13 0a 1a 00 	addi	s4, s4, 1
   19be8:	6f f0 5f fb 	j	-76
   19bec:	ef 10 c0 17 	jal	4476
   19bf0:	6f f0 df fc 	j	-52
   19bf4:	13 05 f0 ff 	addi	a0, zero, -1
   19bf8:	6f f0 5f fc 	j	-60

_vfiprintf_r:
   19bfc:	13 01 01 ed 	addi	sp, sp, -304
   19c00:	23 24 81 12 	sw	s0, 296(sp)
   19c04:	23 22 91 12 	sw	s1, 292(sp)
   19c08:	23 2e 31 11 	sw	s3, 284(sp)
   19c0c:	23 2c 41 11 	sw	s4, 280(sp)
   19c10:	23 26 11 12 	sw	ra, 300(sp)
   19c14:	23 20 21 13 	sw	s2, 288(sp)
   19c18:	23 2a 51 11 	sw	s5, 276(sp)
   19c1c:	23 28 61 11 	sw	s6, 272(sp)
   19c20:	23 26 71 11 	sw	s7, 268(sp)
   19c24:	23 24 81 11 	sw	s8, 264(sp)
   19c28:	23 22 91 11 	sw	s9, 260(sp)
   19c2c:	23 20 a1 11 	sw	s10, 256(sp)
   19c30:	23 2e b1 0f 	sw	s11, 252(sp)
   19c34:	93 09 05 00 	mv	s3, a0
   19c38:	13 84 05 00 	mv	s0, a1
   19c3c:	13 0a 06 00 	mv	s4, a2
   19c40:	93 84 06 00 	mv	s1, a3
   19c44:	63 08 05 00 	beqz	a0, 16
   19c48:	83 27 85 03 	lw	a5, 56(a0)
   19c4c:	63 94 07 00 	bnez	a5, 8
   19c50:	ef a0 0f bd 	jal	-23600
   19c54:	83 17 c4 00 	lh	a5, 12(s0)
   19c58:	13 97 27 01 	slli	a4, a5, 18
   19c5c:	63 42 07 02 	bltz	a4, 36
   19c60:	b7 26 00 00 	lui	a3, 2
   19c64:	03 27 44 06 	lw	a4, 100(s0)
   19c68:	b3 e7 d7 00 	or	a5, a5, a3
   19c6c:	23 16 f4 00 	sh	a5, 12(s0)
   19c70:	b7 e7 ff ff 	lui	a5, 1048574
   19c74:	93 87 f7 ff 	addi	a5, a5, -1
   19c78:	b3 77 f7 00 	and	a5, a4, a5
   19c7c:	23 22 f4 06 	sw	a5, 100(s0)
   19c80:	83 57 c4 00 	lhu	a5, 12(s0)
   19c84:	93 f7 87 00 	andi	a5, a5, 8
   19c88:	63 80 07 04 	beqz	a5, 64
   19c8c:	83 27 04 01 	lw	a5, 16(s0)
   19c90:	63 8c 07 02 	beqz	a5, 56
   19c94:	83 57 c4 00 	lhu	a5, 12(s0)
   19c98:	13 07 a0 00 	addi	a4, zero, 10
   19c9c:	93 f7 a7 01 	andi	a5, a5, 26
   19ca0:	63 9e e7 06 	bne	a5, a4, 124
   19ca4:	83 17 e4 00 	lh	a5, 14(s0)
   19ca8:	63 ca 07 06 	bltz	a5, 116
   19cac:	93 86 04 00 	mv	a3, s1
   19cb0:	13 06 0a 00 	mv	a2, s4
   19cb4:	93 05 04 00 	mv	a1, s0
   19cb8:	13 85 09 00 	mv	a0, s3
   19cbc:	ef 00 d0 3d 	jal	3036
   19cc0:	13 0c 05 00 	mv	s8, a0
   19cc4:	6f 00 80 01 	j	24
   19cc8:	93 05 04 00 	mv	a1, s0
   19ccc:	13 85 09 00 	mv	a0, s3
   19cd0:	ef 90 1f ce 	jal	-25376
   19cd4:	e3 00 05 fc 	beqz	a0, -64
   19cd8:	13 0c f0 ff 	addi	s8, zero, -1
   19cdc:	83 20 c1 12 	lw	ra, 300(sp)
   19ce0:	03 24 81 12 	lw	s0, 296(sp)
   19ce4:	13 05 0c 00 	mv	a0, s8
   19ce8:	83 24 41 12 	lw	s1, 292(sp)
   19cec:	03 29 01 12 	lw	s2, 288(sp)
   19cf0:	83 29 c1 11 	lw	s3, 284(sp)
   19cf4:	03 2a 81 11 	lw	s4, 280(sp)
   19cf8:	83 2a 41 11 	lw	s5, 276(sp)
   19cfc:	03 2b 01 11 	lw	s6, 272(sp)
   19d00:	83 2b c1 10 	lw	s7, 268(sp)
   19d04:	03 2c 81 10 	lw	s8, 264(sp)
   19d08:	83 2c 41 10 	lw	s9, 260(sp)
   19d0c:	03 2d 01 10 	lw	s10, 256(sp)
   19d10:	83 2d c1 0f 	lw	s11, 252(sp)
   19d14:	13 01 01 13 	addi	sp, sp, 304
   19d18:	67 80 00 00 	ret
   19d1c:	b7 27 02 00 	lui	a5, 34
   19d20:	93 87 c7 52 	addi	a5, a5, 1324
   19d24:	23 22 f1 02 	sw	a5, 36(sp)
   19d28:	b7 27 02 00 	lui	a5, 34
   19d2c:	93 87 87 6a 	addi	a5, a5, 1704
   19d30:	23 28 f1 00 	sw	a5, 16(sp)
   19d34:	b7 27 02 00 	lui	a5, 34
   19d38:	93 0b c1 04 	addi	s7, sp, 76
   19d3c:	93 87 87 69 	addi	a5, a5, 1688
   19d40:	23 20 71 05 	sw	s7, 64(sp)
   19d44:	23 24 01 04 	sw	zero, 72(sp)
   19d48:	23 22 01 04 	sw	zero, 68(sp)
   19d4c:	13 88 0b 00 	mv	a6, s7
   19d50:	23 26 01 00 	sw	zero, 12(sp)
   19d54:	23 22 01 00 	sw	zero, 4(sp)
   19d58:	23 24 01 00 	sw	zero, 8(sp)
   19d5c:	23 2c 01 00 	sw	zero, 24(sp)
   19d60:	13 0c 00 00 	mv	s8, zero
   19d64:	23 2a f1 00 	sw	a5, 20(sp)
   19d68:	13 09 0a 00 	mv	s2, s4
   19d6c:	13 07 50 02 	addi	a4, zero, 37
   19d70:	83 47 09 00 	lbu	a5, 0(s2)
   19d74:	63 84 07 00 	beqz	a5, 8
   19d78:	63 90 e7 0a 	bne	a5, a4, 160
   19d7c:	b3 0a 49 41 	sub	s5, s2, s4
   19d80:	63 86 0a 04 	beqz	s5, 76
   19d84:	83 27 81 04 	lw	a5, 72(sp)
   19d88:	23 20 48 01 	sw	s4, 0(a6)
   19d8c:	23 22 58 01 	sw	s5, 4(a6)
   19d90:	b3 87 57 01 	add	a5, a5, s5
   19d94:	23 24 f1 04 	sw	a5, 72(sp)
   19d98:	83 27 41 04 	lw	a5, 68(sp)
   19d9c:	13 07 70 00 	addi	a4, zero, 7
   19da0:	13 08 88 00 	addi	a6, a6, 8
   19da4:	93 87 17 00 	addi	a5, a5, 1
   19da8:	23 22 f1 04 	sw	a5, 68(sp)
   19dac:	63 5e f7 00 	bge	a4, a5, 28
   19db0:	13 06 01 04 	addi	a2, sp, 64
   19db4:	93 05 04 00 	mv	a1, s0
   19db8:	13 85 09 00 	mv	a0, s3
   19dbc:	ef f0 5f d4 	jal	-700
   19dc0:	e3 1e 05 22 	bnez	a0, 2620
   19dc4:	13 88 0b 00 	mv	a6, s7
   19dc8:	33 0c 5c 01 	add	s8, s8, s5
   19dcc:	83 47 09 00 	lbu	a5, 0(s2)
   19dd0:	e3 8a 07 26 	beqz	a5, 2676
   19dd4:	13 07 19 00 	addi	a4, s2, 1
   19dd8:	a3 0d 01 02 	sb	zero, 59(sp)
   19ddc:	13 09 f0 ff 	addi	s2, zero, -1
   19de0:	13 0b 00 00 	mv	s6, zero
   19de4:	93 0d 00 00 	mv	s11, zero
   19de8:	93 0a 90 00 	addi	s5, zero, 9
   19dec:	93 0c a0 02 	addi	s9, zero, 42
   19df0:	03 46 07 00 	lbu	a2, 0(a4)
   19df4:	13 0a 17 00 	addi	s4, a4, 1
   19df8:	93 05 a0 05 	addi	a1, zero, 90
   19dfc:	13 07 06 fe 	addi	a4, a2, -32
   19e00:	e3 e2 e5 0c 	bltu	a1, a4, 2244
   19e04:	83 27 41 02 	lw	a5, 36(sp)
   19e08:	13 17 27 00 	slli	a4, a4, 2
   19e0c:	33 07 f7 00 	add	a4, a4, a5
   19e10:	03 27 07 00 	lw	a4, 0(a4)
   19e14:	67 00 07 00 	jr	a4
   19e18:	13 09 19 00 	addi	s2, s2, 1
   19e1c:	6f f0 5f f5 	j	-172
   19e20:	37 27 02 00 	lui	a4, 34
   19e24:	93 07 07 fd 	addi	a5, a4, -48
   19e28:	23 26 f1 00 	sw	a5, 12(sp)
   19e2c:	13 f7 0d 02 	andi	a4, s11, 32
   19e30:	63 04 07 6a 	beqz	a4, 1704
   19e34:	93 84 74 00 	addi	s1, s1, 7
   19e38:	93 f4 84 ff 	andi	s1, s1, -8
   19e3c:	03 ad 04 00 	lw	s10, 0(s1)
   19e40:	83 aa 44 00 	lw	s5, 4(s1)
   19e44:	93 8c 84 00 	addi	s9, s1, 8
   19e48:	93 f6 1d 00 	andi	a3, s11, 1
   19e4c:	63 8e 06 00 	beqz	a3, 28
   19e50:	b3 66 5d 01 	or	a3, s10, s5
   19e54:	63 8a 06 00 	beqz	a3, 20
   19e58:	93 06 00 03 	addi	a3, zero, 48
   19e5c:	23 0e d1 02 	sb	a3, 60(sp)
   19e60:	a3 0e c1 02 	sb	a2, 61(sp)
   19e64:	93 ed 2d 00 	ori	s11, s11, 2
   19e68:	93 fd fd bf 	andi	s11, s11, -1025
   19e6c:	6f 00 c0 31 	j	796
   19e70:	13 85 09 00 	mv	a0, s3
   19e74:	23 2e 01 01 	sw	a6, 28(sp)
   19e78:	ef c0 8f fa 	jal	-14424
   19e7c:	83 27 45 00 	lw	a5, 4(a0)
   19e80:	13 85 07 00 	mv	a0, a5
   19e84:	23 2c f1 00 	sw	a5, 24(sp)
   19e88:	ef d0 df cc 	jal	-9012
   19e8c:	23 24 a1 00 	sw	a0, 8(sp)
   19e90:	13 85 09 00 	mv	a0, s3
   19e94:	ef c0 cf f8 	jal	-14452
   19e98:	83 27 85 00 	lw	a5, 8(a0)
   19e9c:	03 28 c1 01 	lw	a6, 28(sp)
   19ea0:	23 22 f1 00 	sw	a5, 4(sp)
   19ea4:	83 27 81 00 	lw	a5, 8(sp)
   19ea8:	63 8c 07 00 	beqz	a5, 24
   19eac:	83 27 41 00 	lw	a5, 4(sp)
   19eb0:	63 88 07 00 	beqz	a5, 16
   19eb4:	03 c7 07 00 	lbu	a4, 0(a5)
   19eb8:	63 04 07 00 	beqz	a4, 8
   19ebc:	93 ed 0d 40 	ori	s11, s11, 1024
   19ec0:	13 07 0a 00 	mv	a4, s4
   19ec4:	6f f0 df f2 	j	-212
   19ec8:	03 47 b1 03 	lbu	a4, 59(sp)
   19ecc:	e3 1a 07 fe 	bnez	a4, -12
   19ed0:	13 07 00 02 	addi	a4, zero, 32
   19ed4:	a3 0d e1 02 	sb	a4, 59(sp)
   19ed8:	6f f0 9f fe 	j	-24
   19edc:	93 ed 1d 00 	ori	s11, s11, 1
   19ee0:	6f f0 1f fe 	j	-32
   19ee4:	03 ab 04 00 	lw	s6, 0(s1)
   19ee8:	93 84 44 00 	addi	s1, s1, 4
   19eec:	e3 5a 0b fc 	bgez	s6, -44
   19ef0:	33 0b 60 41 	neg	s6, s6
   19ef4:	93 ed 4d 00 	ori	s11, s11, 4
   19ef8:	6f f0 9f fc 	j	-56
   19efc:	13 07 b0 02 	addi	a4, zero, 43
   19f00:	6f f0 5f fd 	j	-44
   19f04:	03 46 0a 00 	lbu	a2, 0(s4)
   19f08:	13 07 1a 00 	addi	a4, s4, 1
   19f0c:	63 14 96 05 	bne	a2, s9, 72
   19f10:	03 a9 04 00 	lw	s2, 0(s1)
   19f14:	93 86 44 00 	addi	a3, s1, 4
   19f18:	63 54 09 00 	bgez	s2, 8
   19f1c:	13 09 f0 ff 	addi	s2, zero, -1
   19f20:	93 84 06 00 	mv	s1, a3
   19f24:	13 0a 07 00 	mv	s4, a4
   19f28:	6f f0 9f f9 	j	-104
   19f2c:	93 16 29 00 	slli	a3, s2, 2
   19f30:	13 07 17 00 	addi	a4, a4, 1
   19f34:	33 89 26 01 	add	s2, a3, s2
   19f38:	03 46 f7 ff 	lbu	a2, -1(a4)
   19f3c:	13 19 19 00 	slli	s2, s2, 1
   19f40:	33 09 a9 00 	add	s2, s2, a0
   19f44:	13 05 06 fd 	addi	a0, a2, -48
   19f48:	e3 f2 aa fe 	bgeu	s5, a0, -28
   19f4c:	13 0a 07 00 	mv	s4, a4
   19f50:	6f f0 df ea 	j	-340
   19f54:	13 09 00 00 	mv	s2, zero
   19f58:	6f f0 df fe 	j	-20
   19f5c:	93 ed 0d 08 	ori	s11, s11, 128
   19f60:	6f f0 1f f6 	j	-160
   19f64:	13 07 0a 00 	mv	a4, s4
   19f68:	13 0b 00 00 	mv	s6, zero
   19f6c:	93 16 2b 00 	slli	a3, s6, 2
   19f70:	33 8b 66 01 	add	s6, a3, s6
   19f74:	13 06 06 fd 	addi	a2, a2, -48
   19f78:	13 1b 1b 00 	slli	s6, s6, 1
   19f7c:	13 07 17 00 	addi	a4, a4, 1
   19f80:	33 0b 66 01 	add	s6, a2, s6
   19f84:	03 46 f7 ff 	lbu	a2, -1(a4)
   19f88:	93 06 06 fd 	addi	a3, a2, -48
   19f8c:	e3 f0 da fe 	bgeu	s5, a3, -32
   19f90:	6f f0 df fb 	j	-68
   19f94:	83 46 0a 00 	lbu	a3, 0(s4)
   19f98:	13 07 80 06 	addi	a4, zero, 104
   19f9c:	63 98 e6 00 	bne	a3, a4, 16
   19fa0:	13 0a 1a 00 	addi	s4, s4, 1
   19fa4:	93 ed 0d 20 	ori	s11, s11, 512
   19fa8:	6f f0 9f f1 	j	-232
   19fac:	93 ed 0d 04 	ori	s11, s11, 64
   19fb0:	6f f0 1f f1 	j	-240
   19fb4:	83 46 0a 00 	lbu	a3, 0(s4)
   19fb8:	13 07 c0 06 	addi	a4, zero, 108
   19fbc:	63 98 e6 00 	bne	a3, a4, 16
   19fc0:	13 0a 1a 00 	addi	s4, s4, 1
   19fc4:	93 ed 0d 02 	ori	s11, s11, 32
   19fc8:	6f f0 9f ef 	j	-264
   19fcc:	93 ed 0d 01 	ori	s11, s11, 16
   19fd0:	6f f0 1f ef 	j	-272
   19fd4:	03 a7 04 00 	lw	a4, 0(s1)
   19fd8:	93 8c 44 00 	addi	s9, s1, 4
   19fdc:	a3 0d 01 02 	sb	zero, 59(sp)
   19fe0:	23 06 e1 08 	sb	a4, 140(sp)
   19fe4:	13 09 10 00 	addi	s2, zero, 1
   19fe8:	93 0a 00 00 	mv	s5, zero
   19fec:	93 04 c1 08 	addi	s1, sp, 140
   19ff0:	6f 00 80 1d 	j	472
   19ff4:	93 ed 0d 01 	ori	s11, s11, 16
   19ff8:	13 f7 0d 02 	andi	a4, s11, 32
   19ffc:	63 02 07 06 	beqz	a4, 100
   1a000:	93 84 74 00 	addi	s1, s1, 7
   1a004:	93 f4 84 ff 	andi	s1, s1, -8
   1a008:	03 ad 04 00 	lw	s10, 0(s1)
   1a00c:	83 aa 44 00 	lw	s5, 4(s1)
   1a010:	93 8c 84 00 	addi	s9, s1, 8
   1a014:	e3 d6 0a 04 	bgez	s5, 2124
   1a018:	33 07 a0 41 	neg	a4, s10
   1a01c:	b3 36 e0 00 	snez	a3, a4
   1a020:	b3 08 50 41 	neg	a7, s5
   1a024:	b3 8a d8 40 	sub	s5, a7, a3
   1a028:	93 06 d0 02 	addi	a3, zero, 45
   1a02c:	a3 0d d1 02 	sb	a3, 59(sp)
   1a030:	13 0d 07 00 	mv	s10, a4
   1a034:	93 06 10 00 	addi	a3, zero, 1
   1a038:	13 06 f0 ff 	addi	a2, zero, -1
   1a03c:	63 00 c9 4e 	beq	s2, a2, 1248
   1a040:	13 86 0d 00 	mv	a2, s11
   1a044:	b3 65 5d 01 	or	a1, s10, s5
   1a048:	93 fd fd f7 	andi	s11, s11, -129
   1a04c:	63 98 05 4c 	bnez	a1, 1232
   1a050:	63 0e 09 64 	beqz	s2, 1628
   1a054:	13 06 10 00 	addi	a2, zero, 1
   1a058:	63 96 c6 4c 	bne	a3, a2, 1228
   1a05c:	6f 00 90 01 	j	2072
   1a060:	13 f7 0d 01 	andi	a4, s11, 16
   1a064:	93 8c 44 00 	addi	s9, s1, 4
   1a068:	63 08 07 00 	beqz	a4, 16
   1a06c:	03 ad 04 00 	lw	s10, 0(s1)
   1a070:	93 5a fd 41 	srai	s5, s10, 31
   1a074:	6f f0 1f fa 	j	-96
   1a078:	93 f6 0d 04 	andi	a3, s11, 64
   1a07c:	03 a7 04 00 	lw	a4, 0(s1)
   1a080:	63 88 06 00 	beqz	a3, 16
   1a084:	13 1d 07 01 	slli	s10, a4, 16
   1a088:	13 5d 0d 41 	srai	s10, s10, 16
   1a08c:	6f f0 5f fe 	j	-28
   1a090:	93 f6 0d 20 	andi	a3, s11, 512
   1a094:	13 0d 07 00 	mv	s10, a4
   1a098:	e3 8c 06 fc 	beqz	a3, -40
   1a09c:	13 1d 87 01 	slli	s10, a4, 24
   1a0a0:	13 5d 8d 41 	srai	s10, s10, 24
   1a0a4:	6f f0 df fc 	j	-52
   1a0a8:	93 f6 0d 02 	andi	a3, s11, 32
   1a0ac:	03 a7 04 00 	lw	a4, 0(s1)
   1a0b0:	93 84 44 00 	addi	s1, s1, 4
   1a0b4:	63 8a 06 00 	beqz	a3, 20
   1a0b8:	93 57 fc 41 	srai	a5, s8, 31
   1a0bc:	23 20 87 01 	sw	s8, 0(a4)
   1a0c0:	23 22 f7 00 	sw	a5, 4(a4)
   1a0c4:	6f f0 5f ca 	j	-860
   1a0c8:	93 f6 0d 01 	andi	a3, s11, 16
   1a0cc:	63 86 06 00 	beqz	a3, 12
   1a0d0:	23 20 87 01 	sw	s8, 0(a4)
   1a0d4:	6f f0 5f c9 	j	-876
   1a0d8:	93 f6 0d 04 	andi	a3, s11, 64
   1a0dc:	63 86 06 00 	beqz	a3, 12
   1a0e0:	23 10 87 01 	sh	s8, 0(a4)
   1a0e4:	6f f0 5f c8 	j	-892
   1a0e8:	93 f7 0d 20 	andi	a5, s11, 512
   1a0ec:	e3 82 07 fe 	beqz	a5, -28
   1a0f0:	23 00 87 01 	sb	s8, 0(a4)
   1a0f4:	6f f0 5f c7 	j	-908
   1a0f8:	93 ed 0d 01 	ori	s11, s11, 16
   1a0fc:	13 f7 0d 02 	andi	a4, s11, 32
   1a100:	63 04 07 02 	beqz	a4, 40
   1a104:	93 84 74 00 	addi	s1, s1, 7
   1a108:	93 f4 84 ff 	andi	s1, s1, -8
   1a10c:	03 ad 04 00 	lw	s10, 0(s1)
   1a110:	83 aa 44 00 	lw	s5, 4(s1)
   1a114:	93 8c 84 00 	addi	s9, s1, 8
   1a118:	93 fd fd bf 	andi	s11, s11, -1025
   1a11c:	93 06 00 00 	mv	a3, zero
   1a120:	a3 0d 01 02 	sb	zero, 59(sp)
   1a124:	6f f0 5f f1 	j	-236
   1a128:	13 f7 0d 01 	andi	a4, s11, 16
   1a12c:	93 8c 44 00 	addi	s9, s1, 4
   1a130:	63 06 07 00 	beqz	a4, 12
   1a134:	03 ad 04 00 	lw	s10, 0(s1)
   1a138:	6f 00 00 01 	j	16
   1a13c:	13 f7 0d 04 	andi	a4, s11, 64
   1a140:	63 08 07 00 	beqz	a4, 16
   1a144:	03 dd 04 00 	lhu	s10, 0(s1)
   1a148:	93 0a 00 00 	mv	s5, zero
   1a14c:	6f f0 df fc 	j	-52
   1a150:	13 f7 0d 20 	andi	a4, s11, 512
   1a154:	e3 00 07 fe 	beqz	a4, -32
   1a158:	03 cd 04 00 	lbu	s10, 0(s1)
   1a15c:	6f f0 df fe 	j	-20
   1a160:	b7 86 ff ff 	lui	a3, 1048568
   1a164:	93 c6 06 83 	xori	a3, a3, -2000
   1a168:	23 1e d1 02 	sh	a3, 60(sp)
   1a16c:	03 ad 04 00 	lw	s10, 0(s1)
   1a170:	b7 26 02 00 	lui	a3, 34
   1a174:	93 87 06 fd 	addi	a5, a3, -48
   1a178:	93 8c 44 00 	addi	s9, s1, 4
   1a17c:	93 0a 00 00 	mv	s5, zero
   1a180:	93 ed 2d 00 	ori	s11, s11, 2
   1a184:	23 26 f1 00 	sw	a5, 12(sp)
   1a188:	93 06 20 00 	addi	a3, zero, 2
   1a18c:	6f f0 5f f9 	j	-108
   1a190:	a3 0d 01 02 	sb	zero, 59(sp)
   1a194:	13 07 f0 ff 	addi	a4, zero, -1
   1a198:	23 2e 01 01 	sw	a6, 28(sp)
   1a19c:	93 8c 44 00 	addi	s9, s1, 4
   1a1a0:	83 a4 04 00 	lw	s1, 0(s1)
   1a1a4:	63 08 e9 2a 	beq	s2, a4, 688
   1a1a8:	13 06 09 00 	mv	a2, s2
   1a1ac:	93 05 00 00 	mv	a1, zero
   1a1b0:	13 85 04 00 	mv	a0, s1
   1a1b4:	ef c0 8f e2 	jal	-14808
   1a1b8:	93 0a 00 00 	mv	s5, zero
   1a1bc:	03 28 c1 01 	lw	a6, 28(sp)
   1a1c0:	63 04 05 00 	beqz	a0, 8
   1a1c4:	33 09 95 40 	sub	s2, a0, s1
   1a1c8:	13 8d 0a 00 	mv	s10, s5
   1a1cc:	63 d4 2a 01 	bge	s5, s2, 8
   1a1d0:	13 0d 09 00 	mv	s10, s2
   1a1d4:	03 47 b1 03 	lbu	a4, 59(sp)
   1a1d8:	63 04 07 00 	beqz	a4, 8
   1a1dc:	13 0d 1d 00 	addi	s10, s10, 1
   1a1e0:	93 f7 2d 00 	andi	a5, s11, 2
   1a1e4:	23 2e f1 00 	sw	a5, 28(sp)
   1a1e8:	63 84 07 00 	beqz	a5, 8
   1a1ec:	13 0d 2d 00 	addi	s10, s10, 2
   1a1f0:	93 f7 4d 08 	andi	a5, s11, 132
   1a1f4:	23 20 f1 02 	sw	a5, 32(sp)
   1a1f8:	63 92 07 06 	bnez	a5, 100
   1a1fc:	33 07 ab 41 	sub	a4, s6, s10
   1a200:	63 5e e0 04 	blez	a4, 92
   1a204:	93 08 00 01 	addi	a7, zero, 16
   1a208:	13 03 70 00 	addi	t1, zero, 7
   1a20c:	83 27 41 01 	lw	a5, 20(sp)
   1a210:	83 26 41 04 	lw	a3, 68(sp)
   1a214:	03 26 81 04 	lw	a2, 72(sp)
   1a218:	23 20 f8 00 	sw	a5, 0(a6)
   1a21c:	93 86 16 00 	addi	a3, a3, 1
   1a220:	93 05 88 00 	addi	a1, a6, 8
   1a224:	63 ca e8 4a 	blt	a7, a4, 1204
   1a228:	23 22 e8 00 	sw	a4, 4(a6)
   1a22c:	33 07 c7 00 	add	a4, a4, a2
   1a230:	23 24 e1 04 	sw	a4, 72(sp)
   1a234:	23 22 d1 04 	sw	a3, 68(sp)
   1a238:	13 07 70 00 	addi	a4, zero, 7
   1a23c:	13 88 05 00 	mv	a6, a1
   1a240:	63 5e d7 00 	bge	a4, a3, 28
   1a244:	13 06 01 04 	addi	a2, sp, 64
   1a248:	93 05 04 00 	mv	a1, s0
   1a24c:	13 85 09 00 	mv	a0, s3
   1a250:	ef f0 1f 8b 	jal	-1872
   1a254:	63 14 05 5a 	bnez	a0, 1448
   1a258:	13 88 0b 00 	mv	a6, s7
   1a25c:	03 47 b1 03 	lbu	a4, 59(sp)
   1a260:	63 08 07 04 	beqz	a4, 80
   1a264:	93 06 b1 03 	addi	a3, sp, 59
   1a268:	23 20 d8 00 	sw	a3, 0(a6)
   1a26c:	93 06 10 00 	addi	a3, zero, 1
   1a270:	03 27 41 04 	lw	a4, 68(sp)
   1a274:	23 22 d8 00 	sw	a3, 4(a6)
   1a278:	83 26 81 04 	lw	a3, 72(sp)
   1a27c:	13 07 17 00 	addi	a4, a4, 1
   1a280:	23 22 e1 04 	sw	a4, 68(sp)
   1a284:	93 86 16 00 	addi	a3, a3, 1
   1a288:	23 24 d1 04 	sw	a3, 72(sp)
   1a28c:	93 06 70 00 	addi	a3, zero, 7
   1a290:	13 08 88 00 	addi	a6, a6, 8
   1a294:	63 de e6 00 	bge	a3, a4, 28
   1a298:	13 06 01 04 	addi	a2, sp, 64
   1a29c:	93 05 04 00 	mv	a1, s0
   1a2a0:	13 85 09 00 	mv	a0, s3
   1a2a4:	ef f0 df 85 	jal	-1956
   1a2a8:	63 1a 05 54 	bnez	a0, 1364
   1a2ac:	13 88 0b 00 	mv	a6, s7
   1a2b0:	83 27 c1 01 	lw	a5, 28(sp)
   1a2b4:	63 88 07 04 	beqz	a5, 80
   1a2b8:	93 06 c1 03 	addi	a3, sp, 60
   1a2bc:	23 20 d8 00 	sw	a3, 0(a6)
   1a2c0:	93 06 20 00 	addi	a3, zero, 2
   1a2c4:	03 27 41 04 	lw	a4, 68(sp)
   1a2c8:	23 22 d8 00 	sw	a3, 4(a6)
   1a2cc:	83 26 81 04 	lw	a3, 72(sp)
   1a2d0:	13 07 17 00 	addi	a4, a4, 1
   1a2d4:	23 22 e1 04 	sw	a4, 68(sp)
   1a2d8:	93 86 26 00 	addi	a3, a3, 2
   1a2dc:	23 24 d1 04 	sw	a3, 72(sp)
   1a2e0:	93 06 70 00 	addi	a3, zero, 7
   1a2e4:	13 08 88 00 	addi	a6, a6, 8
   1a2e8:	63 de e6 00 	bge	a3, a4, 28
   1a2ec:	13 06 01 04 	addi	a2, sp, 64
   1a2f0:	93 05 04 00 	mv	a1, s0
   1a2f4:	13 85 09 00 	mv	a0, s3
   1a2f8:	ef f0 9f 80 	jal	-2040
   1a2fc:	63 10 05 50 	bnez	a0, 1280
   1a300:	13 88 0b 00 	mv	a6, s7
   1a304:	83 27 01 02 	lw	a5, 32(sp)
   1a308:	13 07 00 08 	addi	a4, zero, 128
   1a30c:	63 92 e7 06 	bne	a5, a4, 100
   1a310:	b3 08 ab 41 	sub	a7, s6, s10
   1a314:	63 5e 10 05 	blez	a7, 92
   1a318:	13 03 00 01 	addi	t1, zero, 16
   1a31c:	13 0e 70 00 	addi	t3, zero, 7
   1a320:	83 27 01 01 	lw	a5, 16(sp)
   1a324:	03 27 41 04 	lw	a4, 68(sp)
   1a328:	83 26 81 04 	lw	a3, 72(sp)
   1a32c:	23 20 f8 00 	sw	a5, 0(a6)
   1a330:	13 07 17 00 	addi	a4, a4, 1
   1a334:	13 06 88 00 	addi	a2, a6, 8
   1a338:	63 44 13 3f 	blt	t1, a7, 1000
   1a33c:	b3 86 16 01 	add	a3, a3, a7
   1a340:	23 22 18 01 	sw	a7, 4(a6)
   1a344:	23 24 d1 04 	sw	a3, 72(sp)
   1a348:	23 22 e1 04 	sw	a4, 68(sp)
   1a34c:	93 06 70 00 	addi	a3, zero, 7
   1a350:	13 08 06 00 	mv	a6, a2
   1a354:	63 de e6 00 	bge	a3, a4, 28
   1a358:	13 06 01 04 	addi	a2, sp, 64
   1a35c:	93 05 04 00 	mv	a1, s0
   1a360:	13 85 09 00 	mv	a0, s3
   1a364:	ef f0 cf f9 	jal	-2148
   1a368:	63 1a 05 48 	bnez	a0, 1172
   1a36c:	13 88 0b 00 	mv	a6, s7
   1a370:	b3 8a 2a 41 	sub	s5, s5, s2
   1a374:	63 5e 50 05 	blez	s5, 92
   1a378:	93 08 00 01 	addi	a7, zero, 16
   1a37c:	13 03 70 00 	addi	t1, zero, 7
   1a380:	83 27 01 01 	lw	a5, 16(sp)
   1a384:	03 27 41 04 	lw	a4, 68(sp)
   1a388:	83 26 81 04 	lw	a3, 72(sp)
   1a38c:	23 20 f8 00 	sw	a5, 0(a6)
   1a390:	13 07 17 00 	addi	a4, a4, 1
   1a394:	13 06 88 00 	addi	a2, a6, 8
   1a398:	63 c8 58 3d 	blt	a7, s5, 976
   1a39c:	23 22 58 01 	sw	s5, 4(a6)
   1a3a0:	b3 8a da 00 	add	s5, s5, a3
   1a3a4:	23 24 51 05 	sw	s5, 72(sp)
   1a3a8:	23 22 e1 04 	sw	a4, 68(sp)
   1a3ac:	93 06 70 00 	addi	a3, zero, 7
   1a3b0:	13 08 06 00 	mv	a6, a2
   1a3b4:	63 de e6 00 	bge	a3, a4, 28
   1a3b8:	13 06 01 04 	addi	a2, sp, 64
   1a3bc:	93 05 04 00 	mv	a1, s0
   1a3c0:	13 85 09 00 	mv	a0, s3
   1a3c4:	ef f0 cf f3 	jal	-2244
   1a3c8:	63 1a 05 42 	bnez	a0, 1076
   1a3cc:	13 88 0b 00 	mv	a6, s7
   1a3d0:	03 27 81 04 	lw	a4, 72(sp)
   1a3d4:	23 22 28 01 	sw	s2, 4(a6)
   1a3d8:	23 20 98 00 	sw	s1, 0(a6)
   1a3dc:	33 09 27 01 	add	s2, a4, s2
   1a3e0:	03 27 41 04 	lw	a4, 68(sp)
   1a3e4:	23 24 21 05 	sw	s2, 72(sp)
   1a3e8:	93 06 70 00 	addi	a3, zero, 7
   1a3ec:	13 07 17 00 	addi	a4, a4, 1
   1a3f0:	23 22 e1 04 	sw	a4, 68(sp)
   1a3f4:	13 08 88 00 	addi	a6, a6, 8
   1a3f8:	63 de e6 00 	bge	a3, a4, 28
   1a3fc:	13 06 01 04 	addi	a2, sp, 64
   1a400:	93 05 04 00 	mv	a1, s0
   1a404:	13 85 09 00 	mv	a0, s3
   1a408:	ef f0 8f ef 	jal	-2312
   1a40c:	63 18 05 3e 	bnez	a0, 1008
   1a410:	13 88 0b 00 	mv	a6, s7
   1a414:	93 f7 4d 00 	andi	a5, s11, 4
   1a418:	63 98 07 38 	bnez	a5, 912
   1a41c:	63 54 ab 01 	bge	s6, s10, 8
   1a420:	13 0b 0d 00 	mv	s6, s10
   1a424:	83 27 81 04 	lw	a5, 72(sp)
   1a428:	33 0c 6c 01 	add	s8, s8, s6
   1a42c:	63 8c 07 00 	beqz	a5, 24
   1a430:	13 06 01 04 	addi	a2, sp, 64
   1a434:	93 05 04 00 	mv	a1, s0
   1a438:	13 85 09 00 	mv	a0, s3
   1a43c:	ef f0 4f ec 	jal	-2364
   1a440:	63 1e 05 3a 	bnez	a0, 956
   1a444:	23 22 01 04 	sw	zero, 68(sp)
   1a448:	93 84 0c 00 	mv	s1, s9
   1a44c:	13 88 0b 00 	mv	a6, s7
   1a450:	6f f0 9f 91 	j	-1768
   1a454:	13 85 04 00 	mv	a0, s1
   1a458:	ef d0 cf ef 	jal	-10500
   1a45c:	13 09 05 00 	mv	s2, a0
   1a460:	93 0a 00 00 	mv	s5, zero
   1a464:	03 28 c1 01 	lw	a6, 28(sp)
   1a468:	6f f0 1f d6 	j	-672
   1a46c:	93 ed 0d 01 	ori	s11, s11, 16
   1a470:	13 f7 0d 02 	andi	a4, s11, 32
   1a474:	63 00 07 02 	beqz	a4, 32
   1a478:	93 84 74 00 	addi	s1, s1, 7
   1a47c:	93 f4 84 ff 	andi	s1, s1, -8
   1a480:	03 ad 04 00 	lw	s10, 0(s1)
   1a484:	83 aa 44 00 	lw	s5, 4(s1)
   1a488:	93 8c 84 00 	addi	s9, s1, 8
   1a48c:	93 06 10 00 	addi	a3, zero, 1
   1a490:	6f f0 1f c9 	j	-880
   1a494:	13 f7 0d 01 	andi	a4, s11, 16
   1a498:	93 8c 44 00 	addi	s9, s1, 4
   1a49c:	63 06 07 00 	beqz	a4, 12
   1a4a0:	03 ad 04 00 	lw	s10, 0(s1)
   1a4a4:	6f 00 00 01 	j	16
   1a4a8:	13 f7 0d 04 	andi	a4, s11, 64
   1a4ac:	63 08 07 00 	beqz	a4, 16
   1a4b0:	03 dd 04 00 	lhu	s10, 0(s1)
   1a4b4:	93 0a 00 00 	mv	s5, zero
   1a4b8:	6f f0 5f fd 	j	-44
   1a4bc:	13 f7 0d 20 	andi	a4, s11, 512
   1a4c0:	e3 00 07 fe 	beqz	a4, -32
   1a4c4:	03 cd 04 00 	lbu	s10, 0(s1)
   1a4c8:	6f f0 df fe 	j	-20
   1a4cc:	37 27 02 00 	lui	a4, 34
   1a4d0:	93 07 47 fe 	addi	a5, a4, -28
   1a4d4:	6f f0 5f 95 	j	-1708
   1a4d8:	13 f7 0d 01 	andi	a4, s11, 16
   1a4dc:	93 8c 44 00 	addi	s9, s1, 4
   1a4e0:	63 06 07 00 	beqz	a4, 12
   1a4e4:	03 ad 04 00 	lw	s10, 0(s1)
   1a4e8:	6f 00 00 01 	j	16
   1a4ec:	13 f7 0d 04 	andi	a4, s11, 64
   1a4f0:	63 08 07 00 	beqz	a4, 16
   1a4f4:	03 dd 04 00 	lhu	s10, 0(s1)
   1a4f8:	93 0a 00 00 	mv	s5, zero
   1a4fc:	6f f0 df 94 	j	-1716
   1a500:	13 f7 0d 20 	andi	a4, s11, 512
   1a504:	e3 00 07 fe 	beqz	a4, -32
   1a508:	03 cd 04 00 	lbu	s10, 0(s1)
   1a50c:	6f f0 df fe 	j	-20
   1a510:	13 86 0d 00 	mv	a2, s11
   1a514:	93 06 10 00 	addi	a3, zero, 1
   1a518:	6f f0 df b2 	j	-1236
   1a51c:	13 06 10 00 	addi	a2, zero, 1
   1a520:	63 84 c6 34 	beq	a3, a2, 840
   1a524:	13 06 20 00 	addi	a2, zero, 2
   1a528:	63 86 c6 14 	beq	a3, a2, 332
   1a52c:	93 06 01 0f 	addi	a3, sp, 240
   1a530:	93 95 da 01 	slli	a1, s5, 29
   1a534:	13 76 7d 00 	andi	a2, s10, 7
   1a538:	13 57 3d 00 	srli	a4, s10, 3
   1a53c:	13 06 06 03 	addi	a2, a2, 48
   1a540:	33 ed e5 00 	or	s10, a1, a4
   1a544:	93 da 3a 00 	srli	s5, s5, 3
   1a548:	a3 8f c6 fe 	sb	a2, -1(a3)
   1a54c:	b3 65 5d 01 	or	a1, s10, s5
   1a550:	93 84 f6 ff 	addi	s1, a3, -1
   1a554:	63 96 05 02 	bnez	a1, 44
   1a558:	13 f7 1d 00 	andi	a4, s11, 1
   1a55c:	63 0a 07 00 	beqz	a4, 20
   1a560:	13 07 00 03 	addi	a4, zero, 48
   1a564:	63 06 e6 00 	beq	a2, a4, 12
   1a568:	a3 8f e4 fe 	sb	a4, -1(s1)
   1a56c:	93 84 e6 ff 	addi	s1, a3, -2
   1a570:	93 07 01 0f 	addi	a5, sp, 240
   1a574:	93 0a 09 00 	mv	s5, s2
   1a578:	33 89 97 40 	sub	s2, a5, s1
   1a57c:	6f f0 df c4 	j	-948
   1a580:	93 86 04 00 	mv	a3, s1
   1a584:	6f f0 df fa 	j	-84
   1a588:	93 f7 0d 40 	andi	a5, s11, 1024
   1a58c:	13 03 00 00 	mv	t1, zero
   1a590:	13 0e 01 0f 	addi	t3, sp, 240
   1a594:	23 2e f1 00 	sw	a5, 28(sp)
   1a598:	13 06 a0 00 	addi	a2, zero, 10
   1a59c:	93 06 00 00 	mv	a3, zero
   1a5a0:	13 05 0d 00 	mv	a0, s10
   1a5a4:	93 85 0a 00 	mv	a1, s5
   1a5a8:	23 26 01 03 	sw	a6, 44(sp)
   1a5ac:	23 24 61 02 	sw	t1, 40(sp)
   1a5b0:	93 04 fe ff 	addi	s1, t3, -1
   1a5b4:	23 20 c1 03 	sw	t3, 32(sp)
   1a5b8:	ef 20 90 77 	jal	12152
   1a5bc:	03 2e 01 02 	lw	t3, 32(sp)
   1a5c0:	03 23 81 02 	lw	t1, 40(sp)
   1a5c4:	83 27 c1 01 	lw	a5, 28(sp)
   1a5c8:	13 05 05 03 	addi	a0, a0, 48
   1a5cc:	a3 0f ae fe 	sb	a0, -1(t3)
   1a5d0:	13 03 13 00 	addi	t1, t1, 1
   1a5d4:	03 28 c1 02 	lw	a6, 44(sp)
   1a5d8:	63 8e 07 04 	beqz	a5, 92
   1a5dc:	83 27 41 00 	lw	a5, 4(sp)
   1a5e0:	83 c6 07 00 	lbu	a3, 0(a5)
   1a5e4:	63 98 66 04 	bne	a3, t1, 80
   1a5e8:	93 07 f0 0f 	addi	a5, zero, 255
   1a5ec:	63 04 f3 04 	beq	t1, a5, 72
   1a5f0:	63 96 0a 00 	bnez	s5, 12
   1a5f4:	93 07 90 00 	addi	a5, zero, 9
   1a5f8:	63 fe a7 03 	bgeu	a5, s10, 60
   1a5fc:	83 27 81 00 	lw	a5, 8(sp)
   1a600:	83 25 81 01 	lw	a1, 24(sp)
   1a604:	23 20 01 03 	sw	a6, 32(sp)
   1a608:	b3 84 f4 40 	sub	s1, s1, a5
   1a60c:	13 86 07 00 	mv	a2, a5
   1a610:	13 85 04 00 	mv	a0, s1
   1a614:	ef d0 cf d5 	jal	-10916
   1a618:	83 27 41 00 	lw	a5, 4(sp)
   1a61c:	13 03 00 00 	mv	t1, zero
   1a620:	03 28 01 02 	lw	a6, 32(sp)
   1a624:	83 c6 17 00 	lbu	a3, 1(a5)
   1a628:	63 86 06 00 	beqz	a3, 12
   1a62c:	93 87 17 00 	addi	a5, a5, 1
   1a630:	23 22 f1 00 	sw	a5, 4(sp)
   1a634:	13 06 a0 00 	addi	a2, zero, 10
   1a638:	93 06 00 00 	mv	a3, zero
   1a63c:	13 05 0d 00 	mv	a0, s10
   1a640:	93 85 0a 00 	mv	a1, s5
   1a644:	23 24 01 03 	sw	a6, 40(sp)
   1a648:	23 20 61 02 	sw	t1, 32(sp)
   1a64c:	ef 20 10 11 	jal	10512
   1a650:	03 23 01 02 	lw	t1, 32(sp)
   1a654:	03 28 81 02 	lw	a6, 40(sp)
   1a658:	63 96 0a 00 	bnez	s5, 12
   1a65c:	93 07 90 00 	addi	a5, zero, 9
   1a660:	e3 f8 a7 f1 	bgeu	a5, s10, -240
   1a664:	13 0d 05 00 	mv	s10, a0
   1a668:	93 8a 05 00 	mv	s5, a1
   1a66c:	13 8e 04 00 	mv	t3, s1
   1a670:	6f f0 9f f2 	j	-216
   1a674:	93 04 01 0f 	addi	s1, sp, 240
   1a678:	83 27 c1 00 	lw	a5, 12(sp)
   1a67c:	93 76 fd 00 	andi	a3, s10, 15
   1a680:	93 84 f4 ff 	addi	s1, s1, -1
   1a684:	b3 86 d7 00 	add	a3, a5, a3
   1a688:	83 c6 06 00 	lbu	a3, 0(a3)
   1a68c:	13 57 4d 00 	srli	a4, s10, 4
   1a690:	23 80 d4 00 	sb	a3, 0(s1)
   1a694:	93 96 ca 01 	slli	a3, s5, 28
   1a698:	33 ed e6 00 	or	s10, a3, a4
   1a69c:	93 da 4a 00 	srli	s5, s5, 4
   1a6a0:	b3 66 5d 01 	or	a3, s10, s5
   1a6a4:	e3 9a 06 fc 	bnez	a3, -44
   1a6a8:	6f f0 9f ec 	j	-312
   1a6ac:	93 04 01 0f 	addi	s1, sp, 240
   1a6b0:	e3 90 06 ec 	bnez	a3, -320
   1a6b4:	13 76 16 00 	andi	a2, a2, 1
   1a6b8:	e3 0c 06 ea 	beqz	a2, -328
   1a6bc:	13 07 00 03 	addi	a4, zero, 48
   1a6c0:	6f 00 80 1b 	j	440
   1a6c4:	63 00 06 18 	beqz	a2, 384
   1a6c8:	23 06 c1 08 	sb	a2, 140(sp)
   1a6cc:	a3 0d 01 02 	sb	zero, 59(sp)
   1a6d0:	93 8c 04 00 	mv	s9, s1
   1a6d4:	6f f0 1f 91 	j	-1776
   1a6d8:	13 06 06 01 	addi	a2, a2, 16
   1a6dc:	23 22 18 01 	sw	a7, 4(a6)
   1a6e0:	23 24 c1 04 	sw	a2, 72(sp)
   1a6e4:	23 22 d1 04 	sw	a3, 68(sp)
   1a6e8:	63 56 d3 02 	bge	t1, a3, 44
   1a6ec:	13 06 01 04 	addi	a2, sp, 64
   1a6f0:	93 05 04 00 	mv	a1, s0
   1a6f4:	13 85 09 00 	mv	a0, s3
   1a6f8:	23 24 e1 02 	sw	a4, 40(sp)
   1a6fc:	ef f0 4f c0 	jal	-3068
   1a700:	63 1e 05 0e 	bnez	a0, 252
   1a704:	03 27 81 02 	lw	a4, 40(sp)
   1a708:	93 85 0b 00 	mv	a1, s7
   1a70c:	13 03 70 00 	addi	t1, zero, 7
   1a710:	93 08 00 01 	addi	a7, zero, 16
   1a714:	13 07 07 ff 	addi	a4, a4, -16
   1a718:	13 88 05 00 	mv	a6, a1
   1a71c:	6f f0 1f af 	j	-1296
   1a720:	93 86 06 01 	addi	a3, a3, 16
   1a724:	23 22 68 00 	sw	t1, 4(a6)
   1a728:	23 24 d1 04 	sw	a3, 72(sp)
   1a72c:	23 22 e1 04 	sw	a4, 68(sp)
   1a730:	63 56 ee 02 	bge	t3, a4, 44
   1a734:	13 06 01 04 	addi	a2, sp, 64
   1a738:	93 05 04 00 	mv	a1, s0
   1a73c:	13 85 09 00 	mv	a0, s3
   1a740:	23 2e 11 01 	sw	a7, 28(sp)
   1a744:	ef f0 cf bb 	jal	-3140
   1a748:	63 1a 05 0a 	bnez	a0, 180
   1a74c:	83 28 c1 01 	lw	a7, 28(sp)
   1a750:	13 86 0b 00 	mv	a2, s7
   1a754:	13 0e 70 00 	addi	t3, zero, 7
   1a758:	13 03 00 01 	addi	t1, zero, 16
   1a75c:	93 88 08 ff 	addi	a7, a7, -16
   1a760:	13 08 06 00 	mv	a6, a2
   1a764:	6f f0 df bb 	j	-1092
   1a768:	93 86 06 01 	addi	a3, a3, 16
   1a76c:	23 22 18 01 	sw	a7, 4(a6)
   1a770:	23 24 d1 04 	sw	a3, 72(sp)
   1a774:	23 22 e1 04 	sw	a4, 68(sp)
   1a778:	63 52 e3 02 	bge	t1, a4, 36
   1a77c:	13 06 01 04 	addi	a2, sp, 64
   1a780:	93 05 04 00 	mv	a1, s0
   1a784:	13 85 09 00 	mv	a0, s3
   1a788:	ef f0 8f b7 	jal	-3208
   1a78c:	63 18 05 06 	bnez	a0, 112
   1a790:	13 86 0b 00 	mv	a2, s7
   1a794:	13 03 70 00 	addi	t1, zero, 7
   1a798:	93 08 00 01 	addi	a7, zero, 16
   1a79c:	93 8a 0a ff 	addi	s5, s5, -16
   1a7a0:	13 08 06 00 	mv	a6, a2
   1a7a4:	6f f0 df bd 	j	-1060
   1a7a8:	b3 04 ab 41 	sub	s1, s6, s10
   1a7ac:	e3 58 90 c6 	blez	s1, -912
   1a7b0:	13 09 00 01 	addi	s2, zero, 16
   1a7b4:	93 0a 70 00 	addi	s5, zero, 7
   1a7b8:	83 26 41 01 	lw	a3, 20(sp)
   1a7bc:	83 27 41 04 	lw	a5, 68(sp)
   1a7c0:	03 27 81 04 	lw	a4, 72(sp)
   1a7c4:	23 20 d8 00 	sw	a3, 0(a6)
   1a7c8:	93 87 17 00 	addi	a5, a5, 1
   1a7cc:	63 40 99 04 	blt	s2, s1, 64
   1a7d0:	23 22 98 00 	sw	s1, 4(a6)
   1a7d4:	b3 84 e4 00 	add	s1, s1, a4
   1a7d8:	23 24 91 04 	sw	s1, 72(sp)
   1a7dc:	23 22 f1 04 	sw	a5, 68(sp)
   1a7e0:	13 07 70 00 	addi	a4, zero, 7
   1a7e4:	e3 5c f7 c2 	bge	a4, a5, -968
   1a7e8:	13 06 01 04 	addi	a2, sp, 64
   1a7ec:	93 05 04 00 	mv	a1, s0
   1a7f0:	13 85 09 00 	mv	a0, s3
   1a7f4:	ef f0 cf b0 	jal	-3316
   1a7f8:	e3 02 05 c2 	beqz	a0, -988
   1a7fc:	83 57 c4 00 	lhu	a5, 12(s0)
   1a800:	93 f7 07 04 	andi	a5, a5, 64
   1a804:	63 8c 07 cc 	beqz	a5, -2856
   1a808:	6f f0 0f cd 	j	-2864
   1a80c:	13 07 07 01 	addi	a4, a4, 16
   1a810:	23 22 28 01 	sw	s2, 4(a6)
   1a814:	23 24 e1 04 	sw	a4, 72(sp)
   1a818:	23 22 f1 04 	sw	a5, 68(sp)
   1a81c:	13 08 88 00 	addi	a6, a6, 8
   1a820:	63 de fa 00 	bge	s5, a5, 28
   1a824:	13 06 01 04 	addi	a2, sp, 64
   1a828:	93 05 04 00 	mv	a1, s0
   1a82c:	13 85 09 00 	mv	a0, s3
   1a830:	ef f0 0f ad 	jal	-3376
   1a834:	e3 14 05 fc 	bnez	a0, -56
   1a838:	13 88 0b 00 	mv	a6, s7
   1a83c:	93 84 04 ff 	addi	s1, s1, -16
   1a840:	6f f0 9f f7 	j	-136
   1a844:	83 27 81 04 	lw	a5, 72(sp)
   1a848:	e3 8a 07 fa 	beqz	a5, -76
   1a84c:	13 06 01 04 	addi	a2, sp, 64
   1a850:	93 05 04 00 	mv	a1, s0
   1a854:	13 85 09 00 	mv	a0, s3
   1a858:	ef f0 8f aa 	jal	-3416
   1a85c:	6f f0 1f fa 	j	-96
   1a860:	93 06 f0 ff 	addi	a3, zero, -1
   1a864:	e3 16 d9 ca 	bne	s2, a3, -852
   1a868:	e3 90 0a d2 	bnez	s5, -736
   1a86c:	93 06 90 00 	addi	a3, zero, 9
   1a870:	e3 ec a6 d1 	bltu	a3, s10, -744
   1a874:	13 07 0d 03 	addi	a4, s10, 48
   1a878:	a3 07 e1 0e 	sb	a4, 239(sp)
   1a87c:	93 04 f1 0e 	addi	s1, sp, 239
   1a880:	6f f0 1f cf 	j	-784

vfiprintf:
   1a884:	93 06 06 00 	mv	a3, a2
   1a888:	13 86 05 00 	mv	a2, a1
   1a88c:	93 05 05 00 	mv	a1, a0
   1a890:	03 a5 01 1c 	lw	a0, 448(gp)
   1a894:	6f f0 8f b6 	j	-3224

__sbprintf:
   1a898:	83 d7 c5 00 	lhu	a5, 12(a1)
   1a89c:	13 01 01 b8 	addi	sp, sp, -1152
   1a8a0:	23 2c 81 46 	sw	s0, 1144(sp)
   1a8a4:	93 f7 d7 ff 	andi	a5, a5, -3
   1a8a8:	23 1a f1 00 	sh	a5, 20(sp)
   1a8ac:	83 a7 45 06 	lw	a5, 100(a1)
   1a8b0:	13 84 05 00 	mv	s0, a1
   1a8b4:	23 2a 91 46 	sw	s1, 1140(sp)
   1a8b8:	23 26 f1 06 	sw	a5, 108(sp)
   1a8bc:	83 d7 e5 00 	lhu	a5, 14(a1)
   1a8c0:	23 28 21 47 	sw	s2, 1136(sp)
   1a8c4:	23 2e 11 46 	sw	ra, 1148(sp)
   1a8c8:	23 1b f1 00 	sh	a5, 22(sp)
   1a8cc:	83 a7 c5 01 	lw	a5, 28(a1)
   1a8d0:	13 09 05 00 	mv	s2, a0
   1a8d4:	23 20 01 02 	sw	zero, 32(sp)
   1a8d8:	23 22 f1 02 	sw	a5, 36(sp)
   1a8dc:	83 a7 45 02 	lw	a5, 36(a1)
   1a8e0:	93 05 81 00 	addi	a1, sp, 8
   1a8e4:	23 26 f1 02 	sw	a5, 44(sp)
   1a8e8:	93 07 01 07 	addi	a5, sp, 112
   1a8ec:	23 24 f1 00 	sw	a5, 8(sp)
   1a8f0:	23 2c f1 00 	sw	a5, 24(sp)
   1a8f4:	93 07 00 40 	addi	a5, zero, 1024
   1a8f8:	23 28 f1 00 	sw	a5, 16(sp)
   1a8fc:	23 2e f1 00 	sw	a5, 28(sp)
   1a900:	ef f0 cf af 	jal	-3332
   1a904:	93 04 05 00 	mv	s1, a0
   1a908:	63 4c 05 00 	bltz	a0, 24
   1a90c:	93 05 81 00 	addi	a1, sp, 8
   1a910:	13 05 09 00 	mv	a0, s2
   1a914:	ef 90 0f d7 	jal	-27280
   1a918:	63 04 05 00 	beqz	a0, 8
   1a91c:	93 04 f0 ff 	addi	s1, zero, -1
   1a920:	83 57 41 01 	lhu	a5, 20(sp)
   1a924:	93 f7 07 04 	andi	a5, a5, 64
   1a928:	63 88 07 00 	beqz	a5, 16
   1a92c:	83 57 c4 00 	lhu	a5, 12(s0)
   1a930:	93 e7 07 04 	ori	a5, a5, 64
   1a934:	23 16 f4 00 	sh	a5, 12(s0)
   1a938:	83 20 c1 47 	lw	ra, 1148(sp)
   1a93c:	03 24 81 47 	lw	s0, 1144(sp)
   1a940:	13 85 04 00 	mv	a0, s1
   1a944:	03 29 01 47 	lw	s2, 1136(sp)
   1a948:	83 24 41 47 	lw	s1, 1140(sp)
   1a94c:	13 01 01 48 	addi	sp, sp, 1152
   1a950:	67 80 00 00 	ret

_write_r:
   1a954:	13 01 01 ff 	addi	sp, sp, -16
   1a958:	23 24 81 00 	sw	s0, 8(sp)
   1a95c:	23 22 91 00 	sw	s1, 4(sp)
   1a960:	93 04 05 00 	mv	s1, a0
   1a964:	13 85 05 00 	mv	a0, a1
   1a968:	93 05 06 00 	mv	a1, a2
   1a96c:	13 86 06 00 	mv	a2, a3
   1a970:	23 26 11 00 	sw	ra, 12(sp)
   1a974:	23 a4 01 22 	sw	zero, 552(gp)
   1a978:	ef 20 c0 50 	jal	9484
   1a97c:	93 07 f0 ff 	addi	a5, zero, -1
   1a980:	63 18 f5 00 	bne	a0, a5, 16
   1a984:	83 a7 81 22 	lw	a5, 552(gp)
   1a988:	63 84 07 00 	beqz	a5, 8
   1a98c:	23 a0 f4 00 	sw	a5, 0(s1)
   1a990:	83 20 c1 00 	lw	ra, 12(sp)
   1a994:	03 24 81 00 	lw	s0, 8(sp)
   1a998:	83 24 41 00 	lw	s1, 4(sp)
   1a99c:	13 01 01 01 	addi	sp, sp, 16
   1a9a0:	67 80 00 00 	ret

_calloc_r:
   1a9a4:	13 01 01 ff 	addi	sp, sp, -16
   1a9a8:	23 24 81 00 	sw	s0, 8(sp)
   1a9ac:	13 04 05 00 	mv	s0, a0
   1a9b0:	13 85 05 00 	mv	a0, a1
   1a9b4:	93 05 06 00 	mv	a1, a2
   1a9b8:	23 26 11 00 	sw	ra, 12(sp)
   1a9bc:	ef 70 c0 30 	jal	29452
   1a9c0:	93 05 05 00 	mv	a1, a0
   1a9c4:	13 05 04 00 	mv	a0, s0
   1a9c8:	ef 60 4f f5 	jal	-39084
   1a9cc:	13 04 05 00 	mv	s0, a0
   1a9d0:	63 02 05 04 	beqz	a0, 68
   1a9d4:	03 26 c5 ff 	lw	a2, -4(a0)
   1a9d8:	13 07 40 02 	addi	a4, zero, 36
   1a9dc:	13 76 c6 ff 	andi	a2, a2, -4
   1a9e0:	13 06 c6 ff 	addi	a2, a2, -4
   1a9e4:	63 62 c7 06 	bltu	a4, a2, 100
   1a9e8:	93 06 30 01 	addi	a3, zero, 19
   1a9ec:	93 07 05 00 	mv	a5, a0
   1a9f0:	63 fc c6 00 	bgeu	a3, a2, 24
   1a9f4:	23 20 05 00 	sw	zero, 0(a0)
   1a9f8:	23 22 05 00 	sw	zero, 4(a0)
   1a9fc:	93 07 b0 01 	addi	a5, zero, 27
   1aa00:	63 e4 c7 02 	bltu	a5, a2, 40
   1aa04:	93 07 85 00 	addi	a5, a0, 8
   1aa08:	23 a0 07 00 	sw	zero, 0(a5)
   1aa0c:	23 a2 07 00 	sw	zero, 4(a5)
   1aa10:	23 a4 07 00 	sw	zero, 8(a5)
   1aa14:	13 05 04 00 	mv	a0, s0
   1aa18:	83 20 c1 00 	lw	ra, 12(sp)
   1aa1c:	03 24 81 00 	lw	s0, 8(sp)
   1aa20:	13 01 01 01 	addi	sp, sp, 16
   1aa24:	67 80 00 00 	ret
   1aa28:	23 24 05 00 	sw	zero, 8(a0)
   1aa2c:	23 26 05 00 	sw	zero, 12(a0)
   1aa30:	93 07 05 01 	addi	a5, a0, 16
   1aa34:	e3 1a e6 fc 	bne	a2, a4, -44
   1aa38:	23 28 05 00 	sw	zero, 16(a0)
   1aa3c:	93 07 85 01 	addi	a5, a0, 24
   1aa40:	23 2a 05 00 	sw	zero, 20(a0)
   1aa44:	6f f0 5f fc 	j	-60
   1aa48:	93 05 00 00 	mv	a1, zero
   1aa4c:	ef 60 9f d2 	jal	-37592
   1aa50:	6f f0 5f fc 	j	-60

_close_r:
   1aa54:	13 01 01 ff 	addi	sp, sp, -16
   1aa58:	23 24 81 00 	sw	s0, 8(sp)
   1aa5c:	23 22 91 00 	sw	s1, 4(sp)
   1aa60:	93 04 05 00 	mv	s1, a0
   1aa64:	13 85 05 00 	mv	a0, a1
   1aa68:	23 26 11 00 	sw	ra, 12(sp)
   1aa6c:	23 a4 01 22 	sw	zero, 552(gp)
   1aa70:	ef 20 80 17 	jal	8568
   1aa74:	93 07 f0 ff 	addi	a5, zero, -1
   1aa78:	63 18 f5 00 	bne	a0, a5, 16
   1aa7c:	83 a7 81 22 	lw	a5, 552(gp)
   1aa80:	63 84 07 00 	beqz	a5, 8
   1aa84:	23 a0 f4 00 	sw	a5, 0(s1)
   1aa88:	83 20 c1 00 	lw	ra, 12(sp)
   1aa8c:	03 24 81 00 	lw	s0, 8(sp)
   1aa90:	83 24 41 00 	lw	s1, 4(sp)
   1aa94:	13 01 01 01 	addi	sp, sp, 16
   1aa98:	67 80 00 00 	ret

_fclose_r:
   1aa9c:	13 01 01 ff 	addi	sp, sp, -16
   1aaa0:	23 26 11 00 	sw	ra, 12(sp)
   1aaa4:	23 24 81 00 	sw	s0, 8(sp)
   1aaa8:	23 22 91 00 	sw	s1, 4(sp)
   1aaac:	23 20 21 01 	sw	s2, 0(sp)
   1aab0:	63 92 05 02 	bnez	a1, 36
   1aab4:	13 09 00 00 	mv	s2, zero
   1aab8:	83 20 c1 00 	lw	ra, 12(sp)
   1aabc:	03 24 81 00 	lw	s0, 8(sp)
   1aac0:	13 05 09 00 	mv	a0, s2
   1aac4:	83 24 41 00 	lw	s1, 4(sp)
   1aac8:	03 29 01 00 	lw	s2, 0(sp)
   1aacc:	13 01 01 01 	addi	sp, sp, 16
   1aad0:	67 80 00 00 	ret
   1aad4:	93 04 05 00 	mv	s1, a0
   1aad8:	13 84 05 00 	mv	s0, a1
   1aadc:	63 08 05 00 	beqz	a0, 16
   1aae0:	83 27 85 03 	lw	a5, 56(a0)
   1aae4:	63 94 07 00 	bnez	a5, 8
   1aae8:	ef 90 8f d3 	jal	-27336
   1aaec:	83 17 c4 00 	lh	a5, 12(s0)
   1aaf0:	e3 82 07 fc 	beqz	a5, -60
   1aaf4:	93 05 04 00 	mv	a1, s0
   1aaf8:	13 85 04 00 	mv	a0, s1
   1aafc:	ef 90 0f 97 	jal	-28304
   1ab00:	83 27 c4 02 	lw	a5, 44(s0)
   1ab04:	13 09 05 00 	mv	s2, a0
   1ab08:	63 8c 07 00 	beqz	a5, 24
   1ab0c:	83 25 c4 01 	lw	a1, 28(s0)
   1ab10:	13 85 04 00 	mv	a0, s1
   1ab14:	e7 80 07 00 	jalr	a5
   1ab18:	63 54 05 00 	bgez	a0, 8
   1ab1c:	13 09 f0 ff 	addi	s2, zero, -1
   1ab20:	83 57 c4 00 	lhu	a5, 12(s0)
   1ab24:	93 f7 07 08 	andi	a5, a5, 128
   1ab28:	63 88 07 00 	beqz	a5, 16
   1ab2c:	83 25 04 01 	lw	a1, 16(s0)
   1ab30:	13 85 04 00 	mv	a0, s1
   1ab34:	ef 90 0f f9 	jal	-26736
   1ab38:	83 25 04 03 	lw	a1, 48(s0)
   1ab3c:	63 8c 05 00 	beqz	a1, 24
   1ab40:	93 07 04 04 	addi	a5, s0, 64
   1ab44:	63 86 f5 00 	beq	a1, a5, 12
   1ab48:	13 85 04 00 	mv	a0, s1
   1ab4c:	ef 90 8f f7 	jal	-26760
   1ab50:	23 28 04 02 	sw	zero, 48(s0)
   1ab54:	83 25 44 04 	lw	a1, 68(s0)
   1ab58:	63 88 05 00 	beqz	a1, 16
   1ab5c:	13 85 04 00 	mv	a0, s1
   1ab60:	ef 90 4f f6 	jal	-26780
   1ab64:	23 22 04 04 	sw	zero, 68(s0)
   1ab68:	ef 90 4f e2 	jal	-27100
   1ab6c:	23 16 04 00 	sh	zero, 12(s0)
   1ab70:	ef 90 0f e2 	jal	-27104
   1ab74:	6f f0 5f f4 	j	-188

fclose:
   1ab78:	93 05 05 00 	mv	a1, a0
   1ab7c:	03 a5 01 1c 	lw	a0, 448(gp)
   1ab80:	6f f0 df f1 	j	-228

__fputwc:
   1ab84:	13 01 01 fd 	addi	sp, sp, -48
   1ab88:	23 24 81 02 	sw	s0, 40(sp)
   1ab8c:	23 20 21 03 	sw	s2, 32(sp)
   1ab90:	23 2c 41 01 	sw	s4, 24(sp)
   1ab94:	23 26 11 02 	sw	ra, 44(sp)
   1ab98:	23 22 91 02 	sw	s1, 36(sp)
   1ab9c:	23 2e 31 01 	sw	s3, 28(sp)
   1aba0:	23 2a 51 01 	sw	s5, 20(sp)
   1aba4:	23 28 61 01 	sw	s6, 16(sp)
   1aba8:	13 0a 05 00 	mv	s4, a0
   1abac:	13 89 05 00 	mv	s2, a1
   1abb0:	13 04 06 00 	mv	s0, a2
   1abb4:	ef 00 00 6d 	jal	1744
   1abb8:	93 07 10 00 	addi	a5, zero, 1
   1abbc:	63 18 f5 02 	bne	a0, a5, 48
   1abc0:	93 07 f9 ff 	addi	a5, s2, -1
   1abc4:	13 07 e0 0f 	addi	a4, zero, 254
   1abc8:	63 62 f7 02 	bltu	a4, a5, 36
   1abcc:	23 06 21 01 	sb	s2, 12(sp)
   1abd0:	93 04 10 00 	addi	s1, zero, 1
   1abd4:	93 09 00 00 	mv	s3, zero
   1abd8:	93 0a f0 ff 	addi	s5, zero, -1
   1abdc:	13 0b a0 00 	addi	s6, zero, 10
   1abe0:	63 92 99 06 	bne	s3, s1, 100
   1abe4:	93 04 09 00 	mv	s1, s2
   1abe8:	6f 00 00 03 	j	48
   1abec:	93 06 c4 05 	addi	a3, s0, 92
   1abf0:	13 06 09 00 	mv	a2, s2
   1abf4:	93 05 c1 00 	addi	a1, sp, 12
   1abf8:	13 05 0a 00 	mv	a0, s4
   1abfc:	ef 10 10 71 	jal	7952
   1ac00:	93 07 f0 ff 	addi	a5, zero, -1
   1ac04:	93 04 05 00 	mv	s1, a0
   1ac08:	e3 16 f5 fc 	bne	a0, a5, -52
   1ac0c:	83 57 c4 00 	lhu	a5, 12(s0)
   1ac10:	93 e7 07 04 	ori	a5, a5, 64
   1ac14:	23 16 f4 00 	sh	a5, 12(s0)
   1ac18:	83 20 c1 02 	lw	ra, 44(sp)
   1ac1c:	03 24 81 02 	lw	s0, 40(sp)
   1ac20:	13 85 04 00 	mv	a0, s1
   1ac24:	03 29 01 02 	lw	s2, 32(sp)
   1ac28:	83 24 41 02 	lw	s1, 36(sp)
   1ac2c:	83 29 c1 01 	lw	s3, 28(sp)
   1ac30:	03 2a 81 01 	lw	s4, 24(sp)
   1ac34:	83 2a 41 01 	lw	s5, 20(sp)
   1ac38:	03 2b 01 01 	lw	s6, 16(sp)
   1ac3c:	13 01 01 03 	addi	sp, sp, 48
   1ac40:	67 80 00 00 	ret
   1ac44:	93 07 c1 00 	addi	a5, sp, 12
   1ac48:	b3 87 37 01 	add	a5, a5, s3
   1ac4c:	83 c5 07 00 	lbu	a1, 0(a5)
   1ac50:	83 27 84 00 	lw	a5, 8(s0)
   1ac54:	93 87 f7 ff 	addi	a5, a5, -1
   1ac58:	23 24 f4 00 	sw	a5, 8(s0)
   1ac5c:	63 d8 07 00 	bgez	a5, 16
   1ac60:	03 27 84 01 	lw	a4, 24(s0)
   1ac64:	63 c0 e7 02 	blt	a5, a4, 32
   1ac68:	63 8e 65 01 	beq	a1, s6, 28
   1ac6c:	83 27 04 00 	lw	a5, 0(s0)
   1ac70:	13 87 17 00 	addi	a4, a5, 1
   1ac74:	23 20 e4 00 	sw	a4, 0(s0)
   1ac78:	23 80 b7 00 	sb	a1, 0(a5)
   1ac7c:	93 89 19 00 	addi	s3, s3, 1
   1ac80:	6f f0 1f f6 	j	-160
   1ac84:	13 06 04 00 	mv	a2, s0
   1ac88:	13 05 0a 00 	mv	a0, s4
   1ac8c:	ef 10 10 54 	jal	7488
   1ac90:	e3 16 55 ff 	bne	a0, s5, -20
   1ac94:	93 04 f0 ff 	addi	s1, zero, -1
   1ac98:	6f f0 1f f8 	j	-128

_fputwc_r:
   1ac9c:	83 17 c6 00 	lh	a5, 12(a2)
   1aca0:	13 97 27 01 	slli	a4, a5, 18
   1aca4:	63 40 07 02 	bltz	a4, 32
   1aca8:	03 27 46 06 	lw	a4, 100(a2)
   1acac:	b7 26 00 00 	lui	a3, 2
   1acb0:	b3 e7 d7 00 	or	a5, a5, a3
   1acb4:	23 16 f6 00 	sh	a5, 12(a2)
   1acb8:	b7 27 00 00 	lui	a5, 2
   1acbc:	b3 67 f7 00 	or	a5, a4, a5
   1acc0:	23 22 f6 06 	sw	a5, 100(a2)
   1acc4:	6f f0 1f ec 	j	-320

fputwc:
   1acc8:	13 01 01 fe 	addi	sp, sp, -32
   1accc:	23 2c 81 00 	sw	s0, 24(sp)
   1acd0:	03 a4 01 1c 	lw	s0, 448(gp)
   1acd4:	23 2a 91 00 	sw	s1, 20(sp)
   1acd8:	23 2e 11 00 	sw	ra, 28(sp)
   1acdc:	93 04 05 00 	mv	s1, a0
   1ace0:	13 86 05 00 	mv	a2, a1
   1ace4:	63 0e 04 00 	beqz	s0, 28
   1ace8:	83 27 84 03 	lw	a5, 56(s0)
   1acec:	63 9a 07 00 	bnez	a5, 20
   1acf0:	13 05 04 00 	mv	a0, s0
   1acf4:	23 26 b1 00 	sw	a1, 12(sp)
   1acf8:	ef 90 8f b2 	jal	-27864
   1acfc:	03 26 c1 00 	lw	a2, 12(sp)
   1ad00:	13 05 04 00 	mv	a0, s0
   1ad04:	03 24 81 01 	lw	s0, 24(sp)
   1ad08:	83 20 c1 01 	lw	ra, 28(sp)
   1ad0c:	93 85 04 00 	mv	a1, s1
   1ad10:	83 24 41 01 	lw	s1, 20(sp)
   1ad14:	13 01 01 02 	addi	sp, sp, 32
   1ad18:	6f f0 5f f8 	j	-124

_fstat_r:
   1ad1c:	13 01 01 ff 	addi	sp, sp, -16
   1ad20:	23 24 81 00 	sw	s0, 8(sp)
   1ad24:	23 22 91 00 	sw	s1, 4(sp)
   1ad28:	93 04 05 00 	mv	s1, a0
   1ad2c:	13 85 05 00 	mv	a0, a1
   1ad30:	93 05 06 00 	mv	a1, a2
   1ad34:	23 26 11 00 	sw	ra, 12(sp)
   1ad38:	23 a4 01 22 	sw	zero, 552(gp)
   1ad3c:	ef 10 50 74 	jal	8004
   1ad40:	93 07 f0 ff 	addi	a5, zero, -1
   1ad44:	63 18 f5 00 	bne	a0, a5, 16
   1ad48:	83 a7 81 22 	lw	a5, 552(gp)
   1ad4c:	63 84 07 00 	beqz	a5, 8
   1ad50:	23 a0 f4 00 	sw	a5, 0(s1)
   1ad54:	83 20 c1 00 	lw	ra, 12(sp)
   1ad58:	03 24 81 00 	lw	s0, 8(sp)
   1ad5c:	83 24 41 00 	lw	s1, 4(sp)
   1ad60:	13 01 01 01 	addi	sp, sp, 16
   1ad64:	67 80 00 00 	ret

__sfvwrite_r:
   1ad68:	83 27 86 00 	lw	a5, 8(a2)
   1ad6c:	63 98 07 00 	bnez	a5, 16
   1ad70:	93 07 00 00 	mv	a5, zero
   1ad74:	13 85 07 00 	mv	a0, a5
   1ad78:	67 80 00 00 	ret
   1ad7c:	83 d7 c5 00 	lhu	a5, 12(a1)
   1ad80:	13 01 01 fc 	addi	sp, sp, -64
   1ad84:	23 2c 81 02 	sw	s0, 56(sp)
   1ad88:	23 28 21 03 	sw	s2, 48(sp)
   1ad8c:	23 20 61 03 	sw	s6, 32(sp)
   1ad90:	23 2e 11 02 	sw	ra, 60(sp)
   1ad94:	23 2a 91 02 	sw	s1, 52(sp)
   1ad98:	23 26 31 03 	sw	s3, 44(sp)
   1ad9c:	23 24 41 03 	sw	s4, 40(sp)
   1ada0:	23 22 51 03 	sw	s5, 36(sp)
   1ada4:	23 2e 71 01 	sw	s7, 28(sp)
   1ada8:	23 2c 81 01 	sw	s8, 24(sp)
   1adac:	23 2a 91 01 	sw	s9, 20(sp)
   1adb0:	23 28 a1 01 	sw	s10, 16(sp)
   1adb4:	23 26 b1 01 	sw	s11, 12(sp)
   1adb8:	93 f7 87 00 	andi	a5, a5, 8
   1adbc:	13 0b 06 00 	mv	s6, a2
   1adc0:	13 84 05 00 	mv	s0, a1
   1adc4:	13 09 05 00 	mv	s2, a0
   1adc8:	63 82 07 0e 	beqz	a5, 228
   1adcc:	83 a7 05 01 	lw	a5, 16(a1)
   1add0:	63 8e 07 0c 	beqz	a5, 220
   1add4:	83 57 c4 00 	lhu	a5, 12(s0)
   1add8:	03 2a 0b 00 	lw	s4, 0(s6)
   1addc:	13 f7 27 00 	andi	a4, a5, 2
   1ade0:	63 1a 07 16 	bnez	a4, 372
   1ade4:	93 f7 17 00 	andi	a5, a5, 1
   1ade8:	93 0b 00 00 	mv	s7, zero
   1adec:	63 8a 07 20 	beqz	a5, 532
   1adf0:	13 05 00 00 	mv	a0, zero
   1adf4:	93 0a 00 00 	mv	s5, zero
   1adf8:	93 09 00 00 	mv	s3, zero
   1adfc:	63 84 09 36 	beqz	s3, 872
   1ae00:	63 12 05 02 	bnez	a0, 36
   1ae04:	13 86 09 00 	mv	a2, s3
   1ae08:	93 05 a0 00 	addi	a1, zero, 10
   1ae0c:	13 85 0a 00 	mv	a0, s5
   1ae10:	ef b0 df 9c 	jal	-17972
   1ae14:	93 8b 19 00 	addi	s7, s3, 1
   1ae18:	63 06 05 00 	beqz	a0, 12
   1ae1c:	13 05 15 00 	addi	a0, a0, 1
   1ae20:	b3 0b 55 41 	sub	s7, a0, s5
   1ae24:	13 8c 0b 00 	mv	s8, s7
   1ae28:	63 f4 79 01 	bgeu	s3, s7, 8
   1ae2c:	13 8c 09 00 	mv	s8, s3
   1ae30:	03 25 04 00 	lw	a0, 0(s0)
   1ae34:	83 27 04 01 	lw	a5, 16(s0)
   1ae38:	83 26 44 01 	lw	a3, 20(s0)
   1ae3c:	63 fe a7 32 	bgeu	a5, a0, 828
   1ae40:	83 24 84 00 	lw	s1, 8(s0)
   1ae44:	b3 84 96 00 	add	s1, a3, s1
   1ae48:	63 d8 84 33 	bge	s1, s8, 816
   1ae4c:	93 85 0a 00 	mv	a1, s5
   1ae50:	13 86 04 00 	mv	a2, s1
   1ae54:	ef 00 40 61 	jal	1556
   1ae58:	83 27 04 00 	lw	a5, 0(s0)
   1ae5c:	93 05 04 00 	mv	a1, s0
   1ae60:	13 05 09 00 	mv	a0, s2
   1ae64:	b3 87 97 00 	add	a5, a5, s1
   1ae68:	23 20 f4 00 	sw	a5, 0(s0)
   1ae6c:	ef 90 8f 81 	jal	-28648
   1ae70:	63 1e 05 16 	bnez	a0, 380
   1ae74:	b3 8b 9b 40 	sub	s7, s7, s1
   1ae78:	13 05 10 00 	addi	a0, zero, 1
   1ae7c:	63 9a 0b 00 	bnez	s7, 20
   1ae80:	93 05 04 00 	mv	a1, s0
   1ae84:	13 05 09 00 	mv	a0, s2
   1ae88:	ef 80 df ff 	jal	-28676
   1ae8c:	63 10 05 16 	bnez	a0, 352
   1ae90:	83 27 8b 00 	lw	a5, 8(s6)
   1ae94:	b3 8a 9a 00 	add	s5, s5, s1
   1ae98:	b3 89 99 40 	sub	s3, s3, s1
   1ae9c:	b3 84 97 40 	sub	s1, a5, s1
   1aea0:	23 24 9b 00 	sw	s1, 8(s6)
   1aea4:	e3 9c 04 f4 	bnez	s1, -168
   1aea8:	6f 00 80 06 	j	104
   1aeac:	93 05 04 00 	mv	a1, s0
   1aeb0:	13 05 09 00 	mv	a0, s2
   1aeb4:	ef 80 df af 	jal	-29956
   1aeb8:	93 07 f0 ff 	addi	a5, zero, -1
   1aebc:	e3 0c 05 f0 	beqz	a0, -232
   1aec0:	6f 00 40 05 	j	84
   1aec4:	83 29 0a 00 	lw	s3, 0(s4)
   1aec8:	83 24 4a 00 	lw	s1, 4(s4)
   1aecc:	13 0a 8a 00 	addi	s4, s4, 8
   1aed0:	e3 8a 04 fe 	beqz	s1, -12
   1aed4:	93 86 04 00 	mv	a3, s1
   1aed8:	63 f4 9a 00 	bgeu	s5, s1, 8
   1aedc:	93 86 0a 00 	mv	a3, s5
   1aee0:	83 27 44 02 	lw	a5, 36(s0)
   1aee4:	83 25 c4 01 	lw	a1, 28(s0)
   1aee8:	13 86 09 00 	mv	a2, s3
   1aeec:	13 05 09 00 	mv	a0, s2
   1aef0:	e7 80 07 00 	jalr	a5
   1aef4:	63 5c a0 0e 	blez	a0, 248
   1aef8:	83 27 8b 00 	lw	a5, 8(s6)
   1aefc:	b3 89 a9 00 	add	s3, s3, a0
   1af00:	b3 84 a4 40 	sub	s1, s1, a0
   1af04:	33 85 a7 40 	sub	a0, a5, a0
   1af08:	23 24 ab 00 	sw	a0, 8(s6)
   1af0c:	e3 12 05 fc 	bnez	a0, -60
   1af10:	93 07 00 00 	mv	a5, zero
   1af14:	83 20 c1 03 	lw	ra, 60(sp)
   1af18:	03 24 81 03 	lw	s0, 56(sp)
   1af1c:	83 24 41 03 	lw	s1, 52(sp)
   1af20:	03 29 01 03 	lw	s2, 48(sp)
   1af24:	83 29 c1 02 	lw	s3, 44(sp)
   1af28:	03 2a 81 02 	lw	s4, 40(sp)
   1af2c:	83 2a 41 02 	lw	s5, 36(sp)
   1af30:	03 2b 01 02 	lw	s6, 32(sp)
   1af34:	83 2b c1 01 	lw	s7, 28(sp)
   1af38:	03 2c 81 01 	lw	s8, 24(sp)
   1af3c:	83 2c 41 01 	lw	s9, 20(sp)
   1af40:	03 2d 01 01 	lw	s10, 16(sp)
   1af44:	83 2d c1 00 	lw	s11, 12(sp)
   1af48:	13 85 07 00 	mv	a0, a5
   1af4c:	13 01 01 04 	addi	sp, sp, 64
   1af50:	67 80 00 00 	ret
   1af54:	b7 0a 00 80 	lui	s5, 524288
   1af58:	93 09 00 00 	mv	s3, zero
   1af5c:	93 04 00 00 	mv	s1, zero
   1af60:	93 ca 0a c0 	xori	s5, s5, -1024
   1af64:	6f f0 df f6 	j	-148
   1af68:	83 2b 0a 00 	lw	s7, 0(s4)
   1af6c:	83 24 4a 00 	lw	s1, 4(s4)
   1af70:	13 0a 8a 00 	addi	s4, s4, 8
   1af74:	e3 8a 04 fe 	beqz	s1, -12
   1af78:	83 57 c4 00 	lhu	a5, 12(s0)
   1af7c:	83 2d 84 00 	lw	s11, 8(s0)
   1af80:	03 25 04 00 	lw	a0, 0(s0)
   1af84:	13 f7 07 20 	andi	a4, a5, 512
   1af88:	63 02 07 14 	beqz	a4, 324
   1af8c:	63 e0 b4 0d 	bltu	s1, s11, 192
   1af90:	13 f7 07 48 	andi	a4, a5, 1152
   1af94:	63 0c 07 0a 	beqz	a4, 184
   1af98:	03 27 44 01 	lw	a4, 20(s0)
   1af9c:	83 25 04 01 	lw	a1, 16(s0)
   1afa0:	93 1a 17 00 	slli	s5, a4, 1
   1afa4:	33 87 ea 00 	add	a4, s5, a4
   1afa8:	93 5a f7 01 	srli	s5, a4, 31
   1afac:	33 0d b5 40 	sub	s10, a0, a1
   1afb0:	b3 8a ea 00 	add	s5, s5, a4
   1afb4:	13 07 1d 00 	addi	a4, s10, 1
   1afb8:	93 da 1a 40 	srai	s5, s5, 1
   1afbc:	33 07 97 00 	add	a4, a4, s1
   1afc0:	63 f4 ea 00 	bgeu	s5, a4, 8
   1afc4:	93 0a 07 00 	mv	s5, a4
   1afc8:	93 f7 07 40 	andi	a5, a5, 1024
   1afcc:	63 88 07 0c 	beqz	a5, 208
   1afd0:	93 85 0a 00 	mv	a1, s5
   1afd4:	13 05 09 00 	mv	a0, s2
   1afd8:	ef 60 4f 94 	jal	-40636
   1afdc:	93 09 05 00 	mv	s3, a0
   1afe0:	63 1a 05 02 	bnez	a0, 52
   1afe4:	93 07 c0 00 	addi	a5, zero, 12
   1afe8:	23 20 f9 00 	sw	a5, 0(s2)
   1afec:	83 57 c4 00 	lhu	a5, 12(s0)
   1aff0:	93 e7 07 04 	ori	a5, a5, 64
   1aff4:	23 16 f4 00 	sh	a5, 12(s0)
   1aff8:	93 07 f0 ff 	addi	a5, zero, -1
   1affc:	6f f0 9f f1 	j	-232
   1b000:	37 0c 00 80 	lui	s8, 524288
   1b004:	93 4c ec ff 	xori	s9, s8, -2
   1b008:	93 04 00 00 	mv	s1, zero
   1b00c:	13 4c fc ff 	not	s8, s8
   1b010:	6f f0 5f f6 	j	-156
   1b014:	83 25 04 01 	lw	a1, 16(s0)
   1b018:	13 06 0d 00 	mv	a2, s10
   1b01c:	ef 00 40 37 	jal	884
   1b020:	83 57 c4 00 	lhu	a5, 12(s0)
   1b024:	93 f7 f7 b7 	andi	a5, a5, -1153
   1b028:	93 e7 07 08 	ori	a5, a5, 128
   1b02c:	23 16 f4 00 	sh	a5, 12(s0)
   1b030:	23 28 34 01 	sw	s3, 16(s0)
   1b034:	23 2a 54 01 	sw	s5, 20(s0)
   1b038:	b3 89 a9 01 	add	s3, s3, s10
   1b03c:	b3 8a aa 41 	sub	s5, s5, s10
   1b040:	23 20 34 01 	sw	s3, 0(s0)
   1b044:	93 8d 04 00 	mv	s11, s1
   1b048:	23 24 54 01 	sw	s5, 8(s0)
   1b04c:	93 89 04 00 	mv	s3, s1
   1b050:	63 f4 b4 01 	bgeu	s1, s11, 8
   1b054:	93 8d 04 00 	mv	s11, s1
   1b058:	03 25 04 00 	lw	a0, 0(s0)
   1b05c:	13 86 0d 00 	mv	a2, s11
   1b060:	93 85 0b 00 	mv	a1, s7
   1b064:	ef 00 40 40 	jal	1028
   1b068:	83 27 84 00 	lw	a5, 8(s0)
   1b06c:	b3 87 b7 41 	sub	a5, a5, s11
   1b070:	23 24 f4 00 	sw	a5, 8(s0)
   1b074:	83 27 04 00 	lw	a5, 0(s0)
   1b078:	b3 8d b7 01 	add	s11, a5, s11
   1b07c:	23 20 b4 01 	sw	s11, 0(s0)
   1b080:	83 27 8b 00 	lw	a5, 8(s6)
   1b084:	b3 8b 3b 01 	add	s7, s7, s3
   1b088:	b3 84 34 41 	sub	s1, s1, s3
   1b08c:	b3 89 37 41 	sub	s3, a5, s3
   1b090:	23 24 3b 01 	sw	s3, 8(s6)
   1b094:	e3 90 09 ee 	bnez	s3, -288
   1b098:	6f f0 9f e7 	j	-392
   1b09c:	13 86 0a 00 	mv	a2, s5
   1b0a0:	13 05 09 00 	mv	a0, s2
   1b0a4:	ef 00 00 47 	jal	1136
   1b0a8:	93 09 05 00 	mv	s3, a0
   1b0ac:	e3 12 05 f8 	bnez	a0, -124
   1b0b0:	83 25 04 01 	lw	a1, 16(s0)
   1b0b4:	13 05 09 00 	mv	a0, s2
   1b0b8:	ef 90 cf a0 	jal	-28148
   1b0bc:	83 57 c4 00 	lhu	a5, 12(s0)
   1b0c0:	93 f7 f7 f7 	andi	a5, a5, -129
   1b0c4:	23 16 f4 00 	sh	a5, 12(s0)
   1b0c8:	6f f0 df f1 	j	-228
   1b0cc:	83 27 04 01 	lw	a5, 16(s0)
   1b0d0:	63 e6 a7 00 	bltu	a5, a0, 12
   1b0d4:	83 29 44 01 	lw	s3, 20(s0)
   1b0d8:	63 f6 34 05 	bgeu	s1, s3, 76
   1b0dc:	93 89 0d 00 	mv	s3, s11
   1b0e0:	63 f4 b4 01 	bgeu	s1, s11, 8
   1b0e4:	93 89 04 00 	mv	s3, s1
   1b0e8:	13 86 09 00 	mv	a2, s3
   1b0ec:	93 85 0b 00 	mv	a1, s7
   1b0f0:	ef 00 80 37 	jal	888
   1b0f4:	83 27 84 00 	lw	a5, 8(s0)
   1b0f8:	03 27 04 00 	lw	a4, 0(s0)
   1b0fc:	b3 87 37 41 	sub	a5, a5, s3
   1b100:	33 07 37 01 	add	a4, a4, s3
   1b104:	23 24 f4 00 	sw	a5, 8(s0)
   1b108:	23 20 e4 00 	sw	a4, 0(s0)
   1b10c:	e3 9a 07 f6 	bnez	a5, -140
   1b110:	93 05 04 00 	mv	a1, s0
   1b114:	13 05 09 00 	mv	a0, s2
   1b118:	ef 80 df d6 	jal	-29332
   1b11c:	e3 02 05 f6 	beqz	a0, -156
   1b120:	6f f0 df ec 	j	-308
   1b124:	13 85 04 00 	mv	a0, s1
   1b128:	63 f4 9c 00 	bgeu	s9, s1, 8
   1b12c:	13 05 0c 00 	mv	a0, s8
   1b130:	93 85 09 00 	mv	a1, s3
   1b134:	ef 60 90 3b 	jal	27576
   1b138:	93 85 09 00 	mv	a1, s3
   1b13c:	ef 60 d0 38 	jal	27532
   1b140:	83 27 44 02 	lw	a5, 36(s0)
   1b144:	83 25 c4 01 	lw	a1, 28(s0)
   1b148:	93 06 05 00 	mv	a3, a0
   1b14c:	13 86 0b 00 	mv	a2, s7
   1b150:	13 05 09 00 	mv	a0, s2
   1b154:	e7 80 07 00 	jalr	a5
   1b158:	93 09 05 00 	mv	s3, a0
   1b15c:	e3 42 a0 f2 	bgtz	a0, -220
   1b160:	6f f0 df e8 	j	-372
   1b164:	83 2a 0a 00 	lw	s5, 0(s4)
   1b168:	83 29 4a 00 	lw	s3, 4(s4)
   1b16c:	13 05 00 00 	mv	a0, zero
   1b170:	13 0a 8a 00 	addi	s4, s4, 8
   1b174:	6f f0 9f c8 	j	-888
   1b178:	63 42 dc 02 	blt	s8, a3, 36
   1b17c:	83 27 44 02 	lw	a5, 36(s0)
   1b180:	83 25 c4 01 	lw	a1, 28(s0)
   1b184:	13 86 0a 00 	mv	a2, s5
   1b188:	13 05 09 00 	mv	a0, s2
   1b18c:	e7 80 07 00 	jalr	a5
   1b190:	93 04 05 00 	mv	s1, a0
   1b194:	e3 40 a0 ce 	bgtz	a0, -800
   1b198:	6f f0 5f e5 	j	-428
   1b19c:	13 06 0c 00 	mv	a2, s8
   1b1a0:	93 85 0a 00 	mv	a1, s5
   1b1a4:	ef 00 40 2c 	jal	708
   1b1a8:	83 27 84 00 	lw	a5, 8(s0)
   1b1ac:	93 04 0c 00 	mv	s1, s8
   1b1b0:	b3 87 87 41 	sub	a5, a5, s8
   1b1b4:	23 24 f4 00 	sw	a5, 8(s0)
   1b1b8:	83 27 04 00 	lw	a5, 0(s0)
   1b1bc:	b3 87 87 01 	add	a5, a5, s8
   1b1c0:	23 20 f4 00 	sw	a5, 0(s0)
   1b1c4:	6f f0 1f cb 	j	-848

_isatty_r:
   1b1c8:	13 01 01 ff 	addi	sp, sp, -16
   1b1cc:	23 24 81 00 	sw	s0, 8(sp)
   1b1d0:	23 22 91 00 	sw	s1, 4(sp)
   1b1d4:	93 04 05 00 	mv	s1, a0
   1b1d8:	13 85 05 00 	mv	a0, a1
   1b1dc:	23 26 11 00 	sw	ra, 12(sp)
   1b1e0:	23 a4 01 22 	sw	zero, 552(gp)
   1b1e4:	ef 10 90 30 	jal	6920
   1b1e8:	93 07 f0 ff 	addi	a5, zero, -1
   1b1ec:	63 18 f5 00 	bne	a0, a5, 16
   1b1f0:	83 a7 81 22 	lw	a5, 552(gp)
   1b1f4:	63 84 07 00 	beqz	a5, 8
   1b1f8:	23 a0 f4 00 	sw	a5, 0(s1)
   1b1fc:	83 20 c1 00 	lw	ra, 12(sp)
   1b200:	03 24 81 00 	lw	s0, 8(sp)
   1b204:	83 24 41 00 	lw	s1, 4(sp)
   1b208:	13 01 01 01 	addi	sp, sp, 16
   1b20c:	67 80 00 00 	ret

_setlocale_r:
   1b210:	13 01 01 ff 	addi	sp, sp, -16
   1b214:	23 22 91 00 	sw	s1, 4(sp)
   1b218:	23 26 11 00 	sw	ra, 12(sp)
   1b21c:	23 24 81 00 	sw	s0, 8(sp)
   1b220:	b7 24 02 00 	lui	s1, 34
   1b224:	63 1e 06 00 	bnez	a2, 28
   1b228:	13 85 84 6b 	addi	a0, s1, 1720
   1b22c:	83 20 c1 00 	lw	ra, 12(sp)
   1b230:	03 24 81 00 	lw	s0, 8(sp)
   1b234:	83 24 41 00 	lw	s1, 4(sp)
   1b238:	13 01 01 01 	addi	sp, sp, 16
   1b23c:	67 80 00 00 	ret
   1b240:	b7 25 02 00 	lui	a1, 34
   1b244:	93 85 c5 6b 	addi	a1, a1, 1724
   1b248:	13 05 06 00 	mv	a0, a2
   1b24c:	13 04 06 00 	mv	s0, a2
   1b250:	ef 00 90 01 	jal	2072
   1b254:	e3 0a 05 fc 	beqz	a0, -44
   1b258:	93 85 84 6b 	addi	a1, s1, 1720
   1b25c:	13 05 04 00 	mv	a0, s0
   1b260:	ef 00 90 00 	jal	2056
   1b264:	e3 02 05 fc 	beqz	a0, -60
   1b268:	b7 25 02 00 	lui	a1, 34
   1b26c:	93 85 45 ff 	addi	a1, a1, -12
   1b270:	13 05 04 00 	mv	a0, s0
   1b274:	ef 00 40 7f 	jal	2036
   1b278:	e3 08 05 fa 	beqz	a0, -80
   1b27c:	13 05 00 00 	mv	a0, zero
   1b280:	6f f0 df fa 	j	-84

__locale_mb_cur_max:
   1b284:	83 a7 01 1c 	lw	a5, 448(gp)
   1b288:	83 a7 47 03 	lw	a5, 52(a5)
   1b28c:	63 94 07 00 	bnez	a5, 8
   1b290:	93 87 01 03 	addi	a5, gp, 48
   1b294:	03 c5 87 12 	lbu	a0, 296(a5)
   1b298:	67 80 00 00 	ret

__locale_ctype_ptr_l:
   1b29c:	03 25 c5 0e 	lw	a0, 236(a0)
   1b2a0:	67 80 00 00 	ret

__locale_ctype_ptr:
   1b2a4:	83 a7 01 1c 	lw	a5, 448(gp)
   1b2a8:	83 a7 47 03 	lw	a5, 52(a5)
   1b2ac:	63 94 07 00 	bnez	a5, 8
   1b2b0:	93 87 01 03 	addi	a5, gp, 48
   1b2b4:	03 a5 c7 0e 	lw	a0, 236(a5)
   1b2b8:	67 80 00 00 	ret

setlocale:
   1b2bc:	13 86 05 00 	mv	a2, a1
   1b2c0:	93 05 05 00 	mv	a1, a0
   1b2c4:	03 a5 01 1c 	lw	a0, 448(gp)
   1b2c8:	6f f0 9f f4 	j	-184

_lseek_r:
   1b2cc:	13 01 01 ff 	addi	sp, sp, -16
   1b2d0:	23 24 81 00 	sw	s0, 8(sp)
   1b2d4:	23 22 91 00 	sw	s1, 4(sp)
   1b2d8:	93 04 05 00 	mv	s1, a0
   1b2dc:	13 85 05 00 	mv	a0, a1
   1b2e0:	93 05 06 00 	mv	a1, a2
   1b2e4:	13 86 06 00 	mv	a2, a3
   1b2e8:	23 26 11 00 	sw	ra, 12(sp)
   1b2ec:	23 a4 01 22 	sw	zero, 552(gp)
   1b2f0:	ef 10 50 23 	jal	6708
   1b2f4:	93 07 f0 ff 	addi	a5, zero, -1
   1b2f8:	63 18 f5 00 	bne	a0, a5, 16
   1b2fc:	83 a7 81 22 	lw	a5, 552(gp)
   1b300:	63 84 07 00 	beqz	a5, 8
   1b304:	23 a0 f4 00 	sw	a5, 0(s1)
   1b308:	83 20 c1 00 	lw	ra, 12(sp)
   1b30c:	03 24 81 00 	lw	s0, 8(sp)
   1b310:	83 24 41 00 	lw	s1, 4(sp)
   1b314:	13 01 01 01 	addi	sp, sp, 16
   1b318:	67 80 00 00 	ret

_mbtowc_r:
   1b31c:	83 a7 01 1c 	lw	a5, 448(gp)
   1b320:	83 a7 47 03 	lw	a5, 52(a5)
   1b324:	63 94 07 00 	bnez	a5, 8
   1b328:	93 87 01 03 	addi	a5, gp, 48
   1b32c:	03 a3 47 0e 	lw	t1, 228(a5)
   1b330:	67 00 03 00 	jr	t1

__ascii_mbtowc:
   1b334:	63 9a 05 02 	bnez	a1, 52
   1b338:	13 01 01 ff 	addi	sp, sp, -16
   1b33c:	93 05 c1 00 	addi	a1, sp, 12
   1b340:	13 05 00 00 	mv	a0, zero
   1b344:	63 0e 06 00 	beqz	a2, 28
   1b348:	13 05 e0 ff 	addi	a0, zero, -2
   1b34c:	63 8a 06 00 	beqz	a3, 20
   1b350:	83 47 06 00 	lbu	a5, 0(a2)
   1b354:	23 a0 f5 00 	sw	a5, 0(a1)
   1b358:	03 45 06 00 	lbu	a0, 0(a2)
   1b35c:	33 35 a0 00 	snez	a0, a0
   1b360:	13 01 01 01 	addi	sp, sp, 16
   1b364:	67 80 00 00 	ret
   1b368:	13 05 00 00 	mv	a0, zero
   1b36c:	63 00 06 02 	beqz	a2, 32
   1b370:	13 05 e0 ff 	addi	a0, zero, -2
   1b374:	63 8c 06 00 	beqz	a3, 24
   1b378:	83 47 06 00 	lbu	a5, 0(a2)
   1b37c:	23 a0 f5 00 	sw	a5, 0(a1)
   1b380:	03 45 06 00 	lbu	a0, 0(a2)
   1b384:	33 35 a0 00 	snez	a0, a0
   1b388:	67 80 00 00 	ret
   1b38c:	67 80 00 00 	ret

memcpy:
   1b390:	b3 c7 a5 00 	xor	a5, a1, a0
   1b394:	93 f7 37 00 	andi	a5, a5, 3
   1b398:	33 07 c5 00 	add	a4, a0, a2
   1b39c:	63 96 07 00 	bnez	a5, 12
   1b3a0:	93 07 30 00 	addi	a5, zero, 3
   1b3a4:	63 e2 c7 02 	bltu	a5, a2, 36
   1b3a8:	93 07 05 00 	mv	a5, a0
   1b3ac:	63 7c e5 0a 	bgeu	a0, a4, 184
   1b3b0:	83 c6 05 00 	lbu	a3, 0(a1)
   1b3b4:	93 87 17 00 	addi	a5, a5, 1
   1b3b8:	93 85 15 00 	addi	a1, a1, 1
   1b3bc:	a3 8f d7 fe 	sb	a3, -1(a5)
   1b3c0:	e3 e8 e7 fe 	bltu	a5, a4, -16
   1b3c4:	67 80 00 00 	ret
   1b3c8:	93 76 35 00 	andi	a3, a0, 3
   1b3cc:	93 07 05 00 	mv	a5, a0
   1b3d0:	63 8e 06 00 	beqz	a3, 28
   1b3d4:	83 c6 05 00 	lbu	a3, 0(a1)
   1b3d8:	93 87 17 00 	addi	a5, a5, 1
   1b3dc:	93 85 15 00 	addi	a1, a1, 1
   1b3e0:	a3 8f d7 fe 	sb	a3, -1(a5)
   1b3e4:	93 f6 37 00 	andi	a3, a5, 3
   1b3e8:	6f f0 9f fe 	j	-24
   1b3ec:	93 76 c7 ff 	andi	a3, a4, -4
   1b3f0:	13 86 06 fe 	addi	a2, a3, -32
   1b3f4:	63 f4 c7 06 	bgeu	a5, a2, 104
   1b3f8:	83 a3 05 00 	lw	t2, 0(a1)
   1b3fc:	83 a2 45 00 	lw	t0, 4(a1)
   1b400:	83 af 85 00 	lw	t6, 8(a1)
   1b404:	03 af c5 00 	lw	t5, 12(a1)
   1b408:	83 ae 05 01 	lw	t4, 16(a1)
   1b40c:	03 ae 45 01 	lw	t3, 20(a1)
   1b410:	03 a3 85 01 	lw	t1, 24(a1)
   1b414:	83 a8 c5 01 	lw	a7, 28(a1)
   1b418:	93 85 45 02 	addi	a1, a1, 36
   1b41c:	23 a0 77 00 	sw	t2, 0(a5)
   1b420:	03 a8 c5 ff 	lw	a6, -4(a1)
   1b424:	23 a2 57 00 	sw	t0, 4(a5)
   1b428:	23 a4 f7 01 	sw	t6, 8(a5)
   1b42c:	23 a6 e7 01 	sw	t5, 12(a5)
   1b430:	23 a8 d7 01 	sw	t4, 16(a5)
   1b434:	23 aa c7 01 	sw	t3, 20(a5)
   1b438:	23 ac 67 00 	sw	t1, 24(a5)
   1b43c:	23 ae 17 01 	sw	a7, 28(a5)
   1b440:	93 87 47 02 	addi	a5, a5, 36
   1b444:	23 ae 07 ff 	sw	a6, -4(a5)
   1b448:	6f f0 df fa 	j	-84
   1b44c:	03 a6 05 00 	lw	a2, 0(a1)
   1b450:	93 87 47 00 	addi	a5, a5, 4
   1b454:	93 85 45 00 	addi	a1, a1, 4
   1b458:	23 ae c7 fe 	sw	a2, -4(a5)
   1b45c:	e3 e8 d7 fe 	bltu	a5, a3, -16
   1b460:	e3 e8 e7 f4 	bltu	a5, a4, -176
   1b464:	67 80 00 00 	ret

memmove:
   1b468:	63 fa a5 04 	bgeu	a1, a0, 84
   1b46c:	b3 86 c5 00 	add	a3, a1, a2
   1b470:	63 76 d5 04 	bgeu	a0, a3, 76
   1b474:	93 45 f6 ff 	not	a1, a2
   1b478:	93 07 00 00 	mv	a5, zero
   1b47c:	93 87 f7 ff 	addi	a5, a5, -1
   1b480:	63 94 f5 00 	bne	a1, a5, 8
   1b484:	67 80 00 00 	ret
   1b488:	33 87 f6 00 	add	a4, a3, a5
   1b48c:	03 48 07 00 	lbu	a6, 0(a4)
   1b490:	33 87 c7 00 	add	a4, a5, a2
   1b494:	33 07 e5 00 	add	a4, a0, a4
   1b498:	23 00 07 01 	sb	a6, 0(a4)
   1b49c:	6f f0 1f fe 	j	-32
   1b4a0:	33 87 f5 00 	add	a4, a1, a5
   1b4a4:	83 46 07 00 	lbu	a3, 0(a4)
   1b4a8:	33 07 f5 00 	add	a4, a0, a5
   1b4ac:	93 87 17 00 	addi	a5, a5, 1
   1b4b0:	23 00 d7 00 	sb	a3, 0(a4)
   1b4b4:	e3 16 f6 fe 	bne	a2, a5, -20
   1b4b8:	67 80 00 00 	ret
   1b4bc:	93 07 00 00 	mv	a5, zero
   1b4c0:	6f f0 5f ff 	j	-12

_read_r:
   1b4c4:	13 01 01 ff 	addi	sp, sp, -16
   1b4c8:	23 24 81 00 	sw	s0, 8(sp)
   1b4cc:	23 22 91 00 	sw	s1, 4(sp)
   1b4d0:	93 04 05 00 	mv	s1, a0
   1b4d4:	13 85 05 00 	mv	a0, a1
   1b4d8:	93 05 06 00 	mv	a1, a2
   1b4dc:	13 86 06 00 	mv	a2, a3
   1b4e0:	23 26 11 00 	sw	ra, 12(sp)
   1b4e4:	23 a4 01 22 	sw	zero, 552(gp)
   1b4e8:	ef 10 90 08 	jal	6280
   1b4ec:	93 07 f0 ff 	addi	a5, zero, -1
   1b4f0:	63 18 f5 00 	bne	a0, a5, 16
   1b4f4:	83 a7 81 22 	lw	a5, 552(gp)
   1b4f8:	63 84 07 00 	beqz	a5, 8
   1b4fc:	23 a0 f4 00 	sw	a5, 0(s1)
   1b500:	83 20 c1 00 	lw	ra, 12(sp)
   1b504:	03 24 81 00 	lw	s0, 8(sp)
   1b508:	83 24 41 00 	lw	s1, 4(sp)
   1b50c:	13 01 01 01 	addi	sp, sp, 16
   1b510:	67 80 00 00 	ret

_realloc_r:
   1b514:	13 01 01 fc 	addi	sp, sp, -64
   1b518:	23 2c 81 02 	sw	s0, 56(sp)
   1b51c:	23 2e 11 02 	sw	ra, 60(sp)
   1b520:	13 84 05 00 	mv	s0, a1
   1b524:	23 2a 91 02 	sw	s1, 52(sp)
   1b528:	23 28 21 03 	sw	s2, 48(sp)
   1b52c:	23 26 31 03 	sw	s3, 44(sp)
   1b530:	23 24 41 03 	sw	s4, 40(sp)
   1b534:	23 22 51 03 	sw	s5, 36(sp)
   1b538:	23 20 61 03 	sw	s6, 32(sp)
   1b53c:	23 2e 71 01 	sw	s7, 28(sp)
   1b540:	23 2c 81 01 	sw	s8, 24(sp)
   1b544:	93 05 06 00 	mv	a1, a2
   1b548:	63 1a 04 02 	bnez	s0, 52
   1b54c:	03 24 81 03 	lw	s0, 56(sp)
   1b550:	83 20 c1 03 	lw	ra, 60(sp)
   1b554:	83 24 41 03 	lw	s1, 52(sp)
   1b558:	03 29 01 03 	lw	s2, 48(sp)
   1b55c:	83 29 c1 02 	lw	s3, 44(sp)
   1b560:	03 2a 81 02 	lw	s4, 40(sp)
   1b564:	83 2a 41 02 	lw	s5, 36(sp)
   1b568:	03 2b 01 02 	lw	s6, 32(sp)
   1b56c:	83 2b c1 01 	lw	s7, 28(sp)
   1b570:	03 2c 81 01 	lw	s8, 24(sp)
   1b574:	13 01 01 04 	addi	sp, sp, 64
   1b578:	6f 50 5f ba 	j	-42076
   1b57c:	93 0a 05 00 	mv	s5, a0
   1b580:	23 26 c1 00 	sw	a2, 12(sp)
   1b584:	ef 60 cf ac 	jal	-40244
   1b588:	83 25 c1 00 	lw	a1, 12(sp)
   1b58c:	93 07 60 01 	addi	a5, zero, 22
   1b590:	93 89 b5 00 	addi	s3, a1, 11
   1b594:	63 f6 37 05 	bgeu	a5, s3, 76
   1b598:	13 fb 89 ff 	andi	s6, s3, -8
   1b59c:	63 54 0b 04 	bgez	s6, 72
   1b5a0:	93 07 c0 00 	addi	a5, zero, 12
   1b5a4:	23 a0 fa 00 	sw	a5, 0(s5)
   1b5a8:	13 0a 00 00 	mv	s4, zero
   1b5ac:	83 20 c1 03 	lw	ra, 60(sp)
   1b5b0:	03 24 81 03 	lw	s0, 56(sp)
   1b5b4:	13 05 0a 00 	mv	a0, s4
   1b5b8:	83 24 41 03 	lw	s1, 52(sp)
   1b5bc:	03 29 01 03 	lw	s2, 48(sp)
   1b5c0:	83 29 c1 02 	lw	s3, 44(sp)
   1b5c4:	03 2a 81 02 	lw	s4, 40(sp)
   1b5c8:	83 2a 41 02 	lw	s5, 36(sp)
   1b5cc:	03 2b 01 02 	lw	s6, 32(sp)
   1b5d0:	83 2b c1 01 	lw	s7, 28(sp)
   1b5d4:	03 2c 81 01 	lw	s8, 24(sp)
   1b5d8:	13 01 01 04 	addi	sp, sp, 64
   1b5dc:	67 80 00 00 	ret
   1b5e0:	13 0b 00 01 	addi	s6, zero, 16
   1b5e4:	e3 6e bb fa 	bltu	s6, a1, -68
   1b5e8:	83 26 c4 ff 	lw	a3, -4(s0)
   1b5ec:	93 0b 84 ff 	addi	s7, s0, -8
   1b5f0:	13 f9 c6 ff 	andi	s2, a3, -4
   1b5f4:	63 5a 69 45 	bge	s2, s6, 1108
   1b5f8:	13 87 81 c2 	addi	a4, gp, -984
   1b5fc:	03 26 87 00 	lw	a2, 8(a4)
   1b600:	b3 87 2b 01 	add	a5, s7, s2
   1b604:	03 a7 47 00 	lw	a4, 4(a5)
   1b608:	13 8c 81 c2 	addi	s8, gp, -984
   1b60c:	63 0c f6 00 	beq	a2, a5, 24
   1b610:	13 75 e7 ff 	andi	a0, a4, -2
   1b614:	33 85 a7 00 	add	a0, a5, a0
   1b618:	03 25 45 00 	lw	a0, 4(a0)
   1b61c:	13 75 15 00 	andi	a0, a0, 1
   1b620:	63 14 05 06 	bnez	a0, 104
   1b624:	13 77 c7 ff 	andi	a4, a4, -4
   1b628:	b3 09 e9 00 	add	s3, s2, a4
   1b62c:	63 10 f6 04 	bne	a2, a5, 64
   1b630:	13 05 0b 01 	addi	a0, s6, 16
   1b634:	63 ce a9 04 	blt	s3, a0, 92
   1b638:	b3 8b 6b 01 	add	s7, s7, s6
   1b63c:	b3 89 69 41 	sub	s3, s3, s6
   1b640:	23 24 7c 01 	sw	s7, 8(s8)
   1b644:	93 e9 19 00 	ori	s3, s3, 1
   1b648:	23 a2 3b 01 	sw	s3, 4(s7)
   1b64c:	83 29 c4 ff 	lw	s3, -4(s0)
   1b650:	13 85 0a 00 	mv	a0, s5
   1b654:	13 0a 04 00 	mv	s4, s0
   1b658:	93 f9 19 00 	andi	s3, s3, 1
   1b65c:	b3 e9 69 01 	or	s3, s3, s6
   1b660:	23 2e 34 ff 	sw	s3, -4(s0)
   1b664:	ef 60 0f 9f 	jal	-40464
   1b668:	6f f0 5f f4 	j	-188
   1b66c:	63 c2 69 03 	blt	s3, s6, 36
   1b670:	03 a7 c7 00 	lw	a4, 12(a5)
   1b674:	83 a7 87 00 	lw	a5, 8(a5)
   1b678:	23 a6 e7 00 	sw	a4, 12(a5)
   1b67c:	23 24 f7 00 	sw	a5, 8(a4)
   1b680:	93 84 0b 00 	mv	s1, s7
   1b684:	6f 00 00 19 	j	400
   1b688:	13 07 00 00 	mv	a4, zero
   1b68c:	93 07 00 00 	mv	a5, zero
   1b690:	93 f6 16 00 	andi	a3, a3, 1
   1b694:	63 98 06 2c 	bnez	a3, 720
   1b698:	83 24 84 ff 	lw	s1, -8(s0)
   1b69c:	b3 84 9b 40 	sub	s1, s7, s1
   1b6a0:	03 aa 44 00 	lw	s4, 4(s1)
   1b6a4:	13 7a ca ff 	andi	s4, s4, -4
   1b6a8:	33 0a 2a 01 	add	s4, s4, s2
   1b6ac:	63 82 07 20 	beqz	a5, 516
   1b6b0:	b3 09 47 01 	add	s3, a4, s4
   1b6b4:	63 16 f6 0e 	bne	a2, a5, 236
   1b6b8:	93 07 0b 01 	addi	a5, s6, 16
   1b6bc:	63 ca f9 1e 	blt	s3, a5, 500
   1b6c0:	03 a7 84 00 	lw	a4, 8(s1)
   1b6c4:	83 a7 c4 00 	lw	a5, 12(s1)
   1b6c8:	13 06 c9 ff 	addi	a2, s2, -4
   1b6cc:	13 8a 84 00 	addi	s4, s1, 8
   1b6d0:	23 26 f7 00 	sw	a5, 12(a4)
   1b6d4:	23 a4 e7 00 	sw	a4, 8(a5)
   1b6d8:	13 07 40 02 	addi	a4, zero, 36
   1b6dc:	63 6a c7 0a 	bltu	a4, a2, 180
   1b6e0:	93 06 30 01 	addi	a3, zero, 19
   1b6e4:	93 07 0a 00 	mv	a5, s4
   1b6e8:	63 f2 c6 02 	bgeu	a3, a2, 36
   1b6ec:	83 27 04 00 	lw	a5, 0(s0)
   1b6f0:	23 a4 f4 00 	sw	a5, 8(s1)
   1b6f4:	83 27 44 00 	lw	a5, 4(s0)
   1b6f8:	23 a6 f4 00 	sw	a5, 12(s1)
   1b6fc:	93 07 b0 01 	addi	a5, zero, 27
   1b700:	63 ea c7 04 	bltu	a5, a2, 84
   1b704:	13 04 84 00 	addi	s0, s0, 8
   1b708:	93 87 04 01 	addi	a5, s1, 16
   1b70c:	03 27 04 00 	lw	a4, 0(s0)
   1b710:	23 a0 e7 00 	sw	a4, 0(a5)
   1b714:	03 27 44 00 	lw	a4, 4(s0)
   1b718:	23 a2 e7 00 	sw	a4, 4(a5)
   1b71c:	03 27 84 00 	lw	a4, 8(s0)
   1b720:	23 a4 e7 00 	sw	a4, 8(a5)
   1b724:	b3 87 64 01 	add	a5, s1, s6
   1b728:	b3 89 69 41 	sub	s3, s3, s6
   1b72c:	23 24 fc 00 	sw	a5, 8(s8)
   1b730:	93 e9 19 00 	ori	s3, s3, 1
   1b734:	23 a2 37 01 	sw	s3, 4(a5)
   1b738:	83 a7 44 00 	lw	a5, 4(s1)
   1b73c:	93 f7 17 00 	andi	a5, a5, 1
   1b740:	b3 e9 67 01 	or	s3, a5, s6
   1b744:	23 a2 34 01 	sw	s3, 4(s1)
   1b748:	13 85 0a 00 	mv	a0, s5
   1b74c:	ef 60 8f 90 	jal	-40696
   1b750:	6f f0 df e5 	j	-420
   1b754:	83 27 84 00 	lw	a5, 8(s0)
   1b758:	23 a8 f4 00 	sw	a5, 16(s1)
   1b75c:	83 27 c4 00 	lw	a5, 12(s0)
   1b760:	23 aa f4 00 	sw	a5, 20(s1)
   1b764:	63 08 e6 00 	beq	a2, a4, 16
   1b768:	13 04 04 01 	addi	s0, s0, 16
   1b76c:	93 87 84 01 	addi	a5, s1, 24
   1b770:	6f f0 df f9 	j	-100
   1b774:	83 27 04 01 	lw	a5, 16(s0)
   1b778:	13 04 84 01 	addi	s0, s0, 24
   1b77c:	23 ac f4 00 	sw	a5, 24(s1)
   1b780:	03 27 c4 ff 	lw	a4, -4(s0)
   1b784:	93 87 04 02 	addi	a5, s1, 32
   1b788:	23 ae e4 00 	sw	a4, 28(s1)
   1b78c:	6f f0 1f f8 	j	-128
   1b790:	93 05 04 00 	mv	a1, s0
   1b794:	13 05 0a 00 	mv	a0, s4
   1b798:	ef f0 1f cd 	jal	-816
   1b79c:	6f f0 9f f8 	j	-120
   1b7a0:	63 c8 69 11 	blt	s3, s6, 272
   1b7a4:	03 a7 c7 00 	lw	a4, 12(a5)
   1b7a8:	83 a7 87 00 	lw	a5, 8(a5)
   1b7ac:	13 06 c9 ff 	addi	a2, s2, -4
   1b7b0:	13 85 84 00 	addi	a0, s1, 8
   1b7b4:	23 a6 e7 00 	sw	a4, 12(a5)
   1b7b8:	23 24 f7 00 	sw	a5, 8(a4)
   1b7bc:	03 a7 84 00 	lw	a4, 8(s1)
   1b7c0:	83 a7 c4 00 	lw	a5, 12(s1)
   1b7c4:	23 26 f7 00 	sw	a5, 12(a4)
   1b7c8:	23 a4 e7 00 	sw	a4, 8(a5)
   1b7cc:	93 07 40 02 	addi	a5, zero, 36
   1b7d0:	63 ea c7 0c 	bltu	a5, a2, 212
   1b7d4:	13 07 30 01 	addi	a4, zero, 19
   1b7d8:	63 72 c7 02 	bgeu	a4, a2, 36
   1b7dc:	03 27 04 00 	lw	a4, 0(s0)
   1b7e0:	23 a4 e4 00 	sw	a4, 8(s1)
   1b7e4:	03 27 44 00 	lw	a4, 4(s0)
   1b7e8:	23 a6 e4 00 	sw	a4, 12(s1)
   1b7ec:	13 07 b0 01 	addi	a4, zero, 27
   1b7f0:	63 6c c7 06 	bltu	a4, a2, 120
   1b7f4:	13 04 84 00 	addi	s0, s0, 8
   1b7f8:	13 85 04 01 	addi	a0, s1, 16
   1b7fc:	83 27 04 00 	lw	a5, 0(s0)
   1b800:	23 20 f5 00 	sw	a5, 0(a0)
   1b804:	83 27 44 00 	lw	a5, 4(s0)
   1b808:	23 22 f5 00 	sw	a5, 4(a0)
   1b80c:	83 27 84 00 	lw	a5, 8(s0)
   1b810:	23 24 f5 00 	sw	a5, 8(a0)
   1b814:	03 a7 44 00 	lw	a4, 4(s1)
   1b818:	b3 86 69 41 	sub	a3, s3, s6
   1b81c:	13 06 f0 00 	addi	a2, zero, 15
   1b820:	13 77 17 00 	andi	a4, a4, 1
   1b824:	b3 87 34 01 	add	a5, s1, s3
   1b828:	63 74 d6 22 	bgeu	a2, a3, 552
   1b82c:	b3 69 eb 00 	or	s3, s6, a4
   1b830:	23 a2 34 01 	sw	s3, 4(s1)
   1b834:	b3 85 64 01 	add	a1, s1, s6
   1b838:	93 e6 16 00 	ori	a3, a3, 1
   1b83c:	23 a2 d5 00 	sw	a3, 4(a1)
   1b840:	03 a7 47 00 	lw	a4, 4(a5)
   1b844:	93 85 85 00 	addi	a1, a1, 8
   1b848:	13 85 0a 00 	mv	a0, s5
   1b84c:	13 67 17 00 	ori	a4, a4, 1
   1b850:	23 a2 e7 00 	sw	a4, 4(a5)
   1b854:	ef 80 1f a7 	jal	-30096
   1b858:	13 85 0a 00 	mv	a0, s5
   1b85c:	ef 50 9f ff 	jal	-40968
   1b860:	13 8a 84 00 	addi	s4, s1, 8
   1b864:	6f f0 9f d4 	j	-696
   1b868:	03 27 84 00 	lw	a4, 8(s0)
   1b86c:	23 a8 e4 00 	sw	a4, 16(s1)
   1b870:	03 27 c4 00 	lw	a4, 12(s0)
   1b874:	23 aa e4 00 	sw	a4, 20(s1)
   1b878:	63 08 f6 00 	beq	a2, a5, 16
   1b87c:	13 04 04 01 	addi	s0, s0, 16
   1b880:	13 85 84 01 	addi	a0, s1, 24
   1b884:	6f f0 9f f7 	j	-136
   1b888:	83 27 04 01 	lw	a5, 16(s0)
   1b88c:	13 85 04 02 	addi	a0, s1, 32
   1b890:	13 04 84 01 	addi	s0, s0, 24
   1b894:	23 ac f4 00 	sw	a5, 24(s1)
   1b898:	83 27 c4 ff 	lw	a5, -4(s0)
   1b89c:	23 ae f4 00 	sw	a5, 28(s1)
   1b8a0:	6f f0 df f5 	j	-164
   1b8a4:	93 05 04 00 	mv	a1, s0
   1b8a8:	ef f0 1f bc 	jal	-1088
   1b8ac:	6f f0 9f f6 	j	-152
   1b8b0:	63 4a 6a 0b 	blt	s4, s6, 180
   1b8b4:	83 a7 c4 00 	lw	a5, 12(s1)
   1b8b8:	03 a7 84 00 	lw	a4, 8(s1)
   1b8bc:	13 06 c9 ff 	addi	a2, s2, -4
   1b8c0:	13 85 84 00 	addi	a0, s1, 8
   1b8c4:	23 26 f7 00 	sw	a5, 12(a4)
   1b8c8:	23 a4 e7 00 	sw	a4, 8(a5)
   1b8cc:	93 07 40 02 	addi	a5, zero, 36
   1b8d0:	63 e4 c7 08 	bltu	a5, a2, 136
   1b8d4:	13 07 30 01 	addi	a4, zero, 19
   1b8d8:	63 72 c7 02 	bgeu	a4, a2, 36
   1b8dc:	03 27 04 00 	lw	a4, 0(s0)
   1b8e0:	23 a4 e4 00 	sw	a4, 8(s1)
   1b8e4:	03 27 44 00 	lw	a4, 4(s0)
   1b8e8:	23 a6 e4 00 	sw	a4, 12(s1)
   1b8ec:	13 07 b0 01 	addi	a4, zero, 27
   1b8f0:	63 66 c7 02 	bltu	a4, a2, 44
   1b8f4:	13 04 84 00 	addi	s0, s0, 8
   1b8f8:	13 85 04 01 	addi	a0, s1, 16
   1b8fc:	83 27 04 00 	lw	a5, 0(s0)
   1b900:	23 20 f5 00 	sw	a5, 0(a0)
   1b904:	83 27 44 00 	lw	a5, 4(s0)
   1b908:	23 22 f5 00 	sw	a5, 4(a0)
   1b90c:	83 27 84 00 	lw	a5, 8(s0)
   1b910:	23 24 f5 00 	sw	a5, 8(a0)
   1b914:	93 09 0a 00 	mv	s3, s4
   1b918:	6f f0 df ef 	j	-260
   1b91c:	03 27 84 00 	lw	a4, 8(s0)
   1b920:	23 a8 e4 00 	sw	a4, 16(s1)
   1b924:	03 27 c4 00 	lw	a4, 12(s0)
   1b928:	23 aa e4 00 	sw	a4, 20(s1)
   1b92c:	63 08 f6 00 	beq	a2, a5, 16
   1b930:	13 04 04 01 	addi	s0, s0, 16
   1b934:	13 85 84 01 	addi	a0, s1, 24
   1b938:	6f f0 5f fc 	j	-60
   1b93c:	83 27 04 01 	lw	a5, 16(s0)
   1b940:	13 85 04 02 	addi	a0, s1, 32
   1b944:	13 04 84 01 	addi	s0, s0, 24
   1b948:	23 ac f4 00 	sw	a5, 24(s1)
   1b94c:	83 27 c4 ff 	lw	a5, -4(s0)
   1b950:	23 ae f4 00 	sw	a5, 28(s1)
   1b954:	6f f0 9f fa 	j	-88
   1b958:	93 05 04 00 	mv	a1, s0
   1b95c:	ef f0 df b0 	jal	-1268
   1b960:	6f f0 5f fb 	j	-76
   1b964:	13 85 0a 00 	mv	a0, s5
   1b968:	ef 50 4f fb 	jal	-43084
   1b96c:	13 0a 05 00 	mv	s4, a0
   1b970:	e3 0c 05 dc 	beqz	a0, -552
   1b974:	83 27 c4 ff 	lw	a5, -4(s0)
   1b978:	13 07 85 ff 	addi	a4, a0, -8
   1b97c:	93 f7 e7 ff 	andi	a5, a5, -2
   1b980:	b3 87 fb 00 	add	a5, s7, a5
   1b984:	63 9a e7 00 	bne	a5, a4, 20
   1b988:	83 29 c5 ff 	lw	s3, -4(a0)
   1b98c:	93 f9 c9 ff 	andi	s3, s3, -4
   1b990:	b3 89 29 01 	add	s3, s3, s2
   1b994:	6f f0 df ce 	j	-788
   1b998:	13 06 c9 ff 	addi	a2, s2, -4
   1b99c:	93 07 40 02 	addi	a5, zero, 36
   1b9a0:	63 ee c7 08 	bltu	a5, a2, 156
   1b9a4:	13 07 30 01 	addi	a4, zero, 19
   1b9a8:	63 74 c7 08 	bgeu	a4, a2, 136
   1b9ac:	03 27 04 00 	lw	a4, 0(s0)
   1b9b0:	23 20 e5 00 	sw	a4, 0(a0)
   1b9b4:	03 27 44 00 	lw	a4, 4(s0)
   1b9b8:	23 22 e5 00 	sw	a4, 4(a0)
   1b9bc:	13 07 b0 01 	addi	a4, zero, 27
   1b9c0:	63 6a c7 02 	bltu	a4, a2, 52
   1b9c4:	13 07 84 00 	addi	a4, s0, 8
   1b9c8:	93 07 85 00 	addi	a5, a0, 8
   1b9cc:	83 26 07 00 	lw	a3, 0(a4)
   1b9d0:	23 a0 d7 00 	sw	a3, 0(a5)
   1b9d4:	83 26 47 00 	lw	a3, 4(a4)
   1b9d8:	23 a2 d7 00 	sw	a3, 4(a5)
   1b9dc:	03 27 87 00 	lw	a4, 8(a4)
   1b9e0:	23 a4 e7 00 	sw	a4, 8(a5)
   1b9e4:	93 05 04 00 	mv	a1, s0
   1b9e8:	13 85 0a 00 	mv	a0, s5
   1b9ec:	ef 80 9f 8d 	jal	-30504
   1b9f0:	6f f0 9f d5 	j	-680
   1b9f4:	03 27 84 00 	lw	a4, 8(s0)
   1b9f8:	23 24 e5 00 	sw	a4, 8(a0)
   1b9fc:	03 27 c4 00 	lw	a4, 12(s0)
   1ba00:	23 26 e5 00 	sw	a4, 12(a0)
   1ba04:	63 08 f6 00 	beq	a2, a5, 16
   1ba08:	13 07 04 01 	addi	a4, s0, 16
   1ba0c:	93 07 05 01 	addi	a5, a0, 16
   1ba10:	6f f0 df fb 	j	-68
   1ba14:	83 27 04 01 	lw	a5, 16(s0)
   1ba18:	13 07 84 01 	addi	a4, s0, 24
   1ba1c:	23 28 f5 00 	sw	a5, 16(a0)
   1ba20:	83 26 44 01 	lw	a3, 20(s0)
   1ba24:	93 07 85 01 	addi	a5, a0, 24
   1ba28:	23 2a d5 00 	sw	a3, 20(a0)
   1ba2c:	6f f0 1f fa 	j	-96
   1ba30:	93 07 05 00 	mv	a5, a0
   1ba34:	13 07 04 00 	mv	a4, s0
   1ba38:	6f f0 5f f9 	j	-108
   1ba3c:	93 05 04 00 	mv	a1, s0
   1ba40:	ef f0 9f a2 	jal	-1496
   1ba44:	6f f0 1f fa 	j	-96
   1ba48:	93 09 09 00 	mv	s3, s2
   1ba4c:	6f f0 5f c3 	j	-972
   1ba50:	b3 e9 e9 00 	or	s3, s3, a4
   1ba54:	23 a2 34 01 	sw	s3, 4(s1)
   1ba58:	03 a7 47 00 	lw	a4, 4(a5)
   1ba5c:	13 67 17 00 	ori	a4, a4, 1
   1ba60:	23 a2 e7 00 	sw	a4, 4(a5)
   1ba64:	6f f0 5f df 	j	-524

strcmp:
   1ba68:	33 67 b5 00 	or	a4, a0, a1
   1ba6c:	93 03 f0 ff 	addi	t2, zero, -1
   1ba70:	13 77 37 00 	andi	a4, a4, 3
   1ba74:	63 10 07 10 	bnez	a4, 256
   1ba78:	b7 87 7f 7f 	lui	a5, 522232
   1ba7c:	93 87 f7 f7 	addi	a5, a5, -129
   1ba80:	03 26 05 00 	lw	a2, 0(a0)
   1ba84:	83 a6 05 00 	lw	a3, 0(a1)
   1ba88:	b3 72 f6 00 	and	t0, a2, a5
   1ba8c:	33 63 f6 00 	or	t1, a2, a5
   1ba90:	b3 82 f2 00 	add	t0, t0, a5
   1ba94:	b3 e2 62 00 	or	t0, t0, t1
   1ba98:	63 92 72 10 	bne	t0, t2, 260
   1ba9c:	63 16 d6 08 	bne	a2, a3, 140
   1baa0:	03 26 45 00 	lw	a2, 4(a0)
   1baa4:	83 a6 45 00 	lw	a3, 4(a1)
   1baa8:	b3 72 f6 00 	and	t0, a2, a5
   1baac:	33 63 f6 00 	or	t1, a2, a5
   1bab0:	b3 82 f2 00 	add	t0, t0, a5
   1bab4:	b3 e2 62 00 	or	t0, t0, t1
   1bab8:	63 9e 72 0c 	bne	t0, t2, 220
   1babc:	63 16 d6 06 	bne	a2, a3, 108
   1bac0:	03 26 85 00 	lw	a2, 8(a0)
   1bac4:	83 a6 85 00 	lw	a3, 8(a1)
   1bac8:	b3 72 f6 00 	and	t0, a2, a5
   1bacc:	33 63 f6 00 	or	t1, a2, a5
   1bad0:	b3 82 f2 00 	add	t0, t0, a5
   1bad4:	b3 e2 62 00 	or	t0, t0, t1
   1bad8:	63 98 72 0c 	bne	t0, t2, 208
   1badc:	63 16 d6 04 	bne	a2, a3, 76
   1bae0:	03 26 c5 00 	lw	a2, 12(a0)
   1bae4:	83 a6 c5 00 	lw	a3, 12(a1)
   1bae8:	b3 72 f6 00 	and	t0, a2, a5
   1baec:	33 63 f6 00 	or	t1, a2, a5
   1baf0:	b3 82 f2 00 	add	t0, t0, a5
   1baf4:	b3 e2 62 00 	or	t0, t0, t1
   1baf8:	63 92 72 0c 	bne	t0, t2, 196
   1bafc:	63 16 d6 02 	bne	a2, a3, 44
   1bb00:	03 26 05 01 	lw	a2, 16(a0)
   1bb04:	83 a6 05 01 	lw	a3, 16(a1)
   1bb08:	b3 72 f6 00 	and	t0, a2, a5
   1bb0c:	33 63 f6 00 	or	t1, a2, a5
   1bb10:	b3 82 f2 00 	add	t0, t0, a5
   1bb14:	b3 e2 62 00 	or	t0, t0, t1
   1bb18:	63 9c 72 0a 	bne	t0, t2, 184
   1bb1c:	13 05 45 01 	addi	a0, a0, 20
   1bb20:	93 85 45 01 	addi	a1, a1, 20
   1bb24:	e3 0e d6 f4 	beq	a2, a3, -164
   1bb28:	13 17 06 01 	slli	a4, a2, 16
   1bb2c:	93 97 06 01 	slli	a5, a3, 16
   1bb30:	63 1e f7 00 	bne	a4, a5, 28
   1bb34:	13 57 06 01 	srli	a4, a2, 16
   1bb38:	93 d7 06 01 	srli	a5, a3, 16
   1bb3c:	33 05 f7 40 	sub	a0, a4, a5
   1bb40:	93 75 f5 0f 	andi	a1, a0, 255
   1bb44:	63 90 05 02 	bnez	a1, 32
   1bb48:	67 80 00 00 	ret
   1bb4c:	13 57 07 01 	srli	a4, a4, 16
   1bb50:	93 d7 07 01 	srli	a5, a5, 16
   1bb54:	33 05 f7 40 	sub	a0, a4, a5
   1bb58:	93 75 f5 0f 	andi	a1, a0, 255
   1bb5c:	63 94 05 00 	bnez	a1, 8
   1bb60:	67 80 00 00 	ret
   1bb64:	13 77 f7 0f 	andi	a4, a4, 255
   1bb68:	93 f7 f7 0f 	andi	a5, a5, 255
   1bb6c:	33 05 f7 40 	sub	a0, a4, a5
   1bb70:	67 80 00 00 	ret
   1bb74:	03 46 05 00 	lbu	a2, 0(a0)
   1bb78:	83 c6 05 00 	lbu	a3, 0(a1)
   1bb7c:	13 05 15 00 	addi	a0, a0, 1
   1bb80:	93 85 15 00 	addi	a1, a1, 1
   1bb84:	63 14 d6 00 	bne	a2, a3, 8
   1bb88:	e3 16 06 fe 	bnez	a2, -20
   1bb8c:	33 05 d6 40 	sub	a0, a2, a3
   1bb90:	67 80 00 00 	ret
   1bb94:	13 05 45 00 	addi	a0, a0, 4
   1bb98:	93 85 45 00 	addi	a1, a1, 4
   1bb9c:	e3 1c d6 fc 	bne	a2, a3, -40
   1bba0:	13 05 00 00 	mv	a0, zero
   1bba4:	67 80 00 00 	ret
   1bba8:	13 05 85 00 	addi	a0, a0, 8
   1bbac:	93 85 85 00 	addi	a1, a1, 8
   1bbb0:	e3 12 d6 fc 	bne	a2, a3, -60
   1bbb4:	13 05 00 00 	mv	a0, zero
   1bbb8:	67 80 00 00 	ret
   1bbbc:	13 05 c5 00 	addi	a0, a0, 12
   1bbc0:	93 85 c5 00 	addi	a1, a1, 12
   1bbc4:	e3 18 d6 fa 	bne	a2, a3, -80
   1bbc8:	13 05 00 00 	mv	a0, zero
   1bbcc:	67 80 00 00 	ret
   1bbd0:	13 05 05 01 	addi	a0, a0, 16
   1bbd4:	93 85 05 01 	addi	a1, a1, 16
   1bbd8:	e3 1e d6 f8 	bne	a2, a3, -100
   1bbdc:	13 05 00 00 	mv	a0, zero
   1bbe0:	67 80 00 00 	ret

__ssprint_r:
   1bbe4:	83 27 86 00 	lw	a5, 8(a2)
   1bbe8:	13 01 01 fd 	addi	sp, sp, -48
   1bbec:	23 2e 31 01 	sw	s3, 28(sp)
   1bbf0:	23 26 11 02 	sw	ra, 44(sp)
   1bbf4:	23 24 81 02 	sw	s0, 40(sp)
   1bbf8:	23 22 91 02 	sw	s1, 36(sp)
   1bbfc:	23 20 21 03 	sw	s2, 32(sp)
   1bc00:	23 2c 41 01 	sw	s4, 24(sp)
   1bc04:	23 2a 51 01 	sw	s5, 20(sp)
   1bc08:	23 28 61 01 	sw	s6, 16(sp)
   1bc0c:	23 26 71 01 	sw	s7, 12(sp)
   1bc10:	23 24 81 01 	sw	s8, 8(sp)
   1bc14:	93 09 06 00 	mv	s3, a2
   1bc18:	63 86 07 12 	beqz	a5, 300
   1bc1c:	03 2b 06 00 	lw	s6, 0(a2)
   1bc20:	93 0a 05 00 	mv	s5, a0
   1bc24:	13 84 05 00 	mv	s0, a1
   1bc28:	93 0b 00 00 	mv	s7, zero
   1bc2c:	13 09 00 00 	mv	s2, zero
   1bc30:	63 06 09 08 	beqz	s2, 140
   1bc34:	03 2a 84 00 	lw	s4, 8(s0)
   1bc38:	63 66 49 0d 	bltu	s2, s4, 204
   1bc3c:	83 57 c4 00 	lhu	a5, 12(s0)
   1bc40:	13 f7 07 48 	andi	a4, a5, 1152
   1bc44:	63 00 07 0c 	beqz	a4, 192
   1bc48:	83 24 04 00 	lw	s1, 0(s0)
   1bc4c:	03 27 44 01 	lw	a4, 20(s0)
   1bc50:	83 25 04 01 	lw	a1, 16(s0)
   1bc54:	33 8c b4 40 	sub	s8, s1, a1
   1bc58:	93 14 17 00 	slli	s1, a4, 1
   1bc5c:	33 87 e4 00 	add	a4, s1, a4
   1bc60:	93 54 f7 01 	srli	s1, a4, 31
   1bc64:	b3 84 e4 00 	add	s1, s1, a4
   1bc68:	13 07 1c 00 	addi	a4, s8, 1
   1bc6c:	93 d4 14 40 	srai	s1, s1, 1
   1bc70:	33 07 27 01 	add	a4, a4, s2
   1bc74:	63 f4 e4 00 	bgeu	s1, a4, 8
   1bc78:	93 04 07 00 	mv	s1, a4
   1bc7c:	93 f7 07 40 	andi	a5, a5, 1024
   1bc80:	63 8e 07 0e 	beqz	a5, 252
   1bc84:	93 85 04 00 	mv	a1, s1
   1bc88:	13 85 0a 00 	mv	a0, s5
   1bc8c:	ef 50 0f c9 	jal	-43888
   1bc90:	13 0a 05 00 	mv	s4, a0
   1bc94:	63 1c 05 02 	bnez	a0, 56
   1bc98:	93 07 c0 00 	addi	a5, zero, 12
   1bc9c:	23 a0 fa 00 	sw	a5, 0(s5)
   1bca0:	83 57 c4 00 	lhu	a5, 12(s0)
   1bca4:	13 05 f0 ff 	addi	a0, zero, -1
   1bca8:	93 e7 07 04 	ori	a5, a5, 64
   1bcac:	23 16 f4 00 	sh	a5, 12(s0)
   1bcb0:	23 a4 09 00 	sw	zero, 8(s3)
   1bcb4:	23 a2 09 00 	sw	zero, 4(s3)
   1bcb8:	6f 00 40 09 	j	148
   1bcbc:	83 2b 0b 00 	lw	s7, 0(s6)
   1bcc0:	03 29 4b 00 	lw	s2, 4(s6)
   1bcc4:	13 0b 8b 00 	addi	s6, s6, 8
   1bcc8:	6f f0 9f f6 	j	-152
   1bccc:	83 25 04 01 	lw	a1, 16(s0)
   1bcd0:	13 06 0c 00 	mv	a2, s8
   1bcd4:	ef f0 cf eb 	jal	-2372
   1bcd8:	83 57 c4 00 	lhu	a5, 12(s0)
   1bcdc:	93 f7 f7 b7 	andi	a5, a5, -1153
   1bce0:	93 e7 07 08 	ori	a5, a5, 128
   1bce4:	23 16 f4 00 	sh	a5, 12(s0)
   1bce8:	23 28 44 01 	sw	s4, 16(s0)
   1bcec:	23 2a 94 00 	sw	s1, 20(s0)
   1bcf0:	33 0a 8a 01 	add	s4, s4, s8
   1bcf4:	b3 84 84 41 	sub	s1, s1, s8
   1bcf8:	23 20 44 01 	sw	s4, 0(s0)
   1bcfc:	23 24 94 00 	sw	s1, 8(s0)
   1bd00:	13 0a 09 00 	mv	s4, s2
   1bd04:	63 74 49 01 	bgeu	s2, s4, 8
   1bd08:	13 0a 09 00 	mv	s4, s2
   1bd0c:	03 25 04 00 	lw	a0, 0(s0)
   1bd10:	13 06 0a 00 	mv	a2, s4
   1bd14:	93 85 0b 00 	mv	a1, s7
   1bd18:	ef f0 0f f5 	jal	-2224
   1bd1c:	83 27 84 00 	lw	a5, 8(s0)
   1bd20:	b3 87 47 41 	sub	a5, a5, s4
   1bd24:	23 24 f4 00 	sw	a5, 8(s0)
   1bd28:	83 27 04 00 	lw	a5, 0(s0)
   1bd2c:	33 8a 47 01 	add	s4, a5, s4
   1bd30:	83 a7 89 00 	lw	a5, 8(s3)
   1bd34:	23 20 44 01 	sw	s4, 0(s0)
   1bd38:	33 89 27 41 	sub	s2, a5, s2
   1bd3c:	23 a4 29 01 	sw	s2, 8(s3)
   1bd40:	e3 1e 09 f6 	bnez	s2, -132
   1bd44:	23 a2 09 00 	sw	zero, 4(s3)
   1bd48:	13 05 00 00 	mv	a0, zero
   1bd4c:	83 20 c1 02 	lw	ra, 44(sp)
   1bd50:	03 24 81 02 	lw	s0, 40(sp)
   1bd54:	83 24 41 02 	lw	s1, 36(sp)
   1bd58:	03 29 01 02 	lw	s2, 32(sp)
   1bd5c:	83 29 c1 01 	lw	s3, 28(sp)
   1bd60:	03 2a 81 01 	lw	s4, 24(sp)
   1bd64:	83 2a 41 01 	lw	s5, 20(sp)
   1bd68:	03 2b 01 01 	lw	s6, 16(sp)
   1bd6c:	83 2b c1 00 	lw	s7, 12(sp)
   1bd70:	03 2c 81 00 	lw	s8, 8(sp)
   1bd74:	13 01 01 03 	addi	sp, sp, 48
   1bd78:	67 80 00 00 	ret
   1bd7c:	13 86 04 00 	mv	a2, s1
   1bd80:	13 85 0a 00 	mv	a0, s5
   1bd84:	ef f0 0f f9 	jal	-2160
   1bd88:	13 0a 05 00 	mv	s4, a0
   1bd8c:	e3 1e 05 f4 	bnez	a0, -164
   1bd90:	83 25 04 01 	lw	a1, 16(s0)
   1bd94:	13 85 0a 00 	mv	a0, s5
   1bd98:	ef 80 cf d2 	jal	-31444
   1bd9c:	6f f0 df ef 	j	-260

_svfiprintf_r:
   1bda0:	83 d7 c5 00 	lhu	a5, 12(a1)
   1bda4:	13 01 01 ed 	addi	sp, sp, -304
   1bda8:	23 24 81 12 	sw	s0, 296(sp)
   1bdac:	23 20 21 13 	sw	s2, 288(sp)
   1bdb0:	23 2e 31 11 	sw	s3, 284(sp)
   1bdb4:	23 28 61 11 	sw	s6, 272(sp)
   1bdb8:	23 26 11 12 	sw	ra, 300(sp)
   1bdbc:	23 22 91 12 	sw	s1, 292(sp)
   1bdc0:	23 2c 41 11 	sw	s4, 280(sp)
   1bdc4:	23 2a 51 11 	sw	s5, 276(sp)
   1bdc8:	23 26 71 11 	sw	s7, 268(sp)
   1bdcc:	23 24 81 11 	sw	s8, 264(sp)
   1bdd0:	23 22 91 11 	sw	s9, 260(sp)
   1bdd4:	23 20 a1 11 	sw	s10, 256(sp)
   1bdd8:	23 2e b1 0f 	sw	s11, 252(sp)
   1bddc:	93 f7 07 08 	andi	a5, a5, 128
   1bde0:	93 09 05 00 	mv	s3, a0
   1bde4:	13 89 05 00 	mv	s2, a1
   1bde8:	13 0b 06 00 	mv	s6, a2
   1bdec:	13 84 06 00 	mv	s0, a3
   1bdf0:	63 8c 07 02 	beqz	a5, 56
   1bdf4:	83 a7 05 01 	lw	a5, 16(a1)
   1bdf8:	63 98 07 02 	bnez	a5, 48
   1bdfc:	93 05 00 04 	addi	a1, zero, 64
   1be00:	ef 50 cf b1 	jal	-44260
   1be04:	23 20 a9 00 	sw	a0, 0(s2)
   1be08:	23 28 a9 00 	sw	a0, 16(s2)
   1be0c:	63 1a 05 00 	bnez	a0, 20
   1be10:	93 07 c0 00 	addi	a5, zero, 12
   1be14:	23 a0 f9 00 	sw	a5, 0(s3)
   1be18:	13 0c f0 ff 	addi	s8, zero, -1
   1be1c:	6f 00 90 2f 	j	2808
   1be20:	93 07 00 04 	addi	a5, zero, 64
   1be24:	23 2a f9 00 	sw	a5, 20(s2)
   1be28:	b7 27 02 00 	lui	a5, 34
   1be2c:	93 87 87 6c 	addi	a5, a5, 1736
   1be30:	23 22 f1 02 	sw	a5, 36(sp)
   1be34:	b7 37 02 00 	lui	a5, 35
   1be38:	93 87 47 84 	addi	a5, a5, -1980
   1be3c:	23 28 f1 00 	sw	a5, 16(sp)
   1be40:	b7 37 02 00 	lui	a5, 35
   1be44:	93 0b c1 04 	addi	s7, sp, 76
   1be48:	93 87 47 83 	addi	a5, a5, -1996
   1be4c:	23 20 71 05 	sw	s7, 64(sp)
   1be50:	23 24 01 04 	sw	zero, 72(sp)
   1be54:	23 22 01 04 	sw	zero, 68(sp)
   1be58:	13 88 0b 00 	mv	a6, s7
   1be5c:	23 26 01 00 	sw	zero, 12(sp)
   1be60:	23 22 01 00 	sw	zero, 4(sp)
   1be64:	23 24 01 00 	sw	zero, 8(sp)
   1be68:	23 2c 01 00 	sw	zero, 24(sp)
   1be6c:	13 0c 00 00 	mv	s8, zero
   1be70:	23 2a f1 00 	sw	a5, 20(sp)
   1be74:	93 04 0b 00 	mv	s1, s6
   1be78:	13 07 50 02 	addi	a4, zero, 37
   1be7c:	83 c7 04 00 	lbu	a5, 0(s1)
   1be80:	63 84 07 00 	beqz	a5, 8
   1be84:	63 90 e7 0a 	bne	a5, a4, 160
   1be88:	33 8a 64 41 	sub	s4, s1, s6
   1be8c:	63 06 0a 04 	beqz	s4, 76
   1be90:	83 27 81 04 	lw	a5, 72(sp)
   1be94:	23 20 68 01 	sw	s6, 0(a6)
   1be98:	23 22 48 01 	sw	s4, 4(a6)
   1be9c:	b3 87 47 01 	add	a5, a5, s4
   1bea0:	23 24 f1 04 	sw	a5, 72(sp)
   1bea4:	83 27 41 04 	lw	a5, 68(sp)
   1bea8:	13 07 70 00 	addi	a4, zero, 7
   1beac:	13 08 88 00 	addi	a6, a6, 8
   1beb0:	93 87 17 00 	addi	a5, a5, 1
   1beb4:	23 22 f1 04 	sw	a5, 68(sp)
   1beb8:	63 5e f7 00 	bge	a4, a5, 28
   1bebc:	13 06 01 04 	addi	a2, sp, 64
   1bec0:	93 05 09 00 	mv	a1, s2
   1bec4:	13 85 09 00 	mv	a0, s3
   1bec8:	ef f0 df d1 	jal	-740
   1becc:	e3 1e 05 22 	bnez	a0, 2620
   1bed0:	13 88 0b 00 	mv	a6, s7
   1bed4:	33 0c 4c 01 	add	s8, s8, s4
   1bed8:	83 c7 04 00 	lbu	a5, 0(s1)
   1bedc:	e3 88 07 2a 	beqz	a5, 2736
   1bee0:	13 87 14 00 	addi	a4, s1, 1
   1bee4:	a3 0d 01 02 	sb	zero, 59(sp)
   1bee8:	93 04 f0 ff 	addi	s1, zero, -1
   1beec:	93 0a 00 00 	mv	s5, zero
   1bef0:	93 0d 00 00 	mv	s11, zero
   1bef4:	13 0a 90 00 	addi	s4, zero, 9
   1bef8:	93 0c a0 02 	addi	s9, zero, 42
   1befc:	03 46 07 00 	lbu	a2, 0(a4)
   1bf00:	13 0b 17 00 	addi	s6, a4, 1
   1bf04:	93 05 a0 05 	addi	a1, zero, 90
   1bf08:	13 07 06 fe 	addi	a4, a2, -32
   1bf0c:	e3 e2 e5 0c 	bltu	a1, a4, 2244
   1bf10:	83 27 41 02 	lw	a5, 36(sp)
   1bf14:	13 17 27 00 	slli	a4, a4, 2
   1bf18:	33 07 f7 00 	add	a4, a4, a5
   1bf1c:	03 27 07 00 	lw	a4, 0(a4)
   1bf20:	67 00 07 00 	jr	a4
   1bf24:	93 84 14 00 	addi	s1, s1, 1
   1bf28:	6f f0 5f f5 	j	-172
   1bf2c:	37 27 02 00 	lui	a4, 34
   1bf30:	93 07 07 fd 	addi	a5, a4, -48
   1bf34:	23 26 f1 00 	sw	a5, 12(sp)
   1bf38:	13 f7 0d 02 	andi	a4, s11, 32
   1bf3c:	63 04 07 6a 	beqz	a4, 1704
   1bf40:	13 04 74 00 	addi	s0, s0, 7
   1bf44:	13 74 84 ff 	andi	s0, s0, -8
   1bf48:	03 2d 04 00 	lw	s10, 0(s0)
   1bf4c:	03 2a 44 00 	lw	s4, 4(s0)
   1bf50:	93 0c 84 00 	addi	s9, s0, 8
   1bf54:	93 f6 1d 00 	andi	a3, s11, 1
   1bf58:	63 8e 06 00 	beqz	a3, 28
   1bf5c:	b3 66 4d 01 	or	a3, s10, s4
   1bf60:	63 8a 06 00 	beqz	a3, 20
   1bf64:	93 06 00 03 	addi	a3, zero, 48
   1bf68:	23 0e d1 02 	sb	a3, 60(sp)
   1bf6c:	a3 0e c1 02 	sb	a2, 61(sp)
   1bf70:	93 ed 2d 00 	ori	s11, s11, 2
   1bf74:	93 fd fd bf 	andi	s11, s11, -1025
   1bf78:	6f 00 c0 31 	j	796
   1bf7c:	13 85 09 00 	mv	a0, s3
   1bf80:	23 2e 01 01 	sw	a6, 28(sp)
   1bf84:	ef a0 cf e9 	jal	-22884
   1bf88:	83 27 45 00 	lw	a5, 4(a0)
   1bf8c:	13 85 07 00 	mv	a0, a5
   1bf90:	23 2c f1 00 	sw	a5, 24(sp)
   1bf94:	ef b0 1f bc 	jal	-17472
   1bf98:	23 24 a1 00 	sw	a0, 8(sp)
   1bf9c:	13 85 09 00 	mv	a0, s3
   1bfa0:	ef a0 0f e8 	jal	-22912
   1bfa4:	83 27 85 00 	lw	a5, 8(a0)
   1bfa8:	03 28 c1 01 	lw	a6, 28(sp)
   1bfac:	23 22 f1 00 	sw	a5, 4(sp)
   1bfb0:	83 27 81 00 	lw	a5, 8(sp)
   1bfb4:	63 8c 07 00 	beqz	a5, 24
   1bfb8:	83 27 41 00 	lw	a5, 4(sp)
   1bfbc:	63 88 07 00 	beqz	a5, 16
   1bfc0:	03 c7 07 00 	lbu	a4, 0(a5)
   1bfc4:	63 04 07 00 	beqz	a4, 8
   1bfc8:	93 ed 0d 40 	ori	s11, s11, 1024
   1bfcc:	13 07 0b 00 	mv	a4, s6
   1bfd0:	6f f0 df f2 	j	-212
   1bfd4:	03 47 b1 03 	lbu	a4, 59(sp)
   1bfd8:	e3 1a 07 fe 	bnez	a4, -12
   1bfdc:	13 07 00 02 	addi	a4, zero, 32
   1bfe0:	a3 0d e1 02 	sb	a4, 59(sp)
   1bfe4:	6f f0 9f fe 	j	-24
   1bfe8:	93 ed 1d 00 	ori	s11, s11, 1
   1bfec:	6f f0 1f fe 	j	-32
   1bff0:	83 2a 04 00 	lw	s5, 0(s0)
   1bff4:	13 04 44 00 	addi	s0, s0, 4
   1bff8:	e3 da 0a fc 	bgez	s5, -44
   1bffc:	b3 0a 50 41 	neg	s5, s5
   1c000:	93 ed 4d 00 	ori	s11, s11, 4
   1c004:	6f f0 9f fc 	j	-56
   1c008:	13 07 b0 02 	addi	a4, zero, 43
   1c00c:	6f f0 5f fd 	j	-44
   1c010:	03 46 0b 00 	lbu	a2, 0(s6)
   1c014:	13 07 1b 00 	addi	a4, s6, 1
   1c018:	63 14 96 05 	bne	a2, s9, 72
   1c01c:	83 24 04 00 	lw	s1, 0(s0)
   1c020:	93 06 44 00 	addi	a3, s0, 4
   1c024:	63 d4 04 00 	bgez	s1, 8
   1c028:	93 04 f0 ff 	addi	s1, zero, -1
   1c02c:	13 84 06 00 	mv	s0, a3
   1c030:	13 0b 07 00 	mv	s6, a4
   1c034:	6f f0 9f f9 	j	-104
   1c038:	93 96 24 00 	slli	a3, s1, 2
   1c03c:	13 07 17 00 	addi	a4, a4, 1
   1c040:	b3 84 96 00 	add	s1, a3, s1
   1c044:	03 46 f7 ff 	lbu	a2, -1(a4)
   1c048:	93 94 14 00 	slli	s1, s1, 1
   1c04c:	b3 84 a4 00 	add	s1, s1, a0
   1c050:	13 05 06 fd 	addi	a0, a2, -48
   1c054:	e3 72 aa fe 	bgeu	s4, a0, -28
   1c058:	13 0b 07 00 	mv	s6, a4
   1c05c:	6f f0 df ea 	j	-340
   1c060:	93 04 00 00 	mv	s1, zero
   1c064:	6f f0 df fe 	j	-20
   1c068:	93 ed 0d 08 	ori	s11, s11, 128
   1c06c:	6f f0 1f f6 	j	-160
   1c070:	13 07 0b 00 	mv	a4, s6
   1c074:	93 0a 00 00 	mv	s5, zero
   1c078:	93 96 2a 00 	slli	a3, s5, 2
   1c07c:	b3 8a 56 01 	add	s5, a3, s5
   1c080:	13 06 06 fd 	addi	a2, a2, -48
   1c084:	93 9a 1a 00 	slli	s5, s5, 1
   1c088:	13 07 17 00 	addi	a4, a4, 1
   1c08c:	b3 0a 56 01 	add	s5, a2, s5
   1c090:	03 46 f7 ff 	lbu	a2, -1(a4)
   1c094:	93 06 06 fd 	addi	a3, a2, -48
   1c098:	e3 70 da fe 	bgeu	s4, a3, -32
   1c09c:	6f f0 df fb 	j	-68
   1c0a0:	83 46 0b 00 	lbu	a3, 0(s6)
   1c0a4:	13 07 80 06 	addi	a4, zero, 104
   1c0a8:	63 98 e6 00 	bne	a3, a4, 16
   1c0ac:	13 0b 1b 00 	addi	s6, s6, 1
   1c0b0:	93 ed 0d 20 	ori	s11, s11, 512
   1c0b4:	6f f0 9f f1 	j	-232
   1c0b8:	93 ed 0d 04 	ori	s11, s11, 64
   1c0bc:	6f f0 1f f1 	j	-240
   1c0c0:	83 46 0b 00 	lbu	a3, 0(s6)
   1c0c4:	13 07 c0 06 	addi	a4, zero, 108
   1c0c8:	63 98 e6 00 	bne	a3, a4, 16
   1c0cc:	13 0b 1b 00 	addi	s6, s6, 1
   1c0d0:	93 ed 0d 02 	ori	s11, s11, 32
   1c0d4:	6f f0 9f ef 	j	-264
   1c0d8:	93 ed 0d 01 	ori	s11, s11, 16
   1c0dc:	6f f0 1f ef 	j	-272
   1c0e0:	03 27 04 00 	lw	a4, 0(s0)
   1c0e4:	93 0c 44 00 	addi	s9, s0, 4
   1c0e8:	a3 0d 01 02 	sb	zero, 59(sp)
   1c0ec:	23 06 e1 08 	sb	a4, 140(sp)
   1c0f0:	93 04 10 00 	addi	s1, zero, 1
   1c0f4:	13 0a 00 00 	mv	s4, zero
   1c0f8:	13 04 c1 08 	addi	s0, sp, 140
   1c0fc:	6f 00 80 1d 	j	472
   1c100:	93 ed 0d 01 	ori	s11, s11, 16
   1c104:	13 f7 0d 02 	andi	a4, s11, 32
   1c108:	63 02 07 06 	beqz	a4, 100
   1c10c:	13 04 74 00 	addi	s0, s0, 7
   1c110:	13 74 84 ff 	andi	s0, s0, -8
   1c114:	03 2d 04 00 	lw	s10, 0(s0)
   1c118:	03 2a 44 00 	lw	s4, 4(s0)
   1c11c:	93 0c 84 00 	addi	s9, s0, 8
   1c120:	e3 54 0a 08 	bgez	s4, 2184
   1c124:	33 07 a0 41 	neg	a4, s10
   1c128:	b3 36 e0 00 	snez	a3, a4
   1c12c:	b3 08 40 41 	neg	a7, s4
   1c130:	33 8a d8 40 	sub	s4, a7, a3
   1c134:	93 06 d0 02 	addi	a3, zero, 45
   1c138:	a3 0d d1 02 	sb	a3, 59(sp)
   1c13c:	13 0d 07 00 	mv	s10, a4
   1c140:	93 06 10 00 	addi	a3, zero, 1
   1c144:	13 06 f0 ff 	addi	a2, zero, -1
   1c148:	63 80 c4 4e 	beq	s1, a2, 1248
   1c14c:	13 86 0d 00 	mv	a2, s11
   1c150:	b3 65 4d 01 	or	a1, s10, s4
   1c154:	93 fd fd f7 	andi	s11, s11, -129
   1c158:	63 98 05 4c 	bnez	a1, 1232
   1c15c:	63 8e 04 64 	beqz	s1, 1628
   1c160:	13 06 10 00 	addi	a2, zero, 1
   1c164:	63 96 c6 4c 	bne	a3, a2, 1228
   1c168:	6f 00 50 05 	j	2132
   1c16c:	13 f7 0d 01 	andi	a4, s11, 16
   1c170:	93 0c 44 00 	addi	s9, s0, 4
   1c174:	63 08 07 00 	beqz	a4, 16
   1c178:	03 2d 04 00 	lw	s10, 0(s0)
   1c17c:	13 5a fd 41 	srai	s4, s10, 31
   1c180:	6f f0 1f fa 	j	-96
   1c184:	93 f6 0d 04 	andi	a3, s11, 64
   1c188:	03 27 04 00 	lw	a4, 0(s0)
   1c18c:	63 88 06 00 	beqz	a3, 16
   1c190:	13 1d 07 01 	slli	s10, a4, 16
   1c194:	13 5d 0d 41 	srai	s10, s10, 16
   1c198:	6f f0 5f fe 	j	-28
   1c19c:	93 f6 0d 20 	andi	a3, s11, 512
   1c1a0:	13 0d 07 00 	mv	s10, a4
   1c1a4:	e3 8c 06 fc 	beqz	a3, -40
   1c1a8:	13 1d 87 01 	slli	s10, a4, 24
   1c1ac:	13 5d 8d 41 	srai	s10, s10, 24
   1c1b0:	6f f0 df fc 	j	-52
   1c1b4:	93 f6 0d 02 	andi	a3, s11, 32
   1c1b8:	03 27 04 00 	lw	a4, 0(s0)
   1c1bc:	13 04 44 00 	addi	s0, s0, 4
   1c1c0:	63 8a 06 00 	beqz	a3, 20
   1c1c4:	93 57 fc 41 	srai	a5, s8, 31
   1c1c8:	23 20 87 01 	sw	s8, 0(a4)
   1c1cc:	23 22 f7 00 	sw	a5, 4(a4)
   1c1d0:	6f f0 5f ca 	j	-860
   1c1d4:	93 f6 0d 01 	andi	a3, s11, 16
   1c1d8:	63 86 06 00 	beqz	a3, 12
   1c1dc:	23 20 87 01 	sw	s8, 0(a4)
   1c1e0:	6f f0 5f c9 	j	-876
   1c1e4:	93 f6 0d 04 	andi	a3, s11, 64
   1c1e8:	63 86 06 00 	beqz	a3, 12
   1c1ec:	23 10 87 01 	sh	s8, 0(a4)
   1c1f0:	6f f0 5f c8 	j	-892
   1c1f4:	93 f7 0d 20 	andi	a5, s11, 512
   1c1f8:	e3 82 07 fe 	beqz	a5, -28
   1c1fc:	23 00 87 01 	sb	s8, 0(a4)
   1c200:	6f f0 5f c7 	j	-908
   1c204:	93 ed 0d 01 	ori	s11, s11, 16
   1c208:	13 f7 0d 02 	andi	a4, s11, 32
   1c20c:	63 04 07 02 	beqz	a4, 40
   1c210:	13 04 74 00 	addi	s0, s0, 7
   1c214:	13 74 84 ff 	andi	s0, s0, -8
   1c218:	03 2d 04 00 	lw	s10, 0(s0)
   1c21c:	03 2a 44 00 	lw	s4, 4(s0)
   1c220:	93 0c 84 00 	addi	s9, s0, 8
   1c224:	93 fd fd bf 	andi	s11, s11, -1025
   1c228:	93 06 00 00 	mv	a3, zero
   1c22c:	a3 0d 01 02 	sb	zero, 59(sp)
   1c230:	6f f0 5f f1 	j	-236
   1c234:	13 f7 0d 01 	andi	a4, s11, 16
   1c238:	93 0c 44 00 	addi	s9, s0, 4
   1c23c:	63 06 07 00 	beqz	a4, 12
   1c240:	03 2d 04 00 	lw	s10, 0(s0)
   1c244:	6f 00 00 01 	j	16
   1c248:	13 f7 0d 04 	andi	a4, s11, 64
   1c24c:	63 08 07 00 	beqz	a4, 16
   1c250:	03 5d 04 00 	lhu	s10, 0(s0)
   1c254:	13 0a 00 00 	mv	s4, zero
   1c258:	6f f0 df fc 	j	-52
   1c25c:	13 f7 0d 20 	andi	a4, s11, 512
   1c260:	e3 00 07 fe 	beqz	a4, -32
   1c264:	03 4d 04 00 	lbu	s10, 0(s0)
   1c268:	6f f0 df fe 	j	-20
   1c26c:	b7 86 ff ff 	lui	a3, 1048568
   1c270:	93 c6 06 83 	xori	a3, a3, -2000
   1c274:	23 1e d1 02 	sh	a3, 60(sp)
   1c278:	03 2d 04 00 	lw	s10, 0(s0)
   1c27c:	b7 26 02 00 	lui	a3, 34
   1c280:	93 87 06 fd 	addi	a5, a3, -48
   1c284:	93 0c 44 00 	addi	s9, s0, 4
   1c288:	13 0a 00 00 	mv	s4, zero
   1c28c:	93 ed 2d 00 	ori	s11, s11, 2
   1c290:	23 26 f1 00 	sw	a5, 12(sp)
   1c294:	93 06 20 00 	addi	a3, zero, 2
   1c298:	6f f0 5f f9 	j	-108
   1c29c:	a3 0d 01 02 	sb	zero, 59(sp)
   1c2a0:	13 07 f0 ff 	addi	a4, zero, -1
   1c2a4:	23 2e 01 01 	sw	a6, 28(sp)
   1c2a8:	93 0c 44 00 	addi	s9, s0, 4
   1c2ac:	03 24 04 00 	lw	s0, 0(s0)
   1c2b0:	63 88 e4 2a 	beq	s1, a4, 688
   1c2b4:	13 86 04 00 	mv	a2, s1
   1c2b8:	93 05 00 00 	mv	a1, zero
   1c2bc:	13 05 04 00 	mv	a0, s0
   1c2c0:	ef a0 cf d1 	jal	-23268
   1c2c4:	13 0a 00 00 	mv	s4, zero
   1c2c8:	03 28 c1 01 	lw	a6, 28(sp)
   1c2cc:	63 04 05 00 	beqz	a0, 8
   1c2d0:	b3 04 85 40 	sub	s1, a0, s0
   1c2d4:	13 0d 0a 00 	mv	s10, s4
   1c2d8:	63 54 9a 00 	bge	s4, s1, 8
   1c2dc:	13 8d 04 00 	mv	s10, s1
   1c2e0:	03 47 b1 03 	lbu	a4, 59(sp)
   1c2e4:	63 04 07 00 	beqz	a4, 8
   1c2e8:	13 0d 1d 00 	addi	s10, s10, 1
   1c2ec:	93 f7 2d 00 	andi	a5, s11, 2
   1c2f0:	23 2e f1 00 	sw	a5, 28(sp)
   1c2f4:	63 84 07 00 	beqz	a5, 8
   1c2f8:	13 0d 2d 00 	addi	s10, s10, 2
   1c2fc:	93 f7 4d 08 	andi	a5, s11, 132
   1c300:	23 20 f1 02 	sw	a5, 32(sp)
   1c304:	63 92 07 06 	bnez	a5, 100
   1c308:	b3 88 aa 41 	sub	a7, s5, s10
   1c30c:	63 5e 10 05 	blez	a7, 92
   1c310:	13 03 00 01 	addi	t1, zero, 16
   1c314:	13 0e 70 00 	addi	t3, zero, 7
   1c318:	83 27 41 01 	lw	a5, 20(sp)
   1c31c:	03 27 41 04 	lw	a4, 68(sp)
   1c320:	83 26 81 04 	lw	a3, 72(sp)
   1c324:	23 20 f8 00 	sw	a5, 0(a6)
   1c328:	13 07 17 00 	addi	a4, a4, 1
   1c32c:	13 06 88 00 	addi	a2, a6, 8
   1c330:	63 4a 13 4b 	blt	t1, a7, 1204
   1c334:	b3 86 16 01 	add	a3, a3, a7
   1c338:	23 22 18 01 	sw	a7, 4(a6)
   1c33c:	23 24 d1 04 	sw	a3, 72(sp)
   1c340:	23 22 e1 04 	sw	a4, 68(sp)
   1c344:	93 06 70 00 	addi	a3, zero, 7
   1c348:	13 08 06 00 	mv	a6, a2
   1c34c:	63 de e6 00 	bge	a3, a4, 28
   1c350:	13 06 01 04 	addi	a2, sp, 64
   1c354:	93 05 09 00 	mv	a1, s2
   1c358:	13 85 09 00 	mv	a0, s3
   1c35c:	ef f0 9f 88 	jal	-1912
   1c360:	63 14 05 5a 	bnez	a0, 1448
   1c364:	13 88 0b 00 	mv	a6, s7
   1c368:	03 47 b1 03 	lbu	a4, 59(sp)
   1c36c:	63 08 07 04 	beqz	a4, 80
   1c370:	93 06 b1 03 	addi	a3, sp, 59
   1c374:	23 20 d8 00 	sw	a3, 0(a6)
   1c378:	93 06 10 00 	addi	a3, zero, 1
   1c37c:	03 27 41 04 	lw	a4, 68(sp)
   1c380:	23 22 d8 00 	sw	a3, 4(a6)
   1c384:	83 26 81 04 	lw	a3, 72(sp)
   1c388:	13 07 17 00 	addi	a4, a4, 1
   1c38c:	23 22 e1 04 	sw	a4, 68(sp)
   1c390:	93 86 16 00 	addi	a3, a3, 1
   1c394:	23 24 d1 04 	sw	a3, 72(sp)
   1c398:	93 06 70 00 	addi	a3, zero, 7
   1c39c:	13 08 88 00 	addi	a6, a6, 8
   1c3a0:	63 de e6 00 	bge	a3, a4, 28
   1c3a4:	13 06 01 04 	addi	a2, sp, 64
   1c3a8:	93 05 09 00 	mv	a1, s2
   1c3ac:	13 85 09 00 	mv	a0, s3
   1c3b0:	ef f0 5f 83 	jal	-1996
   1c3b4:	63 1a 05 54 	bnez	a0, 1364
   1c3b8:	13 88 0b 00 	mv	a6, s7
   1c3bc:	83 27 c1 01 	lw	a5, 28(sp)
   1c3c0:	63 88 07 04 	beqz	a5, 80
   1c3c4:	93 06 c1 03 	addi	a3, sp, 60
   1c3c8:	23 20 d8 00 	sw	a3, 0(a6)
   1c3cc:	93 06 20 00 	addi	a3, zero, 2
   1c3d0:	03 27 41 04 	lw	a4, 68(sp)
   1c3d4:	23 22 d8 00 	sw	a3, 4(a6)
   1c3d8:	83 26 81 04 	lw	a3, 72(sp)
   1c3dc:	13 07 17 00 	addi	a4, a4, 1
   1c3e0:	23 22 e1 04 	sw	a4, 68(sp)
   1c3e4:	93 86 26 00 	addi	a3, a3, 2
   1c3e8:	23 24 d1 04 	sw	a3, 72(sp)
   1c3ec:	93 06 70 00 	addi	a3, zero, 7
   1c3f0:	13 08 88 00 	addi	a6, a6, 8
   1c3f4:	63 de e6 00 	bge	a3, a4, 28
   1c3f8:	13 06 01 04 	addi	a2, sp, 64
   1c3fc:	93 05 09 00 	mv	a1, s2
   1c400:	13 85 09 00 	mv	a0, s3
   1c404:	ef f0 0f fe 	jal	-2080
   1c408:	63 10 05 50 	bnez	a0, 1280
   1c40c:	13 88 0b 00 	mv	a6, s7
   1c410:	83 27 01 02 	lw	a5, 32(sp)
   1c414:	13 07 00 08 	addi	a4, zero, 128
   1c418:	63 92 e7 06 	bne	a5, a4, 100
   1c41c:	33 87 aa 41 	sub	a4, s5, s10
   1c420:	63 5e e0 04 	blez	a4, 92
   1c424:	93 08 00 01 	addi	a7, zero, 16
   1c428:	13 03 70 00 	addi	t1, zero, 7
   1c42c:	83 27 01 01 	lw	a5, 16(sp)
   1c430:	83 26 41 04 	lw	a3, 68(sp)
   1c434:	03 26 81 04 	lw	a2, 72(sp)
   1c438:	23 20 f8 00 	sw	a5, 0(a6)
   1c43c:	93 86 16 00 	addi	a3, a3, 1
   1c440:	93 05 88 00 	addi	a1, a6, 8
   1c444:	63 c4 e8 3e 	blt	a7, a4, 1000
   1c448:	23 22 e8 00 	sw	a4, 4(a6)
   1c44c:	33 07 c7 00 	add	a4, a4, a2
   1c450:	23 24 e1 04 	sw	a4, 72(sp)
   1c454:	23 22 d1 04 	sw	a3, 68(sp)
   1c458:	13 07 70 00 	addi	a4, zero, 7
   1c45c:	13 88 05 00 	mv	a6, a1
   1c460:	63 5e d7 00 	bge	a4, a3, 28
   1c464:	13 06 01 04 	addi	a2, sp, 64
   1c468:	93 05 09 00 	mv	a1, s2
   1c46c:	13 85 09 00 	mv	a0, s3
   1c470:	ef f0 4f f7 	jal	-2188
   1c474:	63 1a 05 48 	bnez	a0, 1172
   1c478:	13 88 0b 00 	mv	a6, s7
   1c47c:	33 0a 9a 40 	sub	s4, s4, s1
   1c480:	63 5e 40 05 	blez	s4, 92
   1c484:	93 08 00 01 	addi	a7, zero, 16
   1c488:	13 03 70 00 	addi	t1, zero, 7
   1c48c:	83 27 01 01 	lw	a5, 16(sp)
   1c490:	03 27 41 04 	lw	a4, 68(sp)
   1c494:	83 26 81 04 	lw	a3, 72(sp)
   1c498:	23 20 f8 00 	sw	a5, 0(a6)
   1c49c:	13 07 17 00 	addi	a4, a4, 1
   1c4a0:	13 06 88 00 	addi	a2, a6, 8
   1c4a4:	63 c8 48 3d 	blt	a7, s4, 976
   1c4a8:	23 22 48 01 	sw	s4, 4(a6)
   1c4ac:	33 0a da 00 	add	s4, s4, a3
   1c4b0:	23 24 41 05 	sw	s4, 72(sp)
   1c4b4:	23 22 e1 04 	sw	a4, 68(sp)
   1c4b8:	93 06 70 00 	addi	a3, zero, 7
   1c4bc:	13 08 06 00 	mv	a6, a2
   1c4c0:	63 de e6 00 	bge	a3, a4, 28
   1c4c4:	13 06 01 04 	addi	a2, sp, 64
   1c4c8:	93 05 09 00 	mv	a1, s2
   1c4cc:	13 85 09 00 	mv	a0, s3
   1c4d0:	ef f0 4f f1 	jal	-2284
   1c4d4:	63 1a 05 42 	bnez	a0, 1076
   1c4d8:	13 88 0b 00 	mv	a6, s7
   1c4dc:	03 27 81 04 	lw	a4, 72(sp)
   1c4e0:	23 22 98 00 	sw	s1, 4(a6)
   1c4e4:	23 20 88 00 	sw	s0, 0(a6)
   1c4e8:	b3 04 97 00 	add	s1, a4, s1
   1c4ec:	03 27 41 04 	lw	a4, 68(sp)
   1c4f0:	23 24 91 04 	sw	s1, 72(sp)
   1c4f4:	93 06 70 00 	addi	a3, zero, 7
   1c4f8:	13 07 17 00 	addi	a4, a4, 1
   1c4fc:	23 22 e1 04 	sw	a4, 68(sp)
   1c500:	13 08 88 00 	addi	a6, a6, 8
   1c504:	63 de e6 00 	bge	a3, a4, 28
   1c508:	13 06 01 04 	addi	a2, sp, 64
   1c50c:	93 05 09 00 	mv	a1, s2
   1c510:	13 85 09 00 	mv	a0, s3
   1c514:	ef f0 0f ed 	jal	-2352
   1c518:	63 18 05 3e 	bnez	a0, 1008
   1c51c:	13 88 0b 00 	mv	a6, s7
   1c520:	93 f7 4d 00 	andi	a5, s11, 4
   1c524:	63 98 07 38 	bnez	a5, 912
   1c528:	63 d4 aa 01 	bge	s5, s10, 8
   1c52c:	93 0a 0d 00 	mv	s5, s10
   1c530:	83 27 81 04 	lw	a5, 72(sp)
   1c534:	33 0c 5c 01 	add	s8, s8, s5
   1c538:	63 8c 07 00 	beqz	a5, 24
   1c53c:	13 06 01 04 	addi	a2, sp, 64
   1c540:	93 05 09 00 	mv	a1, s2
   1c544:	13 85 09 00 	mv	a0, s3
   1c548:	ef f0 cf e9 	jal	-2404
   1c54c:	63 1e 05 3a 	bnez	a0, 956
   1c550:	23 22 01 04 	sw	zero, 68(sp)
   1c554:	13 84 0c 00 	mv	s0, s9
   1c558:	13 88 0b 00 	mv	a6, s7
   1c55c:	6f f0 9f 91 	j	-1768
   1c560:	13 05 04 00 	mv	a0, s0
   1c564:	ef b0 0f df 	jal	-18960
   1c568:	93 04 05 00 	mv	s1, a0
   1c56c:	13 0a 00 00 	mv	s4, zero
   1c570:	03 28 c1 01 	lw	a6, 28(sp)
   1c574:	6f f0 1f d6 	j	-672
   1c578:	93 ed 0d 01 	ori	s11, s11, 16
   1c57c:	13 f7 0d 02 	andi	a4, s11, 32
   1c580:	63 00 07 02 	beqz	a4, 32
   1c584:	13 04 74 00 	addi	s0, s0, 7
   1c588:	13 74 84 ff 	andi	s0, s0, -8
   1c58c:	03 2d 04 00 	lw	s10, 0(s0)
   1c590:	03 2a 44 00 	lw	s4, 4(s0)
   1c594:	93 0c 84 00 	addi	s9, s0, 8
   1c598:	93 06 10 00 	addi	a3, zero, 1
   1c59c:	6f f0 1f c9 	j	-880
   1c5a0:	13 f7 0d 01 	andi	a4, s11, 16
   1c5a4:	93 0c 44 00 	addi	s9, s0, 4
   1c5a8:	63 06 07 00 	beqz	a4, 12
   1c5ac:	03 2d 04 00 	lw	s10, 0(s0)
   1c5b0:	6f 00 00 01 	j	16
   1c5b4:	13 f7 0d 04 	andi	a4, s11, 64
   1c5b8:	63 08 07 00 	beqz	a4, 16
   1c5bc:	03 5d 04 00 	lhu	s10, 0(s0)
   1c5c0:	13 0a 00 00 	mv	s4, zero
   1c5c4:	6f f0 5f fd 	j	-44
   1c5c8:	13 f7 0d 20 	andi	a4, s11, 512
   1c5cc:	e3 00 07 fe 	beqz	a4, -32
   1c5d0:	03 4d 04 00 	lbu	s10, 0(s0)
   1c5d4:	6f f0 df fe 	j	-20
   1c5d8:	37 27 02 00 	lui	a4, 34
   1c5dc:	93 07 47 fe 	addi	a5, a4, -28
   1c5e0:	6f f0 5f 95 	j	-1708
   1c5e4:	13 f7 0d 01 	andi	a4, s11, 16
   1c5e8:	93 0c 44 00 	addi	s9, s0, 4
   1c5ec:	63 06 07 00 	beqz	a4, 12
   1c5f0:	03 2d 04 00 	lw	s10, 0(s0)
   1c5f4:	6f 00 00 01 	j	16
   1c5f8:	13 f7 0d 04 	andi	a4, s11, 64
   1c5fc:	63 08 07 00 	beqz	a4, 16
   1c600:	03 5d 04 00 	lhu	s10, 0(s0)
   1c604:	13 0a 00 00 	mv	s4, zero
   1c608:	6f f0 df 94 	j	-1716
   1c60c:	13 f7 0d 20 	andi	a4, s11, 512
   1c610:	e3 00 07 fe 	beqz	a4, -32
   1c614:	03 4d 04 00 	lbu	s10, 0(s0)
   1c618:	6f f0 df fe 	j	-20
   1c61c:	13 86 0d 00 	mv	a2, s11
   1c620:	93 06 10 00 	addi	a3, zero, 1
   1c624:	6f f0 df b2 	j	-1236
   1c628:	13 06 10 00 	addi	a2, zero, 1
   1c62c:	63 82 c6 38 	beq	a3, a2, 900
   1c630:	13 06 20 00 	addi	a2, zero, 2
   1c634:	63 86 c6 14 	beq	a3, a2, 332
   1c638:	93 06 01 0f 	addi	a3, sp, 240
   1c63c:	93 15 da 01 	slli	a1, s4, 29
   1c640:	13 76 7d 00 	andi	a2, s10, 7
   1c644:	13 57 3d 00 	srli	a4, s10, 3
   1c648:	13 06 06 03 	addi	a2, a2, 48
   1c64c:	33 ed e5 00 	or	s10, a1, a4
   1c650:	13 5a 3a 00 	srli	s4, s4, 3
   1c654:	a3 8f c6 fe 	sb	a2, -1(a3)
   1c658:	b3 65 4d 01 	or	a1, s10, s4
   1c65c:	13 84 f6 ff 	addi	s0, a3, -1
   1c660:	63 96 05 02 	bnez	a1, 44
   1c664:	13 f7 1d 00 	andi	a4, s11, 1
   1c668:	63 0a 07 00 	beqz	a4, 20
   1c66c:	13 07 00 03 	addi	a4, zero, 48
   1c670:	63 06 e6 00 	beq	a2, a4, 12
   1c674:	a3 0f e4 fe 	sb	a4, -1(s0)
   1c678:	13 84 e6 ff 	addi	s0, a3, -2
   1c67c:	93 07 01 0f 	addi	a5, sp, 240
   1c680:	13 8a 04 00 	mv	s4, s1
   1c684:	b3 84 87 40 	sub	s1, a5, s0
   1c688:	6f f0 df c4 	j	-948
   1c68c:	93 06 04 00 	mv	a3, s0
   1c690:	6f f0 df fa 	j	-84
   1c694:	93 f7 0d 40 	andi	a5, s11, 1024
   1c698:	13 03 00 00 	mv	t1, zero
   1c69c:	13 0e 01 0f 	addi	t3, sp, 240
   1c6a0:	23 2e f1 00 	sw	a5, 28(sp)
   1c6a4:	13 06 a0 00 	addi	a2, zero, 10
   1c6a8:	93 06 00 00 	mv	a3, zero
   1c6ac:	13 05 0d 00 	mv	a0, s10
   1c6b0:	93 05 0a 00 	mv	a1, s4
   1c6b4:	23 26 01 03 	sw	a6, 44(sp)
   1c6b8:	23 24 61 02 	sw	t1, 40(sp)
   1c6bc:	13 04 fe ff 	addi	s0, t3, -1
   1c6c0:	23 20 c1 03 	sw	t3, 32(sp)
   1c6c4:	ef 00 d0 66 	jal	3692
   1c6c8:	03 2e 01 02 	lw	t3, 32(sp)
   1c6cc:	03 23 81 02 	lw	t1, 40(sp)
   1c6d0:	83 27 c1 01 	lw	a5, 28(sp)
   1c6d4:	13 05 05 03 	addi	a0, a0, 48
   1c6d8:	a3 0f ae fe 	sb	a0, -1(t3)
   1c6dc:	13 03 13 00 	addi	t1, t1, 1
   1c6e0:	03 28 c1 02 	lw	a6, 44(sp)
   1c6e4:	63 8e 07 04 	beqz	a5, 92
   1c6e8:	83 27 41 00 	lw	a5, 4(sp)
   1c6ec:	83 c6 07 00 	lbu	a3, 0(a5)
   1c6f0:	63 98 66 04 	bne	a3, t1, 80
   1c6f4:	93 07 f0 0f 	addi	a5, zero, 255
   1c6f8:	63 04 f3 04 	beq	t1, a5, 72
   1c6fc:	63 16 0a 00 	bnez	s4, 12
   1c700:	93 07 90 00 	addi	a5, zero, 9
   1c704:	63 fe a7 03 	bgeu	a5, s10, 60
   1c708:	83 27 81 00 	lw	a5, 8(sp)
   1c70c:	83 25 81 01 	lw	a1, 24(sp)
   1c710:	23 20 01 03 	sw	a6, 32(sp)
   1c714:	33 04 f4 40 	sub	s0, s0, a5
   1c718:	13 86 07 00 	mv	a2, a5
   1c71c:	13 05 04 00 	mv	a0, s0
   1c720:	ef b0 0f c5 	jal	-19376
   1c724:	83 27 41 00 	lw	a5, 4(sp)
   1c728:	13 03 00 00 	mv	t1, zero
   1c72c:	03 28 01 02 	lw	a6, 32(sp)
   1c730:	83 c6 17 00 	lbu	a3, 1(a5)
   1c734:	63 86 06 00 	beqz	a3, 12
   1c738:	93 87 17 00 	addi	a5, a5, 1
   1c73c:	23 22 f1 00 	sw	a5, 4(sp)
   1c740:	13 06 a0 00 	addi	a2, zero, 10
   1c744:	93 06 00 00 	mv	a3, zero
   1c748:	13 05 0d 00 	mv	a0, s10
   1c74c:	93 05 0a 00 	mv	a1, s4
   1c750:	23 24 01 03 	sw	a6, 40(sp)
   1c754:	23 20 61 02 	sw	t1, 32(sp)
   1c758:	ef 00 50 00 	jal	2052
   1c75c:	03 23 01 02 	lw	t1, 32(sp)
   1c760:	03 28 81 02 	lw	a6, 40(sp)
   1c764:	63 16 0a 00 	bnez	s4, 12
   1c768:	93 07 90 00 	addi	a5, zero, 9
   1c76c:	e3 f8 a7 f1 	bgeu	a5, s10, -240
   1c770:	13 0d 05 00 	mv	s10, a0
   1c774:	13 8a 05 00 	mv	s4, a1
   1c778:	13 0e 04 00 	mv	t3, s0
   1c77c:	6f f0 9f f2 	j	-216
   1c780:	13 04 01 0f 	addi	s0, sp, 240
   1c784:	83 27 c1 00 	lw	a5, 12(sp)
   1c788:	93 76 fd 00 	andi	a3, s10, 15
   1c78c:	13 04 f4 ff 	addi	s0, s0, -1
   1c790:	b3 86 d7 00 	add	a3, a5, a3
   1c794:	83 c6 06 00 	lbu	a3, 0(a3)
   1c798:	13 57 4d 00 	srli	a4, s10, 4
   1c79c:	23 00 d4 00 	sb	a3, 0(s0)
   1c7a0:	93 16 ca 01 	slli	a3, s4, 28
   1c7a4:	33 ed e6 00 	or	s10, a3, a4
   1c7a8:	13 5a 4a 00 	srli	s4, s4, 4
   1c7ac:	b3 66 4d 01 	or	a3, s10, s4
   1c7b0:	e3 9a 06 fc 	bnez	a3, -44
   1c7b4:	6f f0 9f ec 	j	-312
   1c7b8:	13 04 01 0f 	addi	s0, sp, 240
   1c7bc:	e3 90 06 ec 	bnez	a3, -320
   1c7c0:	13 76 16 00 	andi	a2, a2, 1
   1c7c4:	e3 0c 06 ea 	beqz	a2, -328
   1c7c8:	13 07 00 03 	addi	a4, zero, 48
   1c7cc:	6f 00 40 1f 	j	500
   1c7d0:	63 0e 06 1a 	beqz	a2, 444
   1c7d4:	23 06 c1 08 	sb	a2, 140(sp)
   1c7d8:	a3 0d 01 02 	sb	zero, 59(sp)
   1c7dc:	93 0c 04 00 	mv	s9, s0
   1c7e0:	6f f0 1f 91 	j	-1776
   1c7e4:	93 86 06 01 	addi	a3, a3, 16
   1c7e8:	23 22 68 00 	sw	t1, 4(a6)
   1c7ec:	23 24 d1 04 	sw	a3, 72(sp)
   1c7f0:	23 22 e1 04 	sw	a4, 68(sp)
   1c7f4:	63 56 ee 02 	bge	t3, a4, 44
   1c7f8:	13 06 01 04 	addi	a2, sp, 64
   1c7fc:	93 05 09 00 	mv	a1, s2
   1c800:	13 85 09 00 	mv	a0, s3
   1c804:	23 24 11 03 	sw	a7, 40(sp)
   1c808:	ef f0 cf bd 	jal	-3108
   1c80c:	63 1e 05 0e 	bnez	a0, 252
   1c810:	83 28 81 02 	lw	a7, 40(sp)
   1c814:	13 86 0b 00 	mv	a2, s7
   1c818:	13 0e 70 00 	addi	t3, zero, 7
   1c81c:	13 03 00 01 	addi	t1, zero, 16
   1c820:	93 88 08 ff 	addi	a7, a7, -16
   1c824:	13 08 06 00 	mv	a6, a2
   1c828:	6f f0 1f af 	j	-1296
   1c82c:	13 06 06 01 	addi	a2, a2, 16
   1c830:	23 22 18 01 	sw	a7, 4(a6)
   1c834:	23 24 c1 04 	sw	a2, 72(sp)
   1c838:	23 22 d1 04 	sw	a3, 68(sp)
   1c83c:	63 56 d3 02 	bge	t1, a3, 44
   1c840:	13 06 01 04 	addi	a2, sp, 64
   1c844:	93 05 09 00 	mv	a1, s2
   1c848:	13 85 09 00 	mv	a0, s3
   1c84c:	23 2e e1 00 	sw	a4, 28(sp)
   1c850:	ef f0 4f b9 	jal	-3180
   1c854:	63 1a 05 0a 	bnez	a0, 180
   1c858:	03 27 c1 01 	lw	a4, 28(sp)
   1c85c:	93 85 0b 00 	mv	a1, s7
   1c860:	13 03 70 00 	addi	t1, zero, 7
   1c864:	93 08 00 01 	addi	a7, zero, 16
   1c868:	13 07 07 ff 	addi	a4, a4, -16
   1c86c:	13 88 05 00 	mv	a6, a1
   1c870:	6f f0 df bb 	j	-1092
   1c874:	93 86 06 01 	addi	a3, a3, 16
   1c878:	23 22 18 01 	sw	a7, 4(a6)
   1c87c:	23 24 d1 04 	sw	a3, 72(sp)
   1c880:	23 22 e1 04 	sw	a4, 68(sp)
   1c884:	63 52 e3 02 	bge	t1, a4, 36
   1c888:	13 06 01 04 	addi	a2, sp, 64
   1c88c:	93 05 09 00 	mv	a1, s2
   1c890:	13 85 09 00 	mv	a0, s3
   1c894:	ef f0 0f b5 	jal	-3248
   1c898:	63 18 05 06 	bnez	a0, 112
   1c89c:	13 86 0b 00 	mv	a2, s7
   1c8a0:	13 03 70 00 	addi	t1, zero, 7
   1c8a4:	93 08 00 01 	addi	a7, zero, 16
   1c8a8:	13 0a 0a ff 	addi	s4, s4, -16
   1c8ac:	13 08 06 00 	mv	a6, a2
   1c8b0:	6f f0 df bd 	j	-1060
   1c8b4:	33 84 aa 41 	sub	s0, s5, s10
   1c8b8:	e3 58 80 c6 	blez	s0, -912
   1c8bc:	93 04 00 01 	addi	s1, zero, 16
   1c8c0:	13 0a 70 00 	addi	s4, zero, 7
   1c8c4:	83 26 41 01 	lw	a3, 20(sp)
   1c8c8:	83 27 41 04 	lw	a5, 68(sp)
   1c8cc:	03 27 81 04 	lw	a4, 72(sp)
   1c8d0:	23 20 d8 00 	sw	a3, 0(a6)
   1c8d4:	93 87 17 00 	addi	a5, a5, 1
   1c8d8:	63 ce 84 06 	blt	s1, s0, 124
   1c8dc:	23 22 88 00 	sw	s0, 4(a6)
   1c8e0:	33 04 e4 00 	add	s0, s0, a4
   1c8e4:	23 24 81 04 	sw	s0, 72(sp)
   1c8e8:	23 22 f1 04 	sw	a5, 68(sp)
   1c8ec:	13 07 70 00 	addi	a4, zero, 7
   1c8f0:	e3 5c f7 c2 	bge	a4, a5, -968
   1c8f4:	13 06 01 04 	addi	a2, sp, 64
   1c8f8:	93 05 09 00 	mv	a1, s2
   1c8fc:	13 85 09 00 	mv	a0, s3
   1c900:	ef f0 4f ae 	jal	-3356
   1c904:	e3 02 05 c2 	beqz	a0, -988
   1c908:	83 57 c9 00 	lhu	a5, 12(s2)
   1c90c:	93 f7 07 04 	andi	a5, a5, 64
   1c910:	63 94 07 d0 	bnez	a5, -2808
   1c914:	83 20 c1 12 	lw	ra, 300(sp)
   1c918:	03 24 81 12 	lw	s0, 296(sp)
   1c91c:	13 05 0c 00 	mv	a0, s8
   1c920:	83 24 41 12 	lw	s1, 292(sp)
   1c924:	03 29 01 12 	lw	s2, 288(sp)
   1c928:	83 29 c1 11 	lw	s3, 284(sp)
   1c92c:	03 2a 81 11 	lw	s4, 280(sp)
   1c930:	83 2a 41 11 	lw	s5, 276(sp)
   1c934:	03 2b 01 11 	lw	s6, 272(sp)
   1c938:	83 2b c1 10 	lw	s7, 268(sp)
   1c93c:	03 2c 81 10 	lw	s8, 264(sp)
   1c940:	83 2c 41 10 	lw	s9, 260(sp)
   1c944:	03 2d 01 10 	lw	s10, 256(sp)
   1c948:	83 2d c1 0f 	lw	s11, 252(sp)
   1c94c:	13 01 01 13 	addi	sp, sp, 304
   1c950:	67 80 00 00 	ret
   1c954:	13 07 07 01 	addi	a4, a4, 16
   1c958:	23 22 98 00 	sw	s1, 4(a6)
   1c95c:	23 24 e1 04 	sw	a4, 72(sp)
   1c960:	23 22 f1 04 	sw	a5, 68(sp)
   1c964:	13 08 88 00 	addi	a6, a6, 8
   1c968:	63 5e fa 00 	bge	s4, a5, 28
   1c96c:	13 06 01 04 	addi	a2, sp, 64
   1c970:	93 05 09 00 	mv	a1, s2
   1c974:	13 85 09 00 	mv	a0, s3
   1c978:	ef f0 cf a6 	jal	-3476
   1c97c:	e3 16 05 f8 	bnez	a0, -116
   1c980:	13 88 0b 00 	mv	a6, s7
   1c984:	13 04 04 ff 	addi	s0, s0, -16
   1c988:	6f f0 df f3 	j	-196
   1c98c:	83 27 81 04 	lw	a5, 72(sp)
   1c990:	e3 8c 07 f6 	beqz	a5, -136
   1c994:	13 06 01 04 	addi	a2, sp, 64
   1c998:	93 05 09 00 	mv	a1, s2
   1c99c:	13 85 09 00 	mv	a0, s3
   1c9a0:	ef f0 4f a4 	jal	-3516
   1c9a4:	6f f0 5f f6 	j	-156
   1c9a8:	93 06 f0 ff 	addi	a3, zero, -1
   1c9ac:	e3 98 d4 c6 	bne	s1, a3, -912
   1c9b0:	e3 12 0a ce 	bnez	s4, -796
   1c9b4:	93 06 90 00 	addi	a3, zero, 9
   1c9b8:	e3 ee a6 cd 	bltu	a3, s10, -804
   1c9bc:	13 07 0d 03 	addi	a4, s10, 48
   1c9c0:	a3 07 e1 0e 	sb	a4, 239(sp)
   1c9c4:	13 04 f1 0e 	addi	s0, sp, 239
   1c9c8:	6f f0 5f cb 	j	-844

__swbuf_r:
   1c9cc:	13 01 01 fe 	addi	sp, sp, -32
   1c9d0:	23 2c 81 00 	sw	s0, 24(sp)
   1c9d4:	23 2a 91 00 	sw	s1, 20(sp)
   1c9d8:	23 28 21 01 	sw	s2, 16(sp)
   1c9dc:	23 2e 11 00 	sw	ra, 28(sp)
   1c9e0:	23 26 31 01 	sw	s3, 12(sp)
   1c9e4:	13 09 05 00 	mv	s2, a0
   1c9e8:	93 84 05 00 	mv	s1, a1
   1c9ec:	13 04 06 00 	mv	s0, a2
   1c9f0:	63 08 05 00 	beqz	a0, 16
   1c9f4:	83 27 85 03 	lw	a5, 56(a0)
   1c9f8:	63 94 07 00 	bnez	a5, 8
   1c9fc:	ef 70 4f e2 	jal	-35292
   1ca00:	83 27 84 01 	lw	a5, 24(s0)
   1ca04:	23 24 f4 00 	sw	a5, 8(s0)
   1ca08:	83 57 c4 00 	lhu	a5, 12(s0)
   1ca0c:	93 f7 87 00 	andi	a5, a5, 8
   1ca10:	63 88 07 0a 	beqz	a5, 176
   1ca14:	83 27 04 01 	lw	a5, 16(s0)
   1ca18:	63 84 07 0a 	beqz	a5, 168
   1ca1c:	83 17 c4 00 	lh	a5, 12(s0)
   1ca20:	93 f9 f4 0f 	andi	s3, s1, 255
   1ca24:	93 f4 f4 0f 	andi	s1, s1, 255
   1ca28:	13 97 27 01 	slli	a4, a5, 18
   1ca2c:	63 56 07 0a 	bgez	a4, 172
   1ca30:	83 27 04 01 	lw	a5, 16(s0)
   1ca34:	03 25 04 00 	lw	a0, 0(s0)
   1ca38:	33 05 f5 40 	sub	a0, a0, a5
   1ca3c:	83 27 44 01 	lw	a5, 20(s0)
   1ca40:	63 4a f5 00 	blt	a0, a5, 20
   1ca44:	93 05 04 00 	mv	a1, s0
   1ca48:	13 05 09 00 	mv	a0, s2
   1ca4c:	ef 70 8f c3 	jal	-35784
   1ca50:	63 10 05 08 	bnez	a0, 128
   1ca54:	83 27 84 00 	lw	a5, 8(s0)
   1ca58:	13 05 15 00 	addi	a0, a0, 1
   1ca5c:	93 87 f7 ff 	addi	a5, a5, -1
   1ca60:	23 24 f4 00 	sw	a5, 8(s0)
   1ca64:	83 27 04 00 	lw	a5, 0(s0)
   1ca68:	13 87 17 00 	addi	a4, a5, 1
   1ca6c:	23 20 e4 00 	sw	a4, 0(s0)
   1ca70:	23 80 37 01 	sb	s3, 0(a5)
   1ca74:	83 27 44 01 	lw	a5, 20(s0)
   1ca78:	63 8c a7 00 	beq	a5, a0, 24
   1ca7c:	83 57 c4 00 	lhu	a5, 12(s0)
   1ca80:	93 f7 17 00 	andi	a5, a5, 1
   1ca84:	63 8e 07 00 	beqz	a5, 28
   1ca88:	93 07 a0 00 	addi	a5, zero, 10
   1ca8c:	63 9a f4 00 	bne	s1, a5, 20
   1ca90:	93 05 04 00 	mv	a1, s0
   1ca94:	13 05 09 00 	mv	a0, s2
   1ca98:	ef 70 cf be 	jal	-35860
   1ca9c:	63 1a 05 02 	bnez	a0, 52
   1caa0:	83 20 c1 01 	lw	ra, 28(sp)
   1caa4:	03 24 81 01 	lw	s0, 24(sp)
   1caa8:	13 85 04 00 	mv	a0, s1
   1caac:	03 29 01 01 	lw	s2, 16(sp)
   1cab0:	83 24 41 01 	lw	s1, 20(sp)
   1cab4:	83 29 c1 00 	lw	s3, 12(sp)
   1cab8:	13 01 01 02 	addi	sp, sp, 32
   1cabc:	67 80 00 00 	ret
   1cac0:	93 05 04 00 	mv	a1, s0
   1cac4:	13 05 09 00 	mv	a0, s2
   1cac8:	ef 60 9f ee 	jal	-37144
   1cacc:	e3 08 05 f4 	beqz	a0, -176
   1cad0:	93 04 f0 ff 	addi	s1, zero, -1
   1cad4:	6f f0 df fc 	j	-52
   1cad8:	37 27 00 00 	lui	a4, 2
   1cadc:	b3 e7 e7 00 	or	a5, a5, a4
   1cae0:	23 16 f4 00 	sh	a5, 12(s0)
   1cae4:	83 27 44 06 	lw	a5, 100(s0)
   1cae8:	37 e7 ff ff 	lui	a4, 1048574
   1caec:	13 07 f7 ff 	addi	a4, a4, -1
   1caf0:	b3 f7 e7 00 	and	a5, a5, a4
   1caf4:	23 22 f4 06 	sw	a5, 100(s0)
   1caf8:	6f f0 9f f3 	j	-200

__swbuf:
   1cafc:	13 86 05 00 	mv	a2, a1
   1cb00:	93 05 05 00 	mv	a1, a0
   1cb04:	03 a5 01 1c 	lw	a0, 448(gp)
   1cb08:	6f f0 5f ec 	j	-316

_wcrtomb_r:
   1cb0c:	83 a7 01 1c 	lw	a5, 448(gp)
   1cb10:	13 01 01 fe 	addi	sp, sp, -32
   1cb14:	23 2c 81 00 	sw	s0, 24(sp)
   1cb18:	23 2a 91 00 	sw	s1, 20(sp)
   1cb1c:	23 2e 11 00 	sw	ra, 28(sp)
   1cb20:	13 04 05 00 	mv	s0, a0
   1cb24:	93 84 06 00 	mv	s1, a3
   1cb28:	83 a7 47 03 	lw	a5, 52(a5)
   1cb2c:	63 96 05 04 	bnez	a1, 76
   1cb30:	63 94 07 00 	bnez	a5, 8
   1cb34:	93 87 01 03 	addi	a5, gp, 48
   1cb38:	83 a7 07 0e 	lw	a5, 224(a5)
   1cb3c:	93 86 04 00 	mv	a3, s1
   1cb40:	13 06 00 00 	mv	a2, zero
   1cb44:	93 05 41 00 	addi	a1, sp, 4
   1cb48:	13 05 04 00 	mv	a0, s0
   1cb4c:	e7 80 07 00 	jalr	a5
   1cb50:	93 07 f0 ff 	addi	a5, zero, -1
   1cb54:	63 18 f5 00 	bne	a0, a5, 16
   1cb58:	23 a0 04 00 	sw	zero, 0(s1)
   1cb5c:	93 07 a0 08 	addi	a5, zero, 138
   1cb60:	23 20 f4 00 	sw	a5, 0(s0)
   1cb64:	83 20 c1 01 	lw	ra, 28(sp)
   1cb68:	03 24 81 01 	lw	s0, 24(sp)
   1cb6c:	83 24 41 01 	lw	s1, 20(sp)
   1cb70:	13 01 01 02 	addi	sp, sp, 32
   1cb74:	67 80 00 00 	ret
   1cb78:	63 94 07 00 	bnez	a5, 8
   1cb7c:	93 87 01 03 	addi	a5, gp, 48
   1cb80:	83 a7 07 0e 	lw	a5, 224(a5)
   1cb84:	93 86 04 00 	mv	a3, s1
   1cb88:	6f f0 1f fc 	j	-64

wcrtomb:
   1cb8c:	93 06 06 00 	mv	a3, a2
   1cb90:	13 86 05 00 	mv	a2, a1
   1cb94:	93 05 05 00 	mv	a1, a0
   1cb98:	03 a5 01 1c 	lw	a0, 448(gp)
   1cb9c:	6f f0 1f f7 	j	-144

_wctomb_r:
   1cba0:	83 a7 01 1c 	lw	a5, 448(gp)
   1cba4:	83 a7 47 03 	lw	a5, 52(a5)
   1cba8:	63 94 07 00 	bnez	a5, 8
   1cbac:	93 87 01 03 	addi	a5, gp, 48
   1cbb0:	03 a3 07 0e 	lw	t1, 224(a5)
   1cbb4:	67 00 03 00 	jr	t1

__ascii_wctomb:
   1cbb8:	63 84 05 02 	beqz	a1, 40
   1cbbc:	93 07 f0 0f 	addi	a5, zero, 255
   1cbc0:	63 fa c7 00 	bgeu	a5, a2, 20
   1cbc4:	93 07 a0 08 	addi	a5, zero, 138
   1cbc8:	23 20 f5 00 	sw	a5, 0(a0)
   1cbcc:	13 05 f0 ff 	addi	a0, zero, -1
   1cbd0:	67 80 00 00 	ret
   1cbd4:	23 80 c5 00 	sb	a2, 0(a1)
   1cbd8:	13 05 10 00 	addi	a0, zero, 1
   1cbdc:	67 80 00 00 	ret
   1cbe0:	13 05 00 00 	mv	a0, zero
   1cbe4:	67 80 00 00 	ret

_close:
   1cbe8:	13 01 01 ff 	addi	sp, sp, -16
   1cbec:	23 26 11 00 	sw	ra, 12(sp)
   1cbf0:	23 24 81 00 	sw	s0, 8(sp)
   1cbf4:	93 05 00 00 	mv	a1, zero
   1cbf8:	13 06 00 00 	mv	a2, zero
   1cbfc:	93 06 00 00 	mv	a3, zero
   1cc00:	13 07 00 00 	mv	a4, zero
   1cc04:	93 07 00 00 	mv	a5, zero
   1cc08:	93 08 90 03 	addi	a7, zero, 57
   1cc0c:	73 00 00 00 	ecall	
   1cc10:	13 04 05 00 	mv	s0, a0
   1cc14:	63 5a 05 00 	bgez	a0, 20
   1cc18:	33 04 80 40 	neg	s0, s0
   1cc1c:	ef 00 80 33 	jal	824
   1cc20:	23 20 85 00 	sw	s0, 0(a0)
   1cc24:	13 04 f0 ff 	addi	s0, zero, -1
   1cc28:	13 05 04 00 	mv	a0, s0
   1cc2c:	83 20 c1 00 	lw	ra, 12(sp)
   1cc30:	03 24 81 00 	lw	s0, 8(sp)
   1cc34:	13 01 01 01 	addi	sp, sp, 16
   1cc38:	67 80 00 00 	ret

_exit:
   1cc3c:	93 05 00 00 	mv	a1, zero
   1cc40:	13 06 00 00 	mv	a2, zero
   1cc44:	93 06 00 00 	mv	a3, zero
   1cc48:	13 07 00 00 	mv	a4, zero
   1cc4c:	93 07 00 00 	mv	a5, zero
   1cc50:	93 08 d0 05 	addi	a7, zero, 93
   1cc54:	73 00 00 00 	ecall	
   1cc58:	63 52 05 02 	bgez	a0, 36
   1cc5c:	13 01 01 ff 	addi	sp, sp, -16
   1cc60:	23 24 81 00 	sw	s0, 8(sp)
   1cc64:	13 04 05 00 	mv	s0, a0
   1cc68:	23 26 11 00 	sw	ra, 12(sp)
   1cc6c:	33 04 80 40 	neg	s0, s0
   1cc70:	ef 00 40 2e 	jal	740
   1cc74:	23 20 85 00 	sw	s0, 0(a0)
   1cc78:	6f 00 00 00 	j	0
   1cc7c:	6f 00 00 00 	j	0

_fstat:
   1cc80:	13 01 01 f7 	addi	sp, sp, -144
   1cc84:	23 22 91 08 	sw	s1, 132(sp)
   1cc88:	23 26 11 08 	sw	ra, 140(sp)
   1cc8c:	93 84 05 00 	mv	s1, a1
   1cc90:	23 24 81 08 	sw	s0, 136(sp)
   1cc94:	93 05 01 00 	mv	a1, sp
   1cc98:	13 06 00 00 	mv	a2, zero
   1cc9c:	93 06 00 00 	mv	a3, zero
   1cca0:	13 07 00 00 	mv	a4, zero
   1cca4:	93 07 00 00 	mv	a5, zero
   1cca8:	93 08 00 05 	addi	a7, zero, 80
   1ccac:	73 00 00 00 	ecall	
   1ccb0:	13 04 05 00 	mv	s0, a0
   1ccb4:	63 5a 05 00 	bgez	a0, 20
   1ccb8:	33 04 80 40 	neg	s0, s0
   1ccbc:	ef 00 80 29 	jal	664
   1ccc0:	23 20 85 00 	sw	s0, 0(a0)
   1ccc4:	13 04 f0 ff 	addi	s0, zero, -1
   1ccc8:	13 85 04 00 	mv	a0, s1
   1cccc:	93 05 01 00 	mv	a1, sp
   1ccd0:	ef 00 00 20 	jal	512
   1ccd4:	13 05 04 00 	mv	a0, s0
   1ccd8:	83 20 c1 08 	lw	ra, 140(sp)
   1ccdc:	03 24 81 08 	lw	s0, 136(sp)
   1cce0:	83 24 41 08 	lw	s1, 132(sp)
   1cce4:	13 01 01 09 	addi	sp, sp, 144
   1cce8:	67 80 00 00 	ret

_isatty:
   1ccec:	13 01 01 f9 	addi	sp, sp, -112
   1ccf0:	93 05 81 00 	addi	a1, sp, 8
   1ccf4:	23 26 11 06 	sw	ra, 108(sp)
   1ccf8:	ef f0 9f f8 	jal	-120
   1ccfc:	93 07 f0 ff 	addi	a5, zero, -1
   1cd00:	63 0e f5 00 	beq	a0, a5, 28
   1cd04:	03 25 c1 00 	lw	a0, 12(sp)
   1cd08:	13 55 d5 00 	srli	a0, a0, 13
   1cd0c:	13 75 15 00 	andi	a0, a0, 1
   1cd10:	83 20 c1 06 	lw	ra, 108(sp)
   1cd14:	13 01 01 07 	addi	sp, sp, 112
   1cd18:	67 80 00 00 	ret
   1cd1c:	13 05 00 00 	mv	a0, zero
   1cd20:	6f f0 1f ff 	j	-16

_lseek:
   1cd24:	13 01 01 ff 	addi	sp, sp, -16
   1cd28:	23 26 11 00 	sw	ra, 12(sp)
   1cd2c:	23 24 81 00 	sw	s0, 8(sp)
   1cd30:	93 06 00 00 	mv	a3, zero
   1cd34:	13 07 00 00 	mv	a4, zero
   1cd38:	93 07 00 00 	mv	a5, zero
   1cd3c:	93 08 e0 03 	addi	a7, zero, 62
   1cd40:	73 00 00 00 	ecall	
   1cd44:	13 04 05 00 	mv	s0, a0
   1cd48:	63 5a 05 00 	bgez	a0, 20
   1cd4c:	33 04 80 40 	neg	s0, s0
   1cd50:	ef 00 40 20 	jal	516
   1cd54:	23 20 85 00 	sw	s0, 0(a0)
   1cd58:	13 04 f0 ff 	addi	s0, zero, -1
   1cd5c:	13 05 04 00 	mv	a0, s0
   1cd60:	83 20 c1 00 	lw	ra, 12(sp)
   1cd64:	03 24 81 00 	lw	s0, 8(sp)
   1cd68:	13 01 01 01 	addi	sp, sp, 16
   1cd6c:	67 80 00 00 	ret

_read:
   1cd70:	13 01 01 ff 	addi	sp, sp, -16
   1cd74:	23 26 11 00 	sw	ra, 12(sp)
   1cd78:	23 24 81 00 	sw	s0, 8(sp)
   1cd7c:	93 06 00 00 	mv	a3, zero
   1cd80:	13 07 00 00 	mv	a4, zero
   1cd84:	93 07 00 00 	mv	a5, zero
   1cd88:	93 08 f0 03 	addi	a7, zero, 63
   1cd8c:	73 00 00 00 	ecall	
   1cd90:	13 04 05 00 	mv	s0, a0
   1cd94:	63 5a 05 00 	bgez	a0, 20
   1cd98:	33 04 80 40 	neg	s0, s0
   1cd9c:	ef 00 80 1b 	jal	440
   1cda0:	23 20 85 00 	sw	s0, 0(a0)
   1cda4:	13 04 f0 ff 	addi	s0, zero, -1
   1cda8:	13 05 04 00 	mv	a0, s0
   1cdac:	83 20 c1 00 	lw	ra, 12(sp)
   1cdb0:	03 24 81 00 	lw	s0, 8(sp)
   1cdb4:	13 01 01 01 	addi	sp, sp, 16
   1cdb8:	67 80 00 00 	ret

_sbrk:
   1cdbc:	13 01 01 ff 	addi	sp, sp, -16
   1cdc0:	23 24 81 00 	sw	s0, 8(sp)
   1cdc4:	83 a7 c1 1d 	lw	a5, 476(gp)
   1cdc8:	23 20 21 01 	sw	s2, 0(sp)
   1cdcc:	23 26 11 00 	sw	ra, 12(sp)
   1cdd0:	23 22 91 00 	sw	s1, 4(sp)
   1cdd4:	13 09 05 00 	mv	s2, a0
   1cdd8:	63 9a 07 04 	bnez	a5, 84
   1cddc:	13 05 00 00 	mv	a0, zero
   1cde0:	93 05 00 00 	mv	a1, zero
   1cde4:	13 06 00 00 	mv	a2, zero
   1cde8:	93 06 00 00 	mv	a3, zero
   1cdec:	13 07 00 00 	mv	a4, zero
   1cdf0:	93 08 60 0d 	addi	a7, zero, 214
   1cdf4:	73 00 00 00 	ecall	
   1cdf8:	93 04 05 00 	mv	s1, a0
   1cdfc:	63 56 05 02 	bgez	a0, 44
   1ce00:	ef 00 40 15 	jal	340
   1ce04:	b3 04 90 40 	neg	s1, s1
   1ce08:	23 20 95 00 	sw	s1, 0(a0)
   1ce0c:	13 05 f0 ff 	addi	a0, zero, -1
   1ce10:	83 20 c1 00 	lw	ra, 12(sp)
   1ce14:	03 24 81 00 	lw	s0, 8(sp)
   1ce18:	83 24 41 00 	lw	s1, 4(sp)
   1ce1c:	03 29 01 00 	lw	s2, 0(sp)
   1ce20:	13 01 01 01 	addi	sp, sp, 16
   1ce24:	67 80 00 00 	ret
   1ce28:	23 ae a1 1c 	sw	a0, 476(gp)
   1ce2c:	03 a5 c1 1d 	lw	a0, 476(gp)
   1ce30:	93 05 00 00 	mv	a1, zero
   1ce34:	13 06 00 00 	mv	a2, zero
   1ce38:	33 05 a9 00 	add	a0, s2, a0
   1ce3c:	93 06 00 00 	mv	a3, zero
   1ce40:	13 07 00 00 	mv	a4, zero
   1ce44:	93 07 00 00 	mv	a5, zero
   1ce48:	93 08 60 0d 	addi	a7, zero, 214
   1ce4c:	73 00 00 00 	ecall	
   1ce50:	93 04 05 00 	mv	s1, a0
   1ce54:	63 5a 05 00 	bgez	a0, 20
   1ce58:	b3 04 90 40 	neg	s1, s1
   1ce5c:	ef 00 80 0f 	jal	248
   1ce60:	23 20 95 00 	sw	s1, 0(a0)
   1ce64:	93 04 f0 ff 	addi	s1, zero, -1
   1ce68:	83 a7 c1 1d 	lw	a5, 476(gp)
   1ce6c:	13 05 f0 ff 	addi	a0, zero, -1
   1ce70:	33 09 f9 00 	add	s2, s2, a5
   1ce74:	e3 9e 24 f9 	bne	s1, s2, -100
   1ce78:	23 ae 91 1c 	sw	s1, 476(gp)
   1ce7c:	13 85 07 00 	mv	a0, a5
   1ce80:	6f f0 1f f9 	j	-112

_write:
   1ce84:	13 01 01 ff 	addi	sp, sp, -16
   1ce88:	23 26 11 00 	sw	ra, 12(sp)
   1ce8c:	23 24 81 00 	sw	s0, 8(sp)
   1ce90:	93 06 00 00 	mv	a3, zero
   1ce94:	13 07 00 00 	mv	a4, zero
   1ce98:	93 07 00 00 	mv	a5, zero
   1ce9c:	93 08 00 04 	addi	a7, zero, 64
   1cea0:	73 00 00 00 	ecall	
   1cea4:	13 04 05 00 	mv	s0, a0
   1cea8:	63 5a 05 00 	bgez	a0, 20
   1ceac:	33 04 80 40 	neg	s0, s0
   1ceb0:	ef 00 40 0a 	jal	164
   1ceb4:	23 20 85 00 	sw	s0, 0(a0)
   1ceb8:	13 04 f0 ff 	addi	s0, zero, -1
   1cebc:	13 05 04 00 	mv	a0, s0
   1cec0:	83 20 c1 00 	lw	ra, 12(sp)
   1cec4:	03 24 81 00 	lw	s0, 8(sp)
   1cec8:	13 01 01 01 	addi	sp, sp, 16
   1cecc:	67 80 00 00 	ret

_conv_stat:
   1ced0:	83 a7 05 00 	lw	a5, 0(a1)
   1ced4:	03 a7 85 04 	lw	a4, 72(a1)
   1ced8:	23 10 f5 00 	sh	a5, 0(a0)
   1cedc:	83 a7 85 00 	lw	a5, 8(a1)
   1cee0:	23 11 f5 00 	sh	a5, 2(a0)
   1cee4:	83 a7 05 01 	lw	a5, 16(a1)
   1cee8:	23 22 f5 00 	sw	a5, 4(a0)
   1ceec:	83 a7 45 01 	lw	a5, 20(a1)
   1cef0:	23 14 f5 00 	sh	a5, 8(a0)
   1cef4:	83 a7 85 01 	lw	a5, 24(a1)
   1cef8:	23 15 f5 00 	sh	a5, 10(a0)
   1cefc:	83 a7 c5 01 	lw	a5, 28(a1)
   1cf00:	23 16 f5 00 	sh	a5, 12(a0)
   1cf04:	83 a7 05 02 	lw	a5, 32(a1)
   1cf08:	23 17 f5 00 	sh	a5, 14(a0)
   1cf0c:	83 a7 05 03 	lw	a5, 48(a1)
   1cf10:	23 28 f5 00 	sw	a5, 16(a0)
   1cf14:	83 a7 05 04 	lw	a5, 64(a1)
   1cf18:	23 24 f5 04 	sw	a5, 72(a0)
   1cf1c:	83 a7 85 03 	lw	a5, 56(a1)
   1cf20:	23 22 f5 04 	sw	a5, 68(a0)
   1cf24:	83 a7 c5 04 	lw	a5, 76(a1)
   1cf28:	23 2c e5 00 	sw	a4, 24(a0)
   1cf2c:	03 a7 85 05 	lw	a4, 88(a1)
   1cf30:	23 2e f5 00 	sw	a5, 28(a0)
   1cf34:	83 a7 c5 05 	lw	a5, 92(a1)
   1cf38:	23 24 e5 02 	sw	a4, 40(a0)
   1cf3c:	03 a7 85 06 	lw	a4, 104(a1)
   1cf40:	23 26 f5 02 	sw	a5, 44(a0)
   1cf44:	83 a7 c5 06 	lw	a5, 108(a1)
   1cf48:	23 2c e5 02 	sw	a4, 56(a0)
   1cf4c:	23 2e f5 02 	sw	a5, 60(a0)
   1cf50:	67 80 00 00 	ret

__errno:
   1cf54:	03 a5 01 1c 	lw	a0, 448(gp)
   1cf58:	67 80 00 00 	ret

__udivdi3:
   1cf5c:	13 01 01 fd 	addi	sp, sp, -48
   1cf60:	23 22 91 02 	sw	s1, 36(sp)
   1cf64:	23 28 61 01 	sw	s6, 16(sp)
   1cf68:	23 26 11 02 	sw	ra, 44(sp)
   1cf6c:	23 24 81 02 	sw	s0, 40(sp)
   1cf70:	23 20 21 03 	sw	s2, 32(sp)
   1cf74:	23 2e 31 01 	sw	s3, 28(sp)
   1cf78:	23 2c 41 01 	sw	s4, 24(sp)
   1cf7c:	23 2a 51 01 	sw	s5, 20(sp)
   1cf80:	23 26 71 01 	sw	s7, 12(sp)
   1cf84:	23 24 81 01 	sw	s8, 8(sp)
   1cf88:	23 22 91 01 	sw	s9, 4(sp)
   1cf8c:	13 0b 05 00 	mv	s6, a0
   1cf90:	93 84 05 00 	mv	s1, a1
   1cf94:	63 9c 06 38 	bnez	a3, 920
   1cf98:	37 39 02 00 	lui	s2, 35
   1cf9c:	13 04 06 00 	mv	s0, a2
   1cfa0:	93 09 05 00 	mv	s3, a0
   1cfa4:	13 09 c9 a0 	addi	s2, s2, -1524
   1cfa8:	63 f8 c5 12 	bgeu	a1, a2, 304
   1cfac:	b7 07 01 00 	lui	a5, 16
   1cfb0:	93 8a 05 00 	mv	s5, a1
   1cfb4:	63 78 f6 10 	bgeu	a2, a5, 272
   1cfb8:	93 06 f0 0f 	addi	a3, zero, 255
   1cfbc:	b3 b6 c6 00 	sltu	a3, a3, a2
   1cfc0:	93 96 36 00 	slli	a3, a3, 3
   1cfc4:	b3 57 d6 00 	srl	a5, a2, a3
   1cfc8:	33 09 f9 00 	add	s2, s2, a5
   1cfcc:	03 47 09 00 	lbu	a4, 0(s2)
   1cfd0:	b3 06 d7 00 	add	a3, a4, a3
   1cfd4:	13 07 00 02 	addi	a4, zero, 32
   1cfd8:	33 07 d7 40 	sub	a4, a4, a3
   1cfdc:	63 0c 07 00 	beqz	a4, 24
   1cfe0:	b3 94 e4 00 	sll	s1, s1, a4
   1cfe4:	b3 56 db 00 	srl	a3, s6, a3
   1cfe8:	33 14 e6 00 	sll	s0, a2, a4
   1cfec:	b3 ea 96 00 	or	s5, a3, s1
   1cff0:	b3 19 eb 00 	sll	s3, s6, a4
   1cff4:	13 5b 04 01 	srli	s6, s0, 16
   1cff8:	93 05 0b 00 	mv	a1, s6
   1cffc:	13 85 0a 00 	mv	a0, s5
   1d000:	ef 40 d0 53 	jal	19772
   1d004:	13 09 05 00 	mv	s2, a0
   1d008:	93 05 0b 00 	mv	a1, s6
   1d00c:	93 1b 04 01 	slli	s7, s0, 16
   1d010:	13 85 0a 00 	mv	a0, s5
   1d014:	ef 40 10 4e 	jal	19680
   1d018:	93 db 0b 01 	srli	s7, s7, 16
   1d01c:	93 04 05 00 	mv	s1, a0
   1d020:	93 05 05 00 	mv	a1, a0
   1d024:	13 85 0b 00 	mv	a0, s7
   1d028:	ef 40 10 4a 	jal	19616
   1d02c:	13 19 09 01 	slli	s2, s2, 16
   1d030:	13 d7 09 01 	srli	a4, s3, 16
   1d034:	33 67 e9 00 	or	a4, s2, a4
   1d038:	13 8a 04 00 	mv	s4, s1
   1d03c:	63 7e a7 00 	bgeu	a4, a0, 28
   1d040:	33 07 87 00 	add	a4, a4, s0
   1d044:	13 8a f4 ff 	addi	s4, s1, -1
   1d048:	63 68 87 00 	bltu	a4, s0, 16
   1d04c:	63 76 a7 00 	bgeu	a4, a0, 12
   1d050:	13 8a e4 ff 	addi	s4, s1, -2
   1d054:	33 07 87 00 	add	a4, a4, s0
   1d058:	b3 04 a7 40 	sub	s1, a4, a0
   1d05c:	93 05 0b 00 	mv	a1, s6
   1d060:	13 85 04 00 	mv	a0, s1
   1d064:	ef 40 90 4d 	jal	19672
   1d068:	13 09 05 00 	mv	s2, a0
   1d06c:	93 05 0b 00 	mv	a1, s6
   1d070:	13 85 04 00 	mv	a0, s1
   1d074:	ef 40 10 48 	jal	19584
   1d078:	93 99 09 01 	slli	s3, s3, 16
   1d07c:	93 04 05 00 	mv	s1, a0
   1d080:	93 05 05 00 	mv	a1, a0
   1d084:	13 19 09 01 	slli	s2, s2, 16
   1d088:	13 85 0b 00 	mv	a0, s7
   1d08c:	93 d9 09 01 	srli	s3, s3, 16
   1d090:	ef 40 90 43 	jal	19512
   1d094:	b3 69 39 01 	or	s3, s2, s3
   1d098:	13 86 04 00 	mv	a2, s1
   1d09c:	63 fc a9 00 	bgeu	s3, a0, 24
   1d0a0:	b3 09 34 01 	add	s3, s0, s3
   1d0a4:	13 86 f4 ff 	addi	a2, s1, -1
   1d0a8:	63 e6 89 00 	bltu	s3, s0, 12
   1d0ac:	63 f4 a9 00 	bgeu	s3, a0, 8
   1d0b0:	13 86 e4 ff 	addi	a2, s1, -2
   1d0b4:	93 17 0a 01 	slli	a5, s4, 16
   1d0b8:	b3 e7 c7 00 	or	a5, a5, a2
   1d0bc:	13 0a 00 00 	mv	s4, zero
   1d0c0:	6f 00 00 13 	j	304
   1d0c4:	b7 07 00 01 	lui	a5, 4096
   1d0c8:	93 06 00 01 	addi	a3, zero, 16
   1d0cc:	e3 6c f6 ee 	bltu	a2, a5, -264
   1d0d0:	93 06 80 01 	addi	a3, zero, 24
   1d0d4:	6f f0 1f ef 	j	-272
   1d0d8:	13 8a 06 00 	mv	s4, a3
   1d0dc:	63 1a 06 00 	bnez	a2, 20
   1d0e0:	93 05 00 00 	mv	a1, zero
   1d0e4:	13 05 10 00 	addi	a0, zero, 1
   1d0e8:	ef 40 d0 40 	jal	19468
   1d0ec:	13 04 05 00 	mv	s0, a0
   1d0f0:	b7 07 01 00 	lui	a5, 16
   1d0f4:	63 7c f4 12 	bgeu	s0, a5, 312
   1d0f8:	93 07 f0 0f 	addi	a5, zero, 255
   1d0fc:	63 f4 87 00 	bgeu	a5, s0, 8
   1d100:	13 0a 80 00 	addi	s4, zero, 8
   1d104:	b3 57 44 01 	srl	a5, s0, s4
   1d108:	33 09 f9 00 	add	s2, s2, a5
   1d10c:	83 46 09 00 	lbu	a3, 0(s2)
   1d110:	13 06 00 02 	addi	a2, zero, 32
   1d114:	b3 86 46 01 	add	a3, a3, s4
   1d118:	33 06 d6 40 	sub	a2, a2, a3
   1d11c:	63 12 06 12 	bnez	a2, 292
   1d120:	b3 84 84 40 	sub	s1, s1, s0
   1d124:	13 0a 10 00 	addi	s4, zero, 1
   1d128:	13 5b 04 01 	srli	s6, s0, 16
   1d12c:	93 05 0b 00 	mv	a1, s6
   1d130:	13 85 04 00 	mv	a0, s1
   1d134:	ef 40 90 40 	jal	19464
   1d138:	13 09 05 00 	mv	s2, a0
   1d13c:	93 05 0b 00 	mv	a1, s6
   1d140:	13 85 04 00 	mv	a0, s1
   1d144:	93 1b 04 01 	slli	s7, s0, 16
   1d148:	ef 40 d0 3a 	jal	19372
   1d14c:	93 db 0b 01 	srli	s7, s7, 16
   1d150:	93 04 05 00 	mv	s1, a0
   1d154:	93 05 05 00 	mv	a1, a0
   1d158:	13 85 0b 00 	mv	a0, s7
   1d15c:	ef 40 d0 36 	jal	19308
   1d160:	13 19 09 01 	slli	s2, s2, 16
   1d164:	13 d7 09 01 	srli	a4, s3, 16
   1d168:	33 67 e9 00 	or	a4, s2, a4
   1d16c:	93 8a 04 00 	mv	s5, s1
   1d170:	63 7e a7 00 	bgeu	a4, a0, 28
   1d174:	33 07 87 00 	add	a4, a4, s0
   1d178:	93 8a f4 ff 	addi	s5, s1, -1
   1d17c:	63 68 87 00 	bltu	a4, s0, 16
   1d180:	63 76 a7 00 	bgeu	a4, a0, 12
   1d184:	93 8a e4 ff 	addi	s5, s1, -2
   1d188:	33 07 87 00 	add	a4, a4, s0
   1d18c:	b3 04 a7 40 	sub	s1, a4, a0
   1d190:	93 05 0b 00 	mv	a1, s6
   1d194:	13 85 04 00 	mv	a0, s1
   1d198:	ef 40 50 3a 	jal	19364
   1d19c:	13 09 05 00 	mv	s2, a0
   1d1a0:	93 05 0b 00 	mv	a1, s6
   1d1a4:	13 85 04 00 	mv	a0, s1
   1d1a8:	ef 40 d0 34 	jal	19276
   1d1ac:	93 99 09 01 	slli	s3, s3, 16
   1d1b0:	93 04 05 00 	mv	s1, a0
   1d1b4:	93 05 05 00 	mv	a1, a0
   1d1b8:	13 19 09 01 	slli	s2, s2, 16
   1d1bc:	13 85 0b 00 	mv	a0, s7
   1d1c0:	93 d9 09 01 	srli	s3, s3, 16
   1d1c4:	ef 40 50 30 	jal	19204
   1d1c8:	b3 69 39 01 	or	s3, s2, s3
   1d1cc:	13 86 04 00 	mv	a2, s1
   1d1d0:	63 fc a9 00 	bgeu	s3, a0, 24
   1d1d4:	b3 09 34 01 	add	s3, s0, s3
   1d1d8:	13 86 f4 ff 	addi	a2, s1, -1
   1d1dc:	63 e6 89 00 	bltu	s3, s0, 12
   1d1e0:	63 f4 a9 00 	bgeu	s3, a0, 8
   1d1e4:	13 86 e4 ff 	addi	a2, s1, -2
   1d1e8:	93 97 0a 01 	slli	a5, s5, 16
   1d1ec:	b3 e7 c7 00 	or	a5, a5, a2
   1d1f0:	13 85 07 00 	mv	a0, a5
   1d1f4:	93 05 0a 00 	mv	a1, s4
   1d1f8:	83 20 c1 02 	lw	ra, 44(sp)
   1d1fc:	03 24 81 02 	lw	s0, 40(sp)
   1d200:	83 24 41 02 	lw	s1, 36(sp)
   1d204:	03 29 01 02 	lw	s2, 32(sp)
   1d208:	83 29 c1 01 	lw	s3, 28(sp)
   1d20c:	03 2a 81 01 	lw	s4, 24(sp)
   1d210:	83 2a 41 01 	lw	s5, 20(sp)
   1d214:	03 2b 01 01 	lw	s6, 16(sp)
   1d218:	83 2b c1 00 	lw	s7, 12(sp)
   1d21c:	03 2c 81 00 	lw	s8, 8(sp)
   1d220:	83 2c 41 00 	lw	s9, 4(sp)
   1d224:	13 01 01 03 	addi	sp, sp, 48
   1d228:	67 80 00 00 	ret
   1d22c:	b7 07 00 01 	lui	a5, 4096
   1d230:	13 0a 00 01 	addi	s4, zero, 16
   1d234:	e3 68 f4 ec 	bltu	s0, a5, -304
   1d238:	13 0a 80 01 	addi	s4, zero, 24
   1d23c:	6f f0 9f ec 	j	-312
   1d240:	33 14 c4 00 	sll	s0, s0, a2
   1d244:	33 da d4 00 	srl	s4, s1, a3
   1d248:	b3 19 cb 00 	sll	s3, s6, a2
   1d24c:	b3 56 db 00 	srl	a3, s6, a3
   1d250:	13 5b 04 01 	srli	s6, s0, 16
   1d254:	b3 94 c4 00 	sll	s1, s1, a2
   1d258:	93 05 0b 00 	mv	a1, s6
   1d25c:	13 05 0a 00 	mv	a0, s4
   1d260:	b3 ea 96 00 	or	s5, a3, s1
   1d264:	ef 40 90 2d 	jal	19160
   1d268:	13 09 05 00 	mv	s2, a0
   1d26c:	93 05 0b 00 	mv	a1, s6
   1d270:	13 05 0a 00 	mv	a0, s4
   1d274:	93 1b 04 01 	slli	s7, s0, 16
   1d278:	ef 40 d0 27 	jal	19068
   1d27c:	93 db 0b 01 	srli	s7, s7, 16
   1d280:	93 04 05 00 	mv	s1, a0
   1d284:	93 05 05 00 	mv	a1, a0
   1d288:	13 85 0b 00 	mv	a0, s7
   1d28c:	ef 40 d0 23 	jal	19004
   1d290:	13 19 09 01 	slli	s2, s2, 16
   1d294:	13 d7 0a 01 	srli	a4, s5, 16
   1d298:	33 67 e9 00 	or	a4, s2, a4
   1d29c:	13 8a 04 00 	mv	s4, s1
   1d2a0:	63 7e a7 00 	bgeu	a4, a0, 28
   1d2a4:	33 07 87 00 	add	a4, a4, s0
   1d2a8:	13 8a f4 ff 	addi	s4, s1, -1
   1d2ac:	63 68 87 00 	bltu	a4, s0, 16
   1d2b0:	63 76 a7 00 	bgeu	a4, a0, 12
   1d2b4:	13 8a e4 ff 	addi	s4, s1, -2
   1d2b8:	33 07 87 00 	add	a4, a4, s0
   1d2bc:	b3 04 a7 40 	sub	s1, a4, a0
   1d2c0:	93 05 0b 00 	mv	a1, s6
   1d2c4:	13 85 04 00 	mv	a0, s1
   1d2c8:	ef 40 50 27 	jal	19060
   1d2cc:	13 09 05 00 	mv	s2, a0
   1d2d0:	93 05 0b 00 	mv	a1, s6
   1d2d4:	13 85 04 00 	mv	a0, s1
   1d2d8:	ef 40 d0 21 	jal	18972
   1d2dc:	93 04 05 00 	mv	s1, a0
   1d2e0:	93 05 05 00 	mv	a1, a0
   1d2e4:	13 85 0b 00 	mv	a0, s7
   1d2e8:	ef 40 10 1e 	jal	18912
   1d2ec:	93 96 0a 01 	slli	a3, s5, 16
   1d2f0:	13 19 09 01 	slli	s2, s2, 16
   1d2f4:	93 d6 06 01 	srli	a3, a3, 16
   1d2f8:	b3 67 d9 00 	or	a5, s2, a3
   1d2fc:	13 87 04 00 	mv	a4, s1
   1d300:	63 fe a7 00 	bgeu	a5, a0, 28
   1d304:	b3 87 87 00 	add	a5, a5, s0
   1d308:	13 87 f4 ff 	addi	a4, s1, -1
   1d30c:	63 e8 87 00 	bltu	a5, s0, 16
   1d310:	63 f6 a7 00 	bgeu	a5, a0, 12
   1d314:	13 87 e4 ff 	addi	a4, s1, -2
   1d318:	b3 87 87 00 	add	a5, a5, s0
   1d31c:	13 1a 0a 01 	slli	s4, s4, 16
   1d320:	b3 84 a7 40 	sub	s1, a5, a0
   1d324:	33 6a ea 00 	or	s4, s4, a4
   1d328:	6f f0 1f e0 	j	-512
   1d32c:	63 ec d5 1e 	bltu	a1, a3, 504
   1d330:	b7 07 01 00 	lui	a5, 16
   1d334:	63 f4 f6 04 	bgeu	a3, a5, 72
   1d338:	93 05 f0 0f 	addi	a1, zero, 255
   1d33c:	33 b5 d5 00 	sltu	a0, a1, a3
   1d340:	13 15 35 00 	slli	a0, a0, 3
   1d344:	37 37 02 00 	lui	a4, 35
   1d348:	b3 d7 a6 00 	srl	a5, a3, a0
   1d34c:	13 07 c7 a0 	addi	a4, a4, -1524
   1d350:	b3 87 e7 00 	add	a5, a5, a4
   1d354:	83 c5 07 00 	lbu	a1, 0(a5)
   1d358:	13 0a 00 02 	addi	s4, zero, 32
   1d35c:	b3 85 a5 00 	add	a1, a1, a0
   1d360:	33 0a ba 40 	sub	s4, s4, a1
   1d364:	63 16 0a 02 	bnez	s4, 44
   1d368:	93 07 10 00 	addi	a5, zero, 1
   1d36c:	e3 e2 96 e8 	bltu	a3, s1, -380
   1d370:	33 36 cb 00 	sltu	a2, s6, a2
   1d374:	93 47 16 00 	xori	a5, a2, 1
   1d378:	6f f0 9f e7 	j	-392
   1d37c:	b7 07 00 01 	lui	a5, 4096
   1d380:	13 05 00 01 	addi	a0, zero, 16
   1d384:	e3 e0 f6 fc 	bltu	a3, a5, -64
   1d388:	13 05 80 01 	addi	a0, zero, 24
   1d38c:	6f f0 9f fb 	j	-72
   1d390:	b3 5a b6 00 	srl	s5, a2, a1
   1d394:	b3 96 46 01 	sll	a3, a3, s4
   1d398:	b3 ea da 00 	or	s5, s5, a3
   1d39c:	33 d9 b4 00 	srl	s2, s1, a1
   1d3a0:	b3 97 44 01 	sll	a5, s1, s4
   1d3a4:	b3 55 bb 00 	srl	a1, s6, a1
   1d3a8:	93 db 0a 01 	srli	s7, s5, 16
   1d3ac:	b3 e4 f5 00 	or	s1, a1, a5
   1d3b0:	13 05 09 00 	mv	a0, s2
   1d3b4:	93 85 0b 00 	mv	a1, s7
   1d3b8:	b3 19 46 01 	sll	s3, a2, s4
   1d3bc:	ef 40 10 18 	jal	18816
   1d3c0:	13 04 05 00 	mv	s0, a0
   1d3c4:	93 85 0b 00 	mv	a1, s7
   1d3c8:	13 05 09 00 	mv	a0, s2
   1d3cc:	13 9c 0a 01 	slli	s8, s5, 16
   1d3d0:	ef 40 50 12 	jal	18724
   1d3d4:	13 5c 0c 01 	srli	s8, s8, 16
   1d3d8:	13 09 05 00 	mv	s2, a0
   1d3dc:	93 05 05 00 	mv	a1, a0
   1d3e0:	13 05 0c 00 	mv	a0, s8
   1d3e4:	ef 40 50 0e 	jal	18660
   1d3e8:	13 14 04 01 	slli	s0, s0, 16
   1d3ec:	13 d7 04 01 	srli	a4, s1, 16
   1d3f0:	33 67 e4 00 	or	a4, s0, a4
   1d3f4:	93 0c 09 00 	mv	s9, s2
   1d3f8:	63 7e a7 00 	bgeu	a4, a0, 28
   1d3fc:	33 07 57 01 	add	a4, a4, s5
   1d400:	93 0c f9 ff 	addi	s9, s2, -1
   1d404:	63 68 57 01 	bltu	a4, s5, 16
   1d408:	63 76 a7 00 	bgeu	a4, a0, 12
   1d40c:	93 0c e9 ff 	addi	s9, s2, -2
   1d410:	33 07 57 01 	add	a4, a4, s5
   1d414:	33 09 a7 40 	sub	s2, a4, a0
   1d418:	93 85 0b 00 	mv	a1, s7
   1d41c:	13 05 09 00 	mv	a0, s2
   1d420:	ef 40 d0 11 	jal	18716
   1d424:	13 04 05 00 	mv	s0, a0
   1d428:	93 85 0b 00 	mv	a1, s7
   1d42c:	13 05 09 00 	mv	a0, s2
   1d430:	ef 40 50 0c 	jal	18628
   1d434:	13 09 05 00 	mv	s2, a0
   1d438:	93 05 05 00 	mv	a1, a0
   1d43c:	13 05 0c 00 	mv	a0, s8
   1d440:	ef 40 90 08 	jal	18568
   1d444:	93 97 04 01 	slli	a5, s1, 16
   1d448:	13 14 04 01 	slli	s0, s0, 16
   1d44c:	93 d7 07 01 	srli	a5, a5, 16
   1d450:	33 67 f4 00 	or	a4, s0, a5
   1d454:	13 06 09 00 	mv	a2, s2
   1d458:	63 7e a7 00 	bgeu	a4, a0, 28
   1d45c:	33 07 57 01 	add	a4, a4, s5
   1d460:	13 06 f9 ff 	addi	a2, s2, -1
   1d464:	63 68 57 01 	bltu	a4, s5, 16
   1d468:	63 76 a7 00 	bgeu	a4, a0, 12
   1d46c:	13 06 e9 ff 	addi	a2, s2, -2
   1d470:	33 07 57 01 	add	a4, a4, s5
   1d474:	93 97 0c 01 	slli	a5, s9, 16
   1d478:	37 0e 01 00 	lui	t3, 16
   1d47c:	b3 e7 c7 00 	or	a5, a5, a2
   1d480:	13 08 fe ff 	addi	a6, t3, -1
   1d484:	33 f3 07 01 	and	t1, a5, a6
   1d488:	33 f8 09 01 	and	a6, s3, a6
   1d48c:	33 07 a7 40 	sub	a4, a4, a0
   1d490:	93 de 07 01 	srli	t4, a5, 16
   1d494:	93 d9 09 01 	srli	s3, s3, 16
   1d498:	13 05 03 00 	mv	a0, t1
   1d49c:	93 05 08 00 	mv	a1, a6
   1d4a0:	ef 40 90 02 	jal	18472
   1d4a4:	93 08 05 00 	mv	a7, a0
   1d4a8:	93 85 09 00 	mv	a1, s3
   1d4ac:	13 05 03 00 	mv	a0, t1
   1d4b0:	ef 40 90 01 	jal	18456
   1d4b4:	13 03 05 00 	mv	t1, a0
   1d4b8:	93 05 08 00 	mv	a1, a6
   1d4bc:	13 85 0e 00 	mv	a0, t4
   1d4c0:	ef 40 90 00 	jal	18440
   1d4c4:	13 08 05 00 	mv	a6, a0
   1d4c8:	93 85 09 00 	mv	a1, s3
   1d4cc:	13 85 0e 00 	mv	a0, t4
   1d4d0:	ef 40 80 7f 	jal	18424
   1d4d4:	93 d6 08 01 	srli	a3, a7, 16
   1d4d8:	33 03 03 01 	add	t1, t1, a6
   1d4dc:	b3 86 66 00 	add	a3, a3, t1
   1d4e0:	63 f4 06 01 	bgeu	a3, a6, 8
   1d4e4:	33 05 c5 01 	add	a0, a0, t3
   1d4e8:	13 d6 06 01 	srli	a2, a3, 16
   1d4ec:	33 05 a6 00 	add	a0, a2, a0
   1d4f0:	63 66 a7 02 	bltu	a4, a0, 44
   1d4f4:	e3 14 a7 bc 	bne	a4, a0, -1080
   1d4f8:	37 07 01 00 	lui	a4, 16
   1d4fc:	13 07 f7 ff 	addi	a4, a4, -1
   1d500:	b3 f6 e6 00 	and	a3, a3, a4
   1d504:	93 96 06 01 	slli	a3, a3, 16
   1d508:	b3 f8 e8 00 	and	a7, a7, a4
   1d50c:	33 16 4b 01 	sll	a2, s6, s4
   1d510:	b3 86 16 01 	add	a3, a3, a7
   1d514:	13 0a 00 00 	mv	s4, zero
   1d518:	e3 7c d6 cc 	bgeu	a2, a3, -808
   1d51c:	93 87 f7 ff 	addi	a5, a5, -1
   1d520:	6f f0 df b9 	j	-1124
   1d524:	13 0a 00 00 	mv	s4, zero
   1d528:	93 07 00 00 	mv	a5, zero
   1d52c:	6f f0 5f cc 	j	-828

__umoddi3:
   1d530:	13 01 01 fd 	addi	sp, sp, -48
   1d534:	23 24 81 02 	sw	s0, 40(sp)
   1d538:	23 22 91 02 	sw	s1, 36(sp)
   1d53c:	23 2e 31 01 	sw	s3, 28(sp)
   1d540:	23 28 61 01 	sw	s6, 16(sp)
   1d544:	23 26 11 02 	sw	ra, 44(sp)
   1d548:	23 20 21 03 	sw	s2, 32(sp)
   1d54c:	23 2c 41 01 	sw	s4, 24(sp)
   1d550:	23 2a 51 01 	sw	s5, 20(sp)
   1d554:	23 26 71 01 	sw	s7, 12(sp)
   1d558:	23 24 81 01 	sw	s8, 8(sp)
   1d55c:	23 22 91 01 	sw	s9, 4(sp)
   1d560:	23 20 a1 01 	sw	s10, 0(sp)
   1d564:	13 0b 05 00 	mv	s6, a0
   1d568:	93 89 05 00 	mv	s3, a1
   1d56c:	13 04 05 00 	mv	s0, a0
   1d570:	93 84 05 00 	mv	s1, a1
   1d574:	63 9c 06 26 	bnez	a3, 632
   1d578:	b7 3a 02 00 	lui	s5, 35
   1d57c:	13 09 06 00 	mv	s2, a2
   1d580:	13 8a 06 00 	mv	s4, a3
   1d584:	93 8a ca a0 	addi	s5, s5, -1524
   1d588:	63 f2 c5 14 	bgeu	a1, a2, 324
   1d58c:	b7 07 01 00 	lui	a5, 16
   1d590:	63 74 f6 12 	bgeu	a2, a5, 296
   1d594:	93 07 f0 0f 	addi	a5, zero, 255
   1d598:	63 f4 c7 00 	bgeu	a5, a2, 8
   1d59c:	13 0a 80 00 	addi	s4, zero, 8
   1d5a0:	b3 57 46 01 	srl	a5, a2, s4
   1d5a4:	b3 8a fa 00 	add	s5, s5, a5
   1d5a8:	03 c7 0a 00 	lbu	a4, 0(s5)
   1d5ac:	13 05 00 02 	addi	a0, zero, 32
   1d5b0:	33 07 47 01 	add	a4, a4, s4
   1d5b4:	33 0a e5 40 	sub	s4, a0, a4
   1d5b8:	63 0c 0a 00 	beqz	s4, 24
   1d5bc:	b3 95 49 01 	sll	a1, s3, s4
   1d5c0:	33 57 eb 00 	srl	a4, s6, a4
   1d5c4:	33 19 46 01 	sll	s2, a2, s4
   1d5c8:	b3 64 b7 00 	or	s1, a4, a1
   1d5cc:	33 14 4b 01 	sll	s0, s6, s4
   1d5d0:	93 5a 09 01 	srli	s5, s2, 16
   1d5d4:	93 85 0a 00 	mv	a1, s5
   1d5d8:	13 85 04 00 	mv	a0, s1
   1d5dc:	ef 40 00 76 	jal	18272
   1d5e0:	93 09 05 00 	mv	s3, a0
   1d5e4:	93 85 0a 00 	mv	a1, s5
   1d5e8:	13 1b 09 01 	slli	s6, s2, 16
   1d5ec:	13 85 04 00 	mv	a0, s1
   1d5f0:	ef 40 40 70 	jal	18180
   1d5f4:	13 5b 0b 01 	srli	s6, s6, 16
   1d5f8:	93 05 05 00 	mv	a1, a0
   1d5fc:	13 05 0b 00 	mv	a0, s6
   1d600:	ef 40 80 6c 	jal	18120
   1d604:	93 99 09 01 	slli	s3, s3, 16
   1d608:	93 57 04 01 	srli	a5, s0, 16
   1d60c:	b3 e7 f9 00 	or	a5, s3, a5
   1d610:	63 fa a7 00 	bgeu	a5, a0, 20
   1d614:	b3 87 27 01 	add	a5, a5, s2
   1d618:	63 e6 27 01 	bltu	a5, s2, 12
   1d61c:	63 f4 a7 00 	bgeu	a5, a0, 8
   1d620:	b3 87 27 01 	add	a5, a5, s2
   1d624:	b3 84 a7 40 	sub	s1, a5, a0
   1d628:	93 85 0a 00 	mv	a1, s5
   1d62c:	13 85 04 00 	mv	a0, s1
   1d630:	ef 40 c0 70 	jal	18188
   1d634:	93 09 05 00 	mv	s3, a0
   1d638:	93 85 0a 00 	mv	a1, s5
   1d63c:	13 85 04 00 	mv	a0, s1
   1d640:	ef 40 40 6b 	jal	18100
   1d644:	13 14 04 01 	slli	s0, s0, 16
   1d648:	93 05 05 00 	mv	a1, a0
   1d64c:	93 99 09 01 	slli	s3, s3, 16
   1d650:	13 05 0b 00 	mv	a0, s6
   1d654:	13 54 04 01 	srli	s0, s0, 16
   1d658:	ef 40 00 67 	jal	18032
   1d65c:	33 e4 89 00 	or	s0, s3, s0
   1d660:	63 7a a4 00 	bgeu	s0, a0, 20
   1d664:	33 04 24 01 	add	s0, s0, s2
   1d668:	63 66 24 01 	bltu	s0, s2, 12
   1d66c:	63 74 a4 00 	bgeu	s0, a0, 8
   1d670:	33 04 24 01 	add	s0, s0, s2
   1d674:	33 04 a4 40 	sub	s0, s0, a0
   1d678:	33 55 44 01 	srl	a0, s0, s4
   1d67c:	93 05 00 00 	mv	a1, zero
   1d680:	83 20 c1 02 	lw	ra, 44(sp)
   1d684:	03 24 81 02 	lw	s0, 40(sp)
   1d688:	83 24 41 02 	lw	s1, 36(sp)
   1d68c:	03 29 01 02 	lw	s2, 32(sp)
   1d690:	83 29 c1 01 	lw	s3, 28(sp)
   1d694:	03 2a 81 01 	lw	s4, 24(sp)
   1d698:	83 2a 41 01 	lw	s5, 20(sp)
   1d69c:	03 2b 01 01 	lw	s6, 16(sp)
   1d6a0:	83 2b c1 00 	lw	s7, 12(sp)
   1d6a4:	03 2c 81 00 	lw	s8, 8(sp)
   1d6a8:	83 2c 41 00 	lw	s9, 4(sp)
   1d6ac:	03 2d 01 00 	lw	s10, 0(sp)
   1d6b0:	13 01 01 03 	addi	sp, sp, 48
   1d6b4:	67 80 00 00 	ret
   1d6b8:	b7 07 00 01 	lui	a5, 4096
   1d6bc:	13 0a 00 01 	addi	s4, zero, 16
   1d6c0:	e3 60 f6 ee 	bltu	a2, a5, -288
   1d6c4:	13 0a 80 01 	addi	s4, zero, 24
   1d6c8:	6f f0 9f ed 	j	-296
   1d6cc:	63 1a 06 00 	bnez	a2, 20
   1d6d0:	93 05 00 00 	mv	a1, zero
   1d6d4:	13 05 10 00 	addi	a0, zero, 1
   1d6d8:	ef 40 c0 61 	jal	17948
   1d6dc:	13 09 05 00 	mv	s2, a0
   1d6e0:	b7 07 01 00 	lui	a5, 16
   1d6e4:	63 7a f9 0e 	bgeu	s2, a5, 244
   1d6e8:	93 07 f0 0f 	addi	a5, zero, 255
   1d6ec:	63 f4 27 01 	bgeu	a5, s2, 8
   1d6f0:	13 0a 80 00 	addi	s4, zero, 8
   1d6f4:	b3 57 49 01 	srl	a5, s2, s4
   1d6f8:	b3 8a fa 00 	add	s5, s5, a5
   1d6fc:	03 c7 0a 00 	lbu	a4, 0(s5)
   1d700:	13 05 00 02 	addi	a0, zero, 32
   1d704:	b3 84 29 41 	sub	s1, s3, s2
   1d708:	33 07 47 01 	add	a4, a4, s4
   1d70c:	33 0a e5 40 	sub	s4, a0, a4
   1d710:	e3 00 0a ec 	beqz	s4, -320
   1d714:	33 19 49 01 	sll	s2, s2, s4
   1d718:	b3 da e9 00 	srl	s5, s3, a4
   1d71c:	b3 95 49 01 	sll	a1, s3, s4
   1d720:	33 57 eb 00 	srl	a4, s6, a4
   1d724:	93 54 09 01 	srli	s1, s2, 16
   1d728:	b3 6b b7 00 	or	s7, a4, a1
   1d72c:	13 85 0a 00 	mv	a0, s5
   1d730:	93 85 04 00 	mv	a1, s1
   1d734:	ef 40 80 60 	jal	17928
   1d738:	93 09 05 00 	mv	s3, a0
   1d73c:	93 85 04 00 	mv	a1, s1
   1d740:	33 14 4b 01 	sll	s0, s6, s4
   1d744:	13 85 0a 00 	mv	a0, s5
   1d748:	13 1b 09 01 	slli	s6, s2, 16
   1d74c:	ef 40 80 5a 	jal	17832
   1d750:	13 5b 0b 01 	srli	s6, s6, 16
   1d754:	93 05 05 00 	mv	a1, a0
   1d758:	13 05 0b 00 	mv	a0, s6
   1d75c:	ef 40 c0 56 	jal	17772
   1d760:	93 99 09 01 	slli	s3, s3, 16
   1d764:	93 d7 0b 01 	srli	a5, s7, 16
   1d768:	b3 e7 f9 00 	or	a5, s3, a5
   1d76c:	63 fa a7 00 	bgeu	a5, a0, 20
   1d770:	b3 87 27 01 	add	a5, a5, s2
   1d774:	63 e6 27 01 	bltu	a5, s2, 12
   1d778:	63 f4 a7 00 	bgeu	a5, a0, 8
   1d77c:	b3 87 27 01 	add	a5, a5, s2
   1d780:	b3 8a a7 40 	sub	s5, a5, a0
   1d784:	93 85 04 00 	mv	a1, s1
   1d788:	13 85 0a 00 	mv	a0, s5
   1d78c:	ef 40 00 5b 	jal	17840
   1d790:	93 09 05 00 	mv	s3, a0
   1d794:	93 85 04 00 	mv	a1, s1
   1d798:	13 85 0a 00 	mv	a0, s5
   1d79c:	ef 40 80 55 	jal	17752
   1d7a0:	93 05 05 00 	mv	a1, a0
   1d7a4:	13 05 0b 00 	mv	a0, s6
   1d7a8:	ef 40 00 52 	jal	17696
   1d7ac:	93 95 0b 01 	slli	a1, s7, 16
   1d7b0:	93 99 09 01 	slli	s3, s3, 16
   1d7b4:	93 d5 05 01 	srli	a1, a1, 16
   1d7b8:	b3 e5 b9 00 	or	a1, s3, a1
   1d7bc:	63 fa a5 00 	bgeu	a1, a0, 20
   1d7c0:	b3 85 25 01 	add	a1, a1, s2
   1d7c4:	63 e6 25 01 	bltu	a1, s2, 12
   1d7c8:	63 f4 a5 00 	bgeu	a1, a0, 8
   1d7cc:	b3 85 25 01 	add	a1, a1, s2
   1d7d0:	b3 84 a5 40 	sub	s1, a1, a0
   1d7d4:	6f f0 df df 	j	-516
   1d7d8:	b7 07 00 01 	lui	a5, 4096
   1d7dc:	13 0a 00 01 	addi	s4, zero, 16
   1d7e0:	e3 6a f9 f0 	bltu	s2, a5, -236
   1d7e4:	13 0a 80 01 	addi	s4, zero, 24
   1d7e8:	6f f0 df f0 	j	-244
   1d7ec:	e3 ea d5 e8 	bltu	a1, a3, -364
   1d7f0:	b7 07 01 00 	lui	a5, 16
   1d7f4:	63 fc f6 04 	bgeu	a3, a5, 88
   1d7f8:	93 0a f0 0f 	addi	s5, zero, 255
   1d7fc:	33 b5 da 00 	sltu	a0, s5, a3
   1d800:	13 15 35 00 	slli	a0, a0, 3
   1d804:	37 37 02 00 	lui	a4, 35
   1d808:	b3 d7 a6 00 	srl	a5, a3, a0
   1d80c:	13 07 c7 a0 	addi	a4, a4, -1524
   1d810:	b3 87 e7 00 	add	a5, a5, a4
   1d814:	83 ca 07 00 	lbu	s5, 0(a5)
   1d818:	93 05 00 02 	addi	a1, zero, 32
   1d81c:	b3 8a aa 00 	add	s5, s5, a0
   1d820:	33 8a 55 41 	sub	s4, a1, s5
   1d824:	63 1e 0a 02 	bnez	s4, 60
   1d828:	63 e4 36 01 	bltu	a3, s3, 8
   1d82c:	63 6a cb 00 	bltu	s6, a2, 20
   1d830:	33 04 cb 40 	sub	s0, s6, a2
   1d834:	b3 86 d9 40 	sub	a3, s3, a3
   1d838:	33 3b 8b 00 	sltu	s6, s6, s0
   1d83c:	b3 84 66 41 	sub	s1, a3, s6
   1d840:	13 05 04 00 	mv	a0, s0
   1d844:	93 85 04 00 	mv	a1, s1
   1d848:	6f f0 9f e3 	j	-456
   1d84c:	b7 07 00 01 	lui	a5, 4096
   1d850:	13 05 00 01 	addi	a0, zero, 16
   1d854:	e3 e8 f6 fa 	bltu	a3, a5, -80
   1d858:	13 05 80 01 	addi	a0, zero, 24
   1d85c:	6f f0 9f fa 	j	-88
   1d860:	b3 96 46 01 	sll	a3, a3, s4
   1d864:	b3 57 56 01 	srl	a5, a2, s5
   1d868:	b3 eb d7 00 	or	s7, a5, a3
   1d86c:	33 d4 59 01 	srl	s0, s3, s5
   1d870:	b3 95 49 01 	sll	a1, s3, s4
   1d874:	b3 54 5b 01 	srl	s1, s6, s5
   1d878:	13 dc 0b 01 	srli	s8, s7, 16
   1d87c:	b3 e4 b4 00 	or	s1, s1, a1
   1d880:	13 05 04 00 	mv	a0, s0
   1d884:	93 05 0c 00 	mv	a1, s8
   1d888:	33 1d 46 01 	sll	s10, a2, s4
   1d88c:	ef 40 00 4b 	jal	17584
   1d890:	93 09 05 00 	mv	s3, a0
   1d894:	93 05 0c 00 	mv	a1, s8
   1d898:	13 05 04 00 	mv	a0, s0
   1d89c:	93 9c 0b 01 	slli	s9, s7, 16
   1d8a0:	ef 40 40 45 	jal	17492
   1d8a4:	93 dc 0c 01 	srli	s9, s9, 16
   1d8a8:	13 04 05 00 	mv	s0, a0
   1d8ac:	93 05 05 00 	mv	a1, a0
   1d8b0:	13 85 0c 00 	mv	a0, s9
   1d8b4:	ef 40 40 41 	jal	17428
   1d8b8:	93 99 09 01 	slli	s3, s3, 16
   1d8bc:	13 d7 04 01 	srli	a4, s1, 16
   1d8c0:	33 e7 e9 00 	or	a4, s3, a4
   1d8c4:	33 1b 4b 01 	sll	s6, s6, s4
   1d8c8:	93 09 04 00 	mv	s3, s0
   1d8cc:	63 7e a7 00 	bgeu	a4, a0, 28
   1d8d0:	33 07 77 01 	add	a4, a4, s7
   1d8d4:	93 09 f4 ff 	addi	s3, s0, -1
   1d8d8:	63 68 77 01 	bltu	a4, s7, 16
   1d8dc:	63 76 a7 00 	bgeu	a4, a0, 12
   1d8e0:	93 09 e4 ff 	addi	s3, s0, -2
   1d8e4:	33 07 77 01 	add	a4, a4, s7
   1d8e8:	33 09 a7 40 	sub	s2, a4, a0
   1d8ec:	93 05 0c 00 	mv	a1, s8
   1d8f0:	13 05 09 00 	mv	a0, s2
   1d8f4:	ef 40 80 44 	jal	17480
   1d8f8:	13 04 05 00 	mv	s0, a0
   1d8fc:	93 05 0c 00 	mv	a1, s8
   1d900:	13 05 09 00 	mv	a0, s2
   1d904:	ef 40 00 3f 	jal	17392
   1d908:	93 05 05 00 	mv	a1, a0
   1d90c:	13 09 05 00 	mv	s2, a0
   1d910:	13 85 0c 00 	mv	a0, s9
   1d914:	ef 40 40 3b 	jal	17332
   1d918:	93 95 04 01 	slli	a1, s1, 16
   1d91c:	13 14 04 01 	slli	s0, s0, 16
   1d920:	93 d5 05 01 	srli	a1, a1, 16
   1d924:	b3 65 b4 00 	or	a1, s0, a1
   1d928:	93 07 09 00 	mv	a5, s2
   1d92c:	63 fe a5 00 	bgeu	a1, a0, 28
   1d930:	b3 85 75 01 	add	a1, a1, s7
   1d934:	93 07 f9 ff 	addi	a5, s2, -1
   1d938:	63 e8 75 01 	bltu	a1, s7, 16
   1d93c:	63 f6 a5 00 	bgeu	a1, a0, 12
   1d940:	93 07 e9 ff 	addi	a5, s2, -2
   1d944:	b3 85 75 01 	add	a1, a1, s7
   1d948:	37 0e 01 00 	lui	t3, 16
   1d94c:	93 99 09 01 	slli	s3, s3, 16
   1d950:	b3 e9 f9 00 	or	s3, s3, a5
   1d954:	13 08 fe ff 	addi	a6, t3, -1
   1d958:	33 f7 09 01 	and	a4, s3, a6
   1d95c:	33 78 0d 01 	and	a6, s10, a6
   1d960:	b3 84 a5 40 	sub	s1, a1, a0
   1d964:	93 d9 09 01 	srli	s3, s3, 16
   1d968:	93 58 0d 01 	srli	a7, s10, 16
   1d96c:	13 05 07 00 	mv	a0, a4
   1d970:	93 05 08 00 	mv	a1, a6
   1d974:	ef 40 40 35 	jal	17236
   1d978:	93 07 05 00 	mv	a5, a0
   1d97c:	93 85 08 00 	mv	a1, a7
   1d980:	13 05 07 00 	mv	a0, a4
   1d984:	ef 40 40 34 	jal	17220
   1d988:	13 03 05 00 	mv	t1, a0
   1d98c:	93 05 08 00 	mv	a1, a6
   1d990:	13 85 09 00 	mv	a0, s3
   1d994:	ef 40 40 33 	jal	17204
   1d998:	13 08 05 00 	mv	a6, a0
   1d99c:	93 85 08 00 	mv	a1, a7
   1d9a0:	13 85 09 00 	mv	a0, s3
   1d9a4:	ef 40 40 32 	jal	17188
   1d9a8:	13 d7 07 01 	srli	a4, a5, 16
   1d9ac:	33 03 03 01 	add	t1, t1, a6
   1d9b0:	33 07 67 00 	add	a4, a4, t1
   1d9b4:	63 74 07 01 	bgeu	a4, a6, 8
   1d9b8:	33 05 c5 01 	add	a0, a0, t3
   1d9bc:	b7 06 01 00 	lui	a3, 16
   1d9c0:	93 86 f6 ff 	addi	a3, a3, -1
   1d9c4:	93 55 07 01 	srli	a1, a4, 16
   1d9c8:	33 77 d7 00 	and	a4, a4, a3
   1d9cc:	13 17 07 01 	slli	a4, a4, 16
   1d9d0:	b3 f7 d7 00 	and	a5, a5, a3
   1d9d4:	b3 85 a5 00 	add	a1, a1, a0
   1d9d8:	b3 07 f7 00 	add	a5, a4, a5
   1d9dc:	63 e6 b4 00 	bltu	s1, a1, 12
   1d9e0:	63 9e b4 00 	bne	s1, a1, 28
   1d9e4:	63 7c fb 00 	bgeu	s6, a5, 24
   1d9e8:	33 86 a7 41 	sub	a2, a5, s10
   1d9ec:	b3 b7 c7 00 	sltu	a5, a5, a2
   1d9f0:	b3 87 77 01 	add	a5, a5, s7
   1d9f4:	b3 85 f5 40 	sub	a1, a1, a5
   1d9f8:	93 07 06 00 	mv	a5, a2
   1d9fc:	b3 07 fb 40 	sub	a5, s6, a5
   1da00:	33 3b fb 00 	sltu	s6, s6, a5
   1da04:	b3 85 b4 40 	sub	a1, s1, a1
   1da08:	b3 85 65 41 	sub	a1, a1, s6
   1da0c:	33 94 55 01 	sll	s0, a1, s5
   1da10:	b3 d7 47 01 	srl	a5, a5, s4
   1da14:	33 65 f4 00 	or	a0, s0, a5
   1da18:	b3 d5 45 01 	srl	a1, a1, s4
   1da1c:	6f f0 5f c6 	j	-924

__divdf3:
   1da20:	13 01 01 fb 	addi	sp, sp, -80
   1da24:	23 2e 31 03 	sw	s3, 60(sp)
   1da28:	93 d9 45 01 	srli	s3, a1, 20
   1da2c:	23 22 91 04 	sw	s1, 68(sp)
   1da30:	23 20 21 05 	sw	s2, 64(sp)
   1da34:	23 2a 51 03 	sw	s5, 52(sp)
   1da38:	23 28 61 03 	sw	s6, 48(sp)
   1da3c:	23 26 71 03 	sw	s7, 44(sp)
   1da40:	93 94 c5 00 	slli	s1, a1, 12
   1da44:	23 26 11 04 	sw	ra, 76(sp)
   1da48:	23 24 81 04 	sw	s0, 72(sp)
   1da4c:	23 2c 41 03 	sw	s4, 56(sp)
   1da50:	23 24 81 03 	sw	s8, 40(sp)
   1da54:	23 22 91 03 	sw	s9, 36(sp)
   1da58:	23 20 a1 03 	sw	s10, 32(sp)
   1da5c:	23 2e b1 01 	sw	s11, 28(sp)
   1da60:	93 f9 f9 7f 	andi	s3, s3, 2047
   1da64:	13 09 05 00 	mv	s2, a0
   1da68:	93 0b 06 00 	mv	s7, a2
   1da6c:	13 8b 06 00 	mv	s6, a3
   1da70:	93 d4 c4 00 	srli	s1, s1, 12
   1da74:	93 da f5 01 	srli	s5, a1, 31
   1da78:	63 80 09 0a 	beqz	s3, 160
   1da7c:	93 07 f0 7f 	addi	a5, zero, 2047
   1da80:	63 8e f9 0e 	beq	s3, a5, 252
   1da84:	93 5c d5 01 	srli	s9, a0, 29
   1da88:	93 94 34 00 	slli	s1, s1, 3
   1da8c:	b3 e4 9c 00 	or	s1, s9, s1
   1da90:	b7 0c 80 00 	lui	s9, 2048
   1da94:	b3 ec 94 01 	or	s9, s1, s9
   1da98:	13 14 35 00 	slli	s0, a0, 3
   1da9c:	13 8a 19 c0 	addi	s4, s3, -1023
   1daa0:	13 0c 00 00 	mv	s8, zero
   1daa4:	13 55 4b 01 	srli	a0, s6, 20
   1daa8:	13 19 cb 00 	slli	s2, s6, 12
   1daac:	93 79 f5 7f 	andi	s3, a0, 2047
   1dab0:	13 59 c9 00 	srli	s2, s2, 12
   1dab4:	13 5b fb 01 	srli	s6, s6, 31
   1dab8:	63 80 09 10 	beqz	s3, 256
   1dabc:	93 07 f0 7f 	addi	a5, zero, 2047
   1dac0:	63 80 f9 16 	beq	s3, a5, 352
   1dac4:	13 15 39 00 	slli	a0, s2, 3
   1dac8:	93 d7 db 01 	srli	a5, s7, 29
   1dacc:	33 e5 a7 00 	or	a0, a5, a0
   1dad0:	37 09 80 00 	lui	s2, 2048
   1dad4:	33 69 25 01 	or	s2, a0, s2
   1dad8:	13 98 3b 00 	slli	a6, s7, 3
   1dadc:	13 85 19 c0 	addi	a0, s3, -1023
   1dae0:	93 07 00 00 	mv	a5, zero
   1dae4:	13 17 2c 00 	slli	a4, s8, 2
   1dae8:	33 67 f7 00 	or	a4, a4, a5
   1daec:	13 07 f7 ff 	addi	a4, a4, -1
   1daf0:	93 06 e0 00 	addi	a3, zero, 14
   1daf4:	b3 c4 6a 01 	xor	s1, s5, s6
   1daf8:	b3 09 aa 40 	sub	s3, s4, a0
   1dafc:	63 ee e6 14 	bltu	a3, a4, 348
   1db00:	b7 36 02 00 	lui	a3, 35
   1db04:	13 17 27 00 	slli	a4, a4, 2
   1db08:	93 86 86 95 	addi	a3, a3, -1704
   1db0c:	33 07 d7 00 	add	a4, a4, a3
   1db10:	03 27 07 00 	lw	a4, 0(a4)
   1db14:	67 00 07 00 	jr	a4
   1db18:	b3 ec a4 00 	or	s9, s1, a0
   1db1c:	63 8e 0c 06 	beqz	s9, 124
   1db20:	63 80 04 04 	beqz	s1, 64
   1db24:	13 85 04 00 	mv	a0, s1
   1db28:	ef 40 80 27 	jal	17016
   1db2c:	93 07 55 ff 	addi	a5, a0, -11
   1db30:	13 07 c0 01 	addi	a4, zero, 28
   1db34:	63 4c f7 02 	blt	a4, a5, 56
   1db38:	93 0c d0 01 	addi	s9, zero, 29
   1db3c:	13 04 85 ff 	addi	s0, a0, -8
   1db40:	b3 8c fc 40 	sub	s9, s9, a5
   1db44:	b3 94 84 00 	sll	s1, s1, s0
   1db48:	b3 5c 99 01 	srl	s9, s2, s9
   1db4c:	b3 ec 9c 00 	or	s9, s9, s1
   1db50:	33 14 89 00 	sll	s0, s2, s0
   1db54:	93 09 d0 c0 	addi	s3, zero, -1011
   1db58:	33 8a a9 40 	sub	s4, s3, a0
   1db5c:	6f f0 5f f4 	j	-188
   1db60:	ef 40 00 24 	jal	16960
   1db64:	13 05 05 02 	addi	a0, a0, 32
   1db68:	6f f0 5f fc 	j	-60
   1db6c:	93 04 85 fd 	addi	s1, a0, -40
   1db70:	b3 1c 99 00 	sll	s9, s2, s1
   1db74:	13 04 00 00 	mv	s0, zero
   1db78:	6f f0 df fd 	j	-36
   1db7c:	b3 ec a4 00 	or	s9, s1, a0
   1db80:	63 84 0c 02 	beqz	s9, 40
   1db84:	13 04 05 00 	mv	s0, a0
   1db88:	93 8c 04 00 	mv	s9, s1
   1db8c:	13 0a f0 7f 	addi	s4, zero, 2047
   1db90:	13 0c 30 00 	addi	s8, zero, 3
   1db94:	6f f0 1f f1 	j	-240
   1db98:	13 04 00 00 	mv	s0, zero
   1db9c:	13 0a 00 00 	mv	s4, zero
   1dba0:	13 0c 10 00 	addi	s8, zero, 1
   1dba4:	6f f0 1f f0 	j	-256
   1dba8:	13 04 00 00 	mv	s0, zero
   1dbac:	13 0a f0 7f 	addi	s4, zero, 2047
   1dbb0:	13 0c 20 00 	addi	s8, zero, 2
   1dbb4:	6f f0 1f ef 	j	-272
   1dbb8:	33 68 79 01 	or	a6, s2, s7
   1dbbc:	63 0e 08 06 	beqz	a6, 124
   1dbc0:	63 00 09 04 	beqz	s2, 64
   1dbc4:	13 05 09 00 	mv	a0, s2
   1dbc8:	ef 40 80 1d 	jal	16856
   1dbcc:	93 07 55 ff 	addi	a5, a0, -11
   1dbd0:	13 07 c0 01 	addi	a4, zero, 28
   1dbd4:	63 4e f7 02 	blt	a4, a5, 60
   1dbd8:	13 07 d0 01 	addi	a4, zero, 29
   1dbdc:	13 08 85 ff 	addi	a6, a0, -8
   1dbe0:	33 07 f7 40 	sub	a4, a4, a5
   1dbe4:	33 19 09 01 	sll	s2, s2, a6
   1dbe8:	33 d7 eb 00 	srl	a4, s7, a4
   1dbec:	33 69 27 01 	or	s2, a4, s2
   1dbf0:	33 98 0b 01 	sll	a6, s7, a6
   1dbf4:	13 07 d0 c0 	addi	a4, zero, -1011
   1dbf8:	33 05 a7 40 	sub	a0, a4, a0
   1dbfc:	6f f0 5f ee 	j	-284
   1dc00:	13 85 0b 00 	mv	a0, s7
   1dc04:	ef 40 c0 19 	jal	16796
   1dc08:	13 05 05 02 	addi	a0, a0, 32
   1dc0c:	6f f0 1f fc 	j	-64
   1dc10:	13 09 85 fd 	addi	s2, a0, -40
   1dc14:	33 99 2b 01 	sll	s2, s7, s2
   1dc18:	13 08 00 00 	mv	a6, zero
   1dc1c:	6f f0 9f fd 	j	-40
   1dc20:	33 68 79 01 	or	a6, s2, s7
   1dc24:	63 02 08 02 	beqz	a6, 36
   1dc28:	13 88 0b 00 	mv	a6, s7
   1dc2c:	13 05 f0 7f 	addi	a0, zero, 2047
   1dc30:	93 07 30 00 	addi	a5, zero, 3
   1dc34:	6f f0 1f eb 	j	-336
   1dc38:	13 09 00 00 	mv	s2, zero
   1dc3c:	13 05 00 00 	mv	a0, zero
   1dc40:	93 07 10 00 	addi	a5, zero, 1
   1dc44:	6f f0 1f ea 	j	-352
   1dc48:	13 09 00 00 	mv	s2, zero
   1dc4c:	13 05 f0 7f 	addi	a0, zero, 2047
   1dc50:	93 07 20 00 	addi	a5, zero, 2
   1dc54:	6f f0 1f e9 	j	-368
   1dc58:	63 66 99 01 	bltu	s2, s9, 12
   1dc5c:	63 92 2c 45 	bne	s9, s2, 1092
   1dc60:	63 60 04 45 	bltu	s0, a6, 1088
   1dc64:	13 97 fc 01 	slli	a4, s9, 31
   1dc68:	93 57 14 00 	srli	a5, s0, 1
   1dc6c:	93 1d f4 01 	slli	s11, s0, 31
   1dc70:	93 dc 1c 00 	srli	s9, s9, 1
   1dc74:	33 64 f7 00 	or	s0, a4, a5
   1dc78:	93 5b 88 01 	srli	s7, a6, 24
   1dc7c:	13 15 89 00 	slli	a0, s2, 8
   1dc80:	b3 eb ab 00 	or	s7, s7, a0
   1dc84:	93 da 0b 01 	srli	s5, s7, 16
   1dc88:	93 85 0a 00 	mv	a1, s5
   1dc8c:	13 9b 0b 01 	slli	s6, s7, 16
   1dc90:	13 85 0c 00 	mv	a0, s9
   1dc94:	13 1c 88 00 	slli	s8, a6, 8
   1dc98:	13 5b 0b 01 	srli	s6, s6, 16
   1dc9c:	ef 40 80 05 	jal	16472
   1dca0:	93 05 05 00 	mv	a1, a0
   1dca4:	13 0d 05 00 	mv	s10, a0
   1dca8:	13 05 0b 00 	mv	a0, s6
   1dcac:	ef 40 c0 01 	jal	16412
   1dcb0:	13 09 05 00 	mv	s2, a0
   1dcb4:	93 85 0a 00 	mv	a1, s5
   1dcb8:	13 85 0c 00 	mv	a0, s9
   1dcbc:	ef 40 00 08 	jal	16512
   1dcc0:	13 15 05 01 	slli	a0, a0, 16
   1dcc4:	93 57 04 01 	srli	a5, s0, 16
   1dcc8:	33 e5 a7 00 	or	a0, a5, a0
   1dccc:	13 0a 0d 00 	mv	s4, s10
   1dcd0:	63 7e 25 01 	bgeu	a0, s2, 28
   1dcd4:	33 05 75 01 	add	a0, a0, s7
   1dcd8:	13 0a fd ff 	addi	s4, s10, -1
   1dcdc:	63 68 75 01 	bltu	a0, s7, 16
   1dce0:	63 76 25 01 	bgeu	a0, s2, 12
   1dce4:	13 0a ed ff 	addi	s4, s10, -2
   1dce8:	33 05 75 01 	add	a0, a0, s7
   1dcec:	33 09 25 41 	sub	s2, a0, s2
   1dcf0:	93 85 0a 00 	mv	a1, s5
   1dcf4:	13 05 09 00 	mv	a0, s2
   1dcf8:	ef 30 d0 7f 	jal	16380
   1dcfc:	93 05 05 00 	mv	a1, a0
   1dd00:	13 0d 05 00 	mv	s10, a0
   1dd04:	13 05 0b 00 	mv	a0, s6
   1dd08:	ef 30 10 7c 	jal	16320
   1dd0c:	93 0c 05 00 	mv	s9, a0
   1dd10:	93 85 0a 00 	mv	a1, s5
   1dd14:	13 05 09 00 	mv	a0, s2
   1dd18:	ef 40 40 02 	jal	16420
   1dd1c:	13 14 04 01 	slli	s0, s0, 16
   1dd20:	13 15 05 01 	slli	a0, a0, 16
   1dd24:	13 54 04 01 	srli	s0, s0, 16
   1dd28:	33 64 a4 00 	or	s0, s0, a0
   1dd2c:	13 07 0d 00 	mv	a4, s10
   1dd30:	63 7e 94 01 	bgeu	s0, s9, 28
   1dd34:	33 04 74 01 	add	s0, s0, s7
   1dd38:	13 07 fd ff 	addi	a4, s10, -1
   1dd3c:	63 68 74 01 	bltu	s0, s7, 16
   1dd40:	63 76 94 01 	bgeu	s0, s9, 12
   1dd44:	13 07 ed ff 	addi	a4, s10, -2
   1dd48:	33 04 74 01 	add	s0, s0, s7
   1dd4c:	93 17 0a 01 	slli	a5, s4, 16
   1dd50:	37 0e 01 00 	lui	t3, 16
   1dd54:	b3 e7 e7 00 	or	a5, a5, a4
   1dd58:	33 08 94 41 	sub	a6, s0, s9
   1dd5c:	93 0c fe ff 	addi	s9, t3, -1
   1dd60:	33 f3 97 01 	and	t1, a5, s9
   1dd64:	b3 7c 9c 01 	and	s9, s8, s9
   1dd68:	13 d7 07 01 	srli	a4, a5, 16
   1dd6c:	13 5d 0c 01 	srli	s10, s8, 16
   1dd70:	13 05 03 00 	mv	a0, t1
   1dd74:	93 85 0c 00 	mv	a1, s9
   1dd78:	ef 30 10 75 	jal	16208
   1dd7c:	93 08 05 00 	mv	a7, a0
   1dd80:	93 05 0d 00 	mv	a1, s10
   1dd84:	13 05 03 00 	mv	a0, t1
   1dd88:	ef 30 10 74 	jal	16192
   1dd8c:	13 03 05 00 	mv	t1, a0
   1dd90:	93 85 0c 00 	mv	a1, s9
   1dd94:	13 05 07 00 	mv	a0, a4
   1dd98:	ef 30 10 73 	jal	16176
   1dd9c:	93 0e 05 00 	mv	t4, a0
   1dda0:	93 05 0d 00 	mv	a1, s10
   1dda4:	13 05 07 00 	mv	a0, a4
   1dda8:	ef 30 10 72 	jal	16160
   1ddac:	13 d7 08 01 	srli	a4, a7, 16
   1ddb0:	33 03 d3 01 	add	t1, t1, t4
   1ddb4:	33 07 67 00 	add	a4, a4, t1
   1ddb8:	63 74 d7 01 	bgeu	a4, t4, 8
   1ddbc:	33 05 c5 01 	add	a0, a0, t3
   1ddc0:	13 54 07 01 	srli	s0, a4, 16
   1ddc4:	33 04 a4 00 	add	s0, s0, a0
   1ddc8:	37 05 01 00 	lui	a0, 16
   1ddcc:	13 05 f5 ff 	addi	a0, a0, -1
   1ddd0:	33 7a a7 00 	and	s4, a4, a0
   1ddd4:	13 1a 0a 01 	slli	s4, s4, 16
   1ddd8:	b3 f8 a8 00 	and	a7, a7, a0
   1dddc:	33 0a 1a 01 	add	s4, s4, a7
   1dde0:	63 68 88 00 	bltu	a6, s0, 16
   1dde4:	13 89 07 00 	mv	s2, a5
   1dde8:	63 14 88 04 	bne	a6, s0, 72
   1ddec:	63 f2 4d 05 	bgeu	s11, s4, 68
   1ddf0:	b3 8d 8d 01 	add	s11, s11, s8
   1ddf4:	33 b7 8d 01 	sltu	a4, s11, s8
   1ddf8:	33 07 77 01 	add	a4, a4, s7
   1ddfc:	33 08 e8 00 	add	a6, a6, a4
   1de00:	13 89 f7 ff 	addi	s2, a5, -1
   1de04:	63 e6 0b 01 	bltu	s7, a6, 12
   1de08:	63 94 0b 03 	bne	s7, a6, 40
   1de0c:	63 e2 8d 03 	bltu	s11, s8, 36
   1de10:	63 66 88 00 	bltu	a6, s0, 12
   1de14:	63 1e 04 01 	bne	s0, a6, 28
   1de18:	63 fc 4d 01 	bgeu	s11, s4, 24
   1de1c:	b3 8d 8d 01 	add	s11, s11, s8
   1de20:	13 89 e7 ff 	addi	s2, a5, -2
   1de24:	b3 b7 8d 01 	sltu	a5, s11, s8
   1de28:	b3 87 77 01 	add	a5, a5, s7
   1de2c:	33 08 f8 00 	add	a6, a6, a5
   1de30:	33 8a 4d 41 	sub	s4, s11, s4
   1de34:	33 04 88 40 	sub	s0, a6, s0
   1de38:	b3 b7 4d 01 	sltu	a5, s11, s4
   1de3c:	33 04 f4 40 	sub	s0, s0, a5
   1de40:	13 08 f0 ff 	addi	a6, zero, -1
   1de44:	63 80 8b 1a 	beq	s7, s0, 416
   1de48:	93 85 0a 00 	mv	a1, s5
   1de4c:	13 05 04 00 	mv	a0, s0
   1de50:	ef 30 50 6a 	jal	16036
   1de54:	93 05 05 00 	mv	a1, a0
   1de58:	23 26 a1 00 	sw	a0, 12(sp)
   1de5c:	13 05 0b 00 	mv	a0, s6
   1de60:	ef 30 90 66 	jal	15976
   1de64:	23 24 a1 00 	sw	a0, 8(sp)
   1de68:	93 85 0a 00 	mv	a1, s5
   1de6c:	13 05 04 00 	mv	a0, s0
   1de70:	ef 30 d0 6c 	jal	16076
   1de74:	83 26 c1 00 	lw	a3, 12(sp)
   1de78:	03 27 81 00 	lw	a4, 8(sp)
   1de7c:	13 15 05 01 	slli	a0, a0, 16
   1de80:	93 57 0a 01 	srli	a5, s4, 16
   1de84:	33 e5 a7 00 	or	a0, a5, a0
   1de88:	93 8d 06 00 	mv	s11, a3
   1de8c:	63 7e e5 00 	bgeu	a0, a4, 28
   1de90:	33 05 75 01 	add	a0, a0, s7
   1de94:	93 8d f6 ff 	addi	s11, a3, -1
   1de98:	63 68 75 01 	bltu	a0, s7, 16
   1de9c:	63 76 e5 00 	bgeu	a0, a4, 12
   1dea0:	93 8d e6 ff 	addi	s11, a3, -2
   1dea4:	33 05 75 01 	add	a0, a0, s7
   1dea8:	33 04 e5 40 	sub	s0, a0, a4
   1deac:	93 85 0a 00 	mv	a1, s5
   1deb0:	13 05 04 00 	mv	a0, s0
   1deb4:	ef 30 10 64 	jal	15936
   1deb8:	93 05 05 00 	mv	a1, a0
   1debc:	23 24 a1 00 	sw	a0, 8(sp)
   1dec0:	13 05 0b 00 	mv	a0, s6
   1dec4:	ef 30 50 60 	jal	15876
   1dec8:	13 0b 05 00 	mv	s6, a0
   1decc:	93 85 0a 00 	mv	a1, s5
   1ded0:	13 05 04 00 	mv	a0, s0
   1ded4:	ef 30 90 66 	jal	15976
   1ded8:	13 1a 0a 01 	slli	s4, s4, 16
   1dedc:	03 27 81 00 	lw	a4, 8(sp)
   1dee0:	13 15 05 01 	slli	a0, a0, 16
   1dee4:	13 5a 0a 01 	srli	s4, s4, 16
   1dee8:	33 65 aa 00 	or	a0, s4, a0
   1deec:	93 07 07 00 	mv	a5, a4
   1def0:	63 7e 65 01 	bgeu	a0, s6, 28
   1def4:	33 05 75 01 	add	a0, a0, s7
   1def8:	93 07 f7 ff 	addi	a5, a4, -1
   1defc:	63 68 75 01 	bltu	a0, s7, 16
   1df00:	63 76 65 01 	bgeu	a0, s6, 12
   1df04:	93 07 e7 ff 	addi	a5, a4, -2
   1df08:	33 05 75 01 	add	a0, a0, s7
   1df0c:	93 98 0d 01 	slli	a7, s11, 16
   1df10:	b3 e8 f8 00 	or	a7, a7, a5
   1df14:	13 97 08 01 	slli	a4, a7, 16
   1df18:	13 57 07 01 	srli	a4, a4, 16
   1df1c:	33 03 65 41 	sub	t1, a0, s6
   1df20:	93 d7 08 01 	srli	a5, a7, 16
   1df24:	13 05 07 00 	mv	a0, a4
   1df28:	93 85 0c 00 	mv	a1, s9
   1df2c:	ef 30 d0 59 	jal	15772
   1df30:	13 08 05 00 	mv	a6, a0
   1df34:	93 05 0d 00 	mv	a1, s10
   1df38:	13 05 07 00 	mv	a0, a4
   1df3c:	ef 30 d0 58 	jal	15756
   1df40:	13 07 05 00 	mv	a4, a0
   1df44:	93 85 0c 00 	mv	a1, s9
   1df48:	13 85 07 00 	mv	a0, a5
   1df4c:	ef 30 d0 57 	jal	15740
   1df50:	13 0e 05 00 	mv	t3, a0
   1df54:	93 05 0d 00 	mv	a1, s10
   1df58:	13 85 07 00 	mv	a0, a5
   1df5c:	ef 30 d0 56 	jal	15724
   1df60:	93 57 08 01 	srli	a5, a6, 16
   1df64:	33 07 c7 01 	add	a4, a4, t3
   1df68:	b3 87 e7 00 	add	a5, a5, a4
   1df6c:	63 f6 c7 01 	bgeu	a5, t3, 12
   1df70:	37 07 01 00 	lui	a4, 16
   1df74:	33 05 e5 00 	add	a0, a0, a4
   1df78:	37 06 01 00 	lui	a2, 16
   1df7c:	13 06 f6 ff 	addi	a2, a2, -1
   1df80:	93 d6 07 01 	srli	a3, a5, 16
   1df84:	33 f7 c7 00 	and	a4, a5, a2
   1df88:	13 17 07 01 	slli	a4, a4, 16
   1df8c:	33 78 c8 00 	and	a6, a6, a2
   1df90:	b3 86 a6 00 	add	a3, a3, a0
   1df94:	33 07 07 01 	add	a4, a4, a6
   1df98:	63 68 d3 00 	bltu	t1, a3, 16
   1df9c:	63 14 d3 24 	bne	t1, a3, 584
   1dfa0:	13 88 08 00 	mv	a6, a7
   1dfa4:	63 00 07 04 	beqz	a4, 64
   1dfa8:	33 85 6b 00 	add	a0, s7, t1
   1dfac:	13 88 f8 ff 	addi	a6, a7, -1
   1dfb0:	63 64 75 03 	bltu	a0, s7, 40
   1dfb4:	63 66 d5 00 	bltu	a0, a3, 12
   1dfb8:	63 14 d5 22 	bne	a0, a3, 552
   1dfbc:	63 70 ec 02 	bgeu	s8, a4, 32
   1dfc0:	93 17 1c 00 	slli	a5, s8, 1
   1dfc4:	33 bc 87 01 	sltu	s8, a5, s8
   1dfc8:	b3 0b 7c 01 	add	s7, s8, s7
   1dfcc:	13 88 e8 ff 	addi	a6, a7, -2
   1dfd0:	33 05 75 01 	add	a0, a0, s7
   1dfd4:	13 8c 07 00 	mv	s8, a5
   1dfd8:	63 14 d5 00 	bne	a0, a3, 8
   1dfdc:	63 04 ec 00 	beq	s8, a4, 8
   1dfe0:	13 68 18 00 	ori	a6, a6, 1
   1dfe4:	13 87 f9 3f 	addi	a4, s3, 1023
   1dfe8:	63 5a e0 10 	blez	a4, 276
   1dfec:	93 77 78 00 	andi	a5, a6, 7
   1dff0:	63 80 07 02 	beqz	a5, 32
   1dff4:	93 77 f8 00 	andi	a5, a6, 15
   1dff8:	93 06 40 00 	addi	a3, zero, 4
   1dffc:	63 8a d7 00 	beq	a5, a3, 20
   1e000:	93 06 48 00 	addi	a3, a6, 4
   1e004:	33 b8 06 01 	sltu	a6, a3, a6
   1e008:	33 09 09 01 	add	s2, s2, a6
   1e00c:	13 88 06 00 	mv	a6, a3
   1e010:	93 17 79 00 	slli	a5, s2, 7
   1e014:	63 da 07 00 	bgez	a5, 20
   1e018:	b7 07 00 ff 	lui	a5, 1044480
   1e01c:	93 87 f7 ff 	addi	a5, a5, -1
   1e020:	33 79 f9 00 	and	s2, s2, a5
   1e024:	13 87 09 40 	addi	a4, s3, 1024
   1e028:	93 07 e0 7f 	addi	a5, zero, 2046
   1e02c:	63 ca e7 18 	blt	a5, a4, 404
   1e030:	13 58 38 00 	srli	a6, a6, 3
   1e034:	93 17 d9 01 	slli	a5, s2, 29
   1e038:	b3 e7 07 01 	or	a5, a5, a6
   1e03c:	13 55 39 00 	srli	a0, s2, 3
   1e040:	13 15 c5 00 	slli	a0, a0, 12
   1e044:	13 77 f7 7f 	andi	a4, a4, 2047
   1e048:	13 17 47 01 	slli	a4, a4, 20
   1e04c:	83 20 c1 04 	lw	ra, 76(sp)
   1e050:	03 24 81 04 	lw	s0, 72(sp)
   1e054:	13 55 c5 00 	srli	a0, a0, 12
   1e058:	93 94 f4 01 	slli	s1, s1, 31
   1e05c:	33 65 e5 00 	or	a0, a0, a4
   1e060:	33 67 95 00 	or	a4, a0, s1
   1e064:	03 29 01 04 	lw	s2, 64(sp)
   1e068:	83 24 41 04 	lw	s1, 68(sp)
   1e06c:	83 29 c1 03 	lw	s3, 60(sp)
   1e070:	03 2a 81 03 	lw	s4, 56(sp)
   1e074:	83 2a 41 03 	lw	s5, 52(sp)
   1e078:	03 2b 01 03 	lw	s6, 48(sp)
   1e07c:	83 2b c1 02 	lw	s7, 44(sp)
   1e080:	03 2c 81 02 	lw	s8, 40(sp)
   1e084:	83 2c 41 02 	lw	s9, 36(sp)
   1e088:	03 2d 01 02 	lw	s10, 32(sp)
   1e08c:	83 2d c1 01 	lw	s11, 28(sp)
   1e090:	13 85 07 00 	mv	a0, a5
   1e094:	93 05 07 00 	mv	a1, a4
   1e098:	13 01 01 05 	addi	sp, sp, 80
   1e09c:	67 80 00 00 	ret
   1e0a0:	93 89 f9 ff 	addi	s3, s3, -1
   1e0a4:	93 0d 00 00 	mv	s11, zero
   1e0a8:	6f f0 1f bd 	j	-1072
   1e0ac:	93 84 0a 00 	mv	s1, s5
   1e0b0:	13 89 0c 00 	mv	s2, s9
   1e0b4:	13 08 04 00 	mv	a6, s0
   1e0b8:	93 07 0c 00 	mv	a5, s8
   1e0bc:	13 07 20 00 	addi	a4, zero, 2
   1e0c0:	63 80 e7 10 	beq	a5, a4, 256
   1e0c4:	13 07 30 00 	addi	a4, zero, 3
   1e0c8:	63 82 e7 0e 	beq	a5, a4, 228
   1e0cc:	13 07 10 00 	addi	a4, zero, 1
   1e0d0:	e3 9a e7 f0 	bne	a5, a4, -236
   1e0d4:	13 05 00 00 	mv	a0, zero
   1e0d8:	93 07 00 00 	mv	a5, zero
   1e0dc:	6f 00 40 09 	j	148
   1e0e0:	93 04 0b 00 	mv	s1, s6
   1e0e4:	6f f0 9f fd 	j	-40
   1e0e8:	37 09 08 00 	lui	s2, 128
   1e0ec:	13 08 00 00 	mv	a6, zero
   1e0f0:	93 04 00 00 	mv	s1, zero
   1e0f4:	93 07 30 00 	addi	a5, zero, 3
   1e0f8:	6f f0 5f fc 	j	-60
   1e0fc:	13 05 10 00 	addi	a0, zero, 1
   1e100:	33 05 e5 40 	sub	a0, a0, a4
   1e104:	93 07 80 03 	addi	a5, zero, 56
   1e108:	e3 c6 a7 fc 	blt	a5, a0, -52
   1e10c:	93 07 f0 01 	addi	a5, zero, 31
   1e110:	63 c4 a7 06 	blt	a5, a0, 104
   1e114:	93 89 e9 41 	addi	s3, s3, 1054
   1e118:	b3 17 39 01 	sll	a5, s2, s3
   1e11c:	33 57 a8 00 	srl	a4, a6, a0
   1e120:	b3 19 38 01 	sll	s3, a6, s3
   1e124:	b3 e7 e7 00 	or	a5, a5, a4
   1e128:	b3 39 30 01 	snez	s3, s3
   1e12c:	b3 e7 37 01 	or	a5, a5, s3
   1e130:	33 55 a9 00 	srl	a0, s2, a0
   1e134:	13 f7 77 00 	andi	a4, a5, 7
   1e138:	63 00 07 02 	beqz	a4, 32
   1e13c:	13 f7 f7 00 	andi	a4, a5, 15
   1e140:	93 06 40 00 	addi	a3, zero, 4
   1e144:	63 0a d7 00 	beq	a4, a3, 20
   1e148:	13 87 47 00 	addi	a4, a5, 4
   1e14c:	b3 37 f7 00 	sltu	a5, a4, a5
   1e150:	33 05 f5 00 	add	a0, a0, a5
   1e154:	93 07 07 00 	mv	a5, a4
   1e158:	13 17 85 00 	slli	a4, a0, 8
   1e15c:	63 4a 07 06 	bltz	a4, 116
   1e160:	13 17 d5 01 	slli	a4, a0, 29
   1e164:	93 d7 37 00 	srli	a5, a5, 3
   1e168:	b3 67 f7 00 	or	a5, a4, a5
   1e16c:	13 55 35 00 	srli	a0, a0, 3
   1e170:	13 07 00 00 	mv	a4, zero
   1e174:	6f f0 df ec 	j	-308
   1e178:	93 07 10 fe 	addi	a5, zero, -31
   1e17c:	b3 87 e7 40 	sub	a5, a5, a4
   1e180:	93 06 00 02 	addi	a3, zero, 32
   1e184:	b3 57 f9 00 	srl	a5, s2, a5
   1e188:	13 07 00 00 	mv	a4, zero
   1e18c:	63 06 d5 00 	beq	a0, a3, 12
   1e190:	93 89 e9 43 	addi	s3, s3, 1086
   1e194:	33 17 39 01 	sll	a4, s2, s3
   1e198:	33 68 07 01 	or	a6, a4, a6
   1e19c:	33 38 00 01 	snez	a6, a6
   1e1a0:	b3 e7 07 01 	or	a5, a5, a6
   1e1a4:	13 05 00 00 	mv	a0, zero
   1e1a8:	6f f0 df f8 	j	-116
   1e1ac:	37 05 08 00 	lui	a0, 128
   1e1b0:	93 07 00 00 	mv	a5, zero
   1e1b4:	13 07 f0 7f 	addi	a4, zero, 2047
   1e1b8:	93 04 00 00 	mv	s1, zero
   1e1bc:	6f f0 5f e8 	j	-380
   1e1c0:	13 05 00 00 	mv	a0, zero
   1e1c4:	93 07 00 00 	mv	a5, zero
   1e1c8:	13 07 f0 7f 	addi	a4, zero, 2047
   1e1cc:	6f f0 5f e7 	j	-396
   1e1d0:	13 05 00 00 	mv	a0, zero
   1e1d4:	93 07 00 00 	mv	a5, zero
   1e1d8:	13 07 10 00 	addi	a4, zero, 1
   1e1dc:	6f f0 5f e6 	j	-412
   1e1e0:	93 08 08 00 	mv	a7, a6
   1e1e4:	13 88 08 00 	mv	a6, a7
   1e1e8:	6f f0 9f df 	j	-520

__muldf3:
   1e1ec:	13 01 01 fd 	addi	sp, sp, -48
   1e1f0:	23 2e 31 01 	sw	s3, 28(sp)
   1e1f4:	93 d9 45 01 	srli	s3, a1, 20
   1e1f8:	23 24 81 02 	sw	s0, 40(sp)
   1e1fc:	23 22 91 02 	sw	s1, 36(sp)
   1e200:	23 2c 41 01 	sw	s4, 24(sp)
   1e204:	23 2a 51 01 	sw	s5, 20(sp)
   1e208:	23 28 61 01 	sw	s6, 16(sp)
   1e20c:	93 94 c5 00 	slli	s1, a1, 12
   1e210:	23 26 11 02 	sw	ra, 44(sp)
   1e214:	23 20 21 03 	sw	s2, 32(sp)
   1e218:	23 26 71 01 	sw	s7, 12(sp)
   1e21c:	93 f9 f9 7f 	andi	s3, s3, 2047
   1e220:	13 04 05 00 	mv	s0, a0
   1e224:	13 0b 06 00 	mv	s6, a2
   1e228:	93 8a 06 00 	mv	s5, a3
   1e22c:	93 d4 c4 00 	srli	s1, s1, 12
   1e230:	13 da f5 01 	srli	s4, a1, 31
   1e234:	63 82 09 0a 	beqz	s3, 164
   1e238:	93 07 f0 7f 	addi	a5, zero, 2047
   1e23c:	63 80 f9 10 	beq	s3, a5, 256
   1e240:	93 57 d5 01 	srli	a5, a0, 29
   1e244:	93 94 34 00 	slli	s1, s1, 3
   1e248:	b3 e4 97 00 	or	s1, a5, s1
   1e24c:	b7 07 80 00 	lui	a5, 2048
   1e250:	b3 e4 f4 00 	or	s1, s1, a5
   1e254:	13 19 35 00 	slli	s2, a0, 3
   1e258:	93 89 19 c0 	addi	s3, s3, -1023
   1e25c:	93 0b 00 00 	mv	s7, zero
   1e260:	13 d5 4a 01 	srli	a0, s5, 20
   1e264:	13 94 ca 00 	slli	s0, s5, 12
   1e268:	13 75 f5 7f 	andi	a0, a0, 2047
   1e26c:	13 54 c4 00 	srli	s0, s0, 12
   1e270:	93 da fa 01 	srli	s5, s5, 31
   1e274:	63 00 05 10 	beqz	a0, 256
   1e278:	93 07 f0 7f 	addi	a5, zero, 2047
   1e27c:	63 00 f5 16 	beq	a0, a5, 352
   1e280:	93 57 db 01 	srli	a5, s6, 29
   1e284:	13 14 34 00 	slli	s0, s0, 3
   1e288:	33 e4 87 00 	or	s0, a5, s0
   1e28c:	b7 07 80 00 	lui	a5, 2048
   1e290:	33 64 f4 00 	or	s0, s0, a5
   1e294:	13 05 15 c0 	addi	a0, a0, -1023
   1e298:	93 17 3b 00 	slli	a5, s6, 3
   1e29c:	13 07 00 00 	mv	a4, zero
   1e2a0:	93 96 2b 00 	slli	a3, s7, 2
   1e2a4:	b3 e6 e6 00 	or	a3, a3, a4
   1e2a8:	b3 89 a9 00 	add	s3, s3, a0
   1e2ac:	93 86 f6 ff 	addi	a3, a3, -1
   1e2b0:	13 06 e0 00 	addi	a2, zero, 14
   1e2b4:	33 48 5a 01 	xor	a6, s4, s5
   1e2b8:	93 88 19 00 	addi	a7, s3, 1
   1e2bc:	63 6c d6 14 	bltu	a2, a3, 344
   1e2c0:	37 36 02 00 	lui	a2, 35
   1e2c4:	93 96 26 00 	slli	a3, a3, 2
   1e2c8:	13 06 46 99 	addi	a2, a2, -1644
   1e2cc:	b3 86 c6 00 	add	a3, a3, a2
   1e2d0:	83 a6 06 00 	lw	a3, 0(a3)
   1e2d4:	67 80 06 00 	jr	a3
   1e2d8:	33 e9 a4 00 	or	s2, s1, a0
   1e2dc:	63 0c 09 06 	beqz	s2, 120
   1e2e0:	63 80 04 04 	beqz	s1, 64
   1e2e4:	13 85 04 00 	mv	a0, s1
   1e2e8:	ef 30 90 2b 	jal	15032
   1e2ec:	13 07 55 ff 	addi	a4, a0, -11
   1e2f0:	93 07 c0 01 	addi	a5, zero, 28
   1e2f4:	63 cc e7 02 	blt	a5, a4, 56
   1e2f8:	93 07 d0 01 	addi	a5, zero, 29
   1e2fc:	13 09 85 ff 	addi	s2, a0, -8
   1e300:	b3 87 e7 40 	sub	a5, a5, a4
   1e304:	b3 94 24 01 	sll	s1, s1, s2
   1e308:	b3 57 f4 00 	srl	a5, s0, a5
   1e30c:	b3 e4 97 00 	or	s1, a5, s1
   1e310:	33 19 24 01 	sll	s2, s0, s2
   1e314:	93 09 d0 c0 	addi	s3, zero, -1011
   1e318:	b3 89 a9 40 	sub	s3, s3, a0
   1e31c:	6f f0 1f f4 	j	-192
   1e320:	ef 30 10 28 	jal	14976
   1e324:	13 05 05 02 	addi	a0, a0, 32
   1e328:	6f f0 5f fc 	j	-60
   1e32c:	93 04 85 fd 	addi	s1, a0, -40
   1e330:	b3 14 94 00 	sll	s1, s0, s1
   1e334:	13 09 00 00 	mv	s2, zero
   1e338:	6f f0 df fd 	j	-36
   1e33c:	33 e9 a4 00 	or	s2, s1, a0
   1e340:	63 02 09 02 	beqz	s2, 36
   1e344:	13 09 05 00 	mv	s2, a0
   1e348:	93 09 f0 7f 	addi	s3, zero, 2047
   1e34c:	93 0b 30 00 	addi	s7, zero, 3
   1e350:	6f f0 1f f1 	j	-240
   1e354:	93 04 00 00 	mv	s1, zero
   1e358:	93 09 00 00 	mv	s3, zero
   1e35c:	93 0b 10 00 	addi	s7, zero, 1
   1e360:	6f f0 1f f0 	j	-256
   1e364:	93 04 00 00 	mv	s1, zero
   1e368:	93 09 f0 7f 	addi	s3, zero, 2047
   1e36c:	93 0b 20 00 	addi	s7, zero, 2
   1e370:	6f f0 1f ef 	j	-272
   1e374:	b3 67 64 01 	or	a5, s0, s6
   1e378:	63 8e 07 06 	beqz	a5, 124
   1e37c:	63 00 04 04 	beqz	s0, 64
   1e380:	13 05 04 00 	mv	a0, s0
   1e384:	ef 30 d0 21 	jal	14876
   1e388:	93 06 55 ff 	addi	a3, a0, -11
   1e38c:	93 07 c0 01 	addi	a5, zero, 28
   1e390:	63 ce d7 02 	blt	a5, a3, 60
   1e394:	13 07 d0 01 	addi	a4, zero, 29
   1e398:	93 07 85 ff 	addi	a5, a0, -8
   1e39c:	33 07 d7 40 	sub	a4, a4, a3
   1e3a0:	33 14 f4 00 	sll	s0, s0, a5
   1e3a4:	33 57 eb 00 	srl	a4, s6, a4
   1e3a8:	33 64 87 00 	or	s0, a4, s0
   1e3ac:	b3 17 fb 00 	sll	a5, s6, a5
   1e3b0:	13 07 d0 c0 	addi	a4, zero, -1011
   1e3b4:	33 05 a7 40 	sub	a0, a4, a0
   1e3b8:	6f f0 5f ee 	j	-284
   1e3bc:	13 05 0b 00 	mv	a0, s6
   1e3c0:	ef 30 10 1e 	jal	14816
   1e3c4:	13 05 05 02 	addi	a0, a0, 32
   1e3c8:	6f f0 1f fc 	j	-64
   1e3cc:	13 04 85 fd 	addi	s0, a0, -40
   1e3d0:	33 14 8b 00 	sll	s0, s6, s0
   1e3d4:	93 07 00 00 	mv	a5, zero
   1e3d8:	6f f0 9f fd 	j	-40
   1e3dc:	b3 67 64 01 	or	a5, s0, s6
   1e3e0:	63 82 07 02 	beqz	a5, 36
   1e3e4:	93 07 0b 00 	mv	a5, s6
   1e3e8:	13 05 f0 7f 	addi	a0, zero, 2047
   1e3ec:	13 07 30 00 	addi	a4, zero, 3
   1e3f0:	6f f0 1f eb 	j	-336
   1e3f4:	13 04 00 00 	mv	s0, zero
   1e3f8:	13 05 00 00 	mv	a0, zero
   1e3fc:	13 07 10 00 	addi	a4, zero, 1
   1e400:	6f f0 1f ea 	j	-352
   1e404:	13 04 00 00 	mv	s0, zero
   1e408:	13 05 f0 7f 	addi	a0, zero, 2047
   1e40c:	13 07 20 00 	addi	a4, zero, 2
   1e410:	6f f0 1f e9 	j	-368
   1e414:	b7 02 01 00 	lui	t0, 16
   1e418:	13 83 f2 ff 	addi	t1, t0, -1
   1e41c:	13 5f 09 01 	srli	t5, s2, 16
   1e420:	93 df 07 01 	srli	t6, a5, 16
   1e424:	33 79 69 00 	and	s2, s2, t1
   1e428:	b3 f7 67 00 	and	a5, a5, t1
   1e42c:	13 05 09 00 	mv	a0, s2
   1e430:	93 85 07 00 	mv	a1, a5
   1e434:	ef 30 50 09 	jal	14484
   1e438:	93 0e 05 00 	mv	t4, a0
   1e43c:	93 85 0f 00 	mv	a1, t6
   1e440:	13 05 09 00 	mv	a0, s2
   1e444:	ef 30 50 08 	jal	14468
   1e448:	13 0e 05 00 	mv	t3, a0
   1e44c:	93 85 07 00 	mv	a1, a5
   1e450:	13 05 0f 00 	mv	a0, t5
   1e454:	ef 30 50 07 	jal	14452
   1e458:	13 0a 05 00 	mv	s4, a0
   1e45c:	93 85 0f 00 	mv	a1, t6
   1e460:	13 05 0f 00 	mv	a0, t5
   1e464:	ef 30 50 06 	jal	14436
   1e468:	13 d7 0e 01 	srli	a4, t4, 16
   1e46c:	33 0e 4e 01 	add	t3, t3, s4
   1e470:	33 07 c7 01 	add	a4, a4, t3
   1e474:	93 03 05 00 	mv	t2, a0
   1e478:	63 74 47 01 	bgeu	a4, s4, 8
   1e47c:	b3 03 55 00 	add	t2, a0, t0
   1e480:	33 7e 67 00 	and	t3, a4, t1
   1e484:	b3 fe 6e 00 	and	t4, t4, t1
   1e488:	13 5a 04 01 	srli	s4, s0, 16
   1e48c:	13 1e 0e 01 	slli	t3, t3, 16
   1e490:	33 74 64 00 	and	s0, s0, t1
   1e494:	93 52 07 01 	srli	t0, a4, 16
   1e498:	33 0e de 01 	add	t3, t3, t4
   1e49c:	13 05 09 00 	mv	a0, s2
   1e4a0:	93 05 04 00 	mv	a1, s0
   1e4a4:	ef 30 50 02 	jal	14372
   1e4a8:	93 0e 05 00 	mv	t4, a0
   1e4ac:	93 05 0a 00 	mv	a1, s4
   1e4b0:	13 05 09 00 	mv	a0, s2
   1e4b4:	ef 30 50 01 	jal	14356
   1e4b8:	13 07 05 00 	mv	a4, a0
   1e4bc:	93 05 04 00 	mv	a1, s0
   1e4c0:	13 05 0f 00 	mv	a0, t5
   1e4c4:	ef 30 50 00 	jal	14340
   1e4c8:	13 03 05 00 	mv	t1, a0
   1e4cc:	93 05 0a 00 	mv	a1, s4
   1e4d0:	13 05 0f 00 	mv	a0, t5
   1e4d4:	ef 30 40 7f 	jal	14324
   1e4d8:	93 d6 0e 01 	srli	a3, t4, 16
   1e4dc:	33 07 67 00 	add	a4, a4, t1
   1e4e0:	b3 86 e6 00 	add	a3, a3, a4
   1e4e4:	63 f6 66 00 	bgeu	a3, t1, 12
   1e4e8:	37 07 01 00 	lui	a4, 16
   1e4ec:	33 05 e5 00 	add	a0, a0, a4
   1e4f0:	b7 0a 01 00 	lui	s5, 16
   1e4f4:	13 86 fa ff 	addi	a2, s5, -1
   1e4f8:	13 d7 06 01 	srli	a4, a3, 16
   1e4fc:	b3 f6 c6 00 	and	a3, a3, a2
   1e500:	93 96 06 01 	slli	a3, a3, 16
   1e504:	b3 fe ce 00 	and	t4, t4, a2
   1e508:	33 0f a7 00 	add	t5, a4, a0
   1e50c:	b3 8e d6 01 	add	t4, a3, t4
   1e510:	13 d7 04 01 	srli	a4, s1, 16
   1e514:	b3 f4 c4 00 	and	s1, s1, a2
   1e518:	b3 82 d2 01 	add	t0, t0, t4
   1e51c:	13 85 04 00 	mv	a0, s1
   1e520:	93 85 07 00 	mv	a1, a5
   1e524:	ef 30 40 7a 	jal	14244
   1e528:	13 09 05 00 	mv	s2, a0
   1e52c:	93 85 0f 00 	mv	a1, t6
   1e530:	13 85 04 00 	mv	a0, s1
   1e534:	ef 30 40 79 	jal	14228
   1e538:	13 03 05 00 	mv	t1, a0
   1e53c:	93 85 07 00 	mv	a1, a5
   1e540:	13 05 07 00 	mv	a0, a4
   1e544:	ef 30 40 78 	jal	14212
   1e548:	13 0b 05 00 	mv	s6, a0
   1e54c:	93 85 0f 00 	mv	a1, t6
   1e550:	13 05 07 00 	mv	a0, a4
   1e554:	ef 30 40 77 	jal	14196
   1e558:	93 57 09 01 	srli	a5, s2, 16
   1e55c:	33 03 63 01 	add	t1, t1, s6
   1e560:	b3 87 67 00 	add	a5, a5, t1
   1e564:	63 f4 67 01 	bgeu	a5, s6, 8
   1e568:	33 05 55 01 	add	a0, a0, s5
   1e56c:	b7 0a 01 00 	lui	s5, 16
   1e570:	93 86 fa ff 	addi	a3, s5, -1
   1e574:	33 f3 d7 00 	and	t1, a5, a3
   1e578:	13 d6 07 01 	srli	a2, a5, 16
   1e57c:	33 79 d9 00 	and	s2, s2, a3
   1e580:	13 13 03 01 	slli	t1, t1, 16
   1e584:	b3 0f a6 00 	add	t6, a2, a0
   1e588:	33 03 23 01 	add	t1, t1, s2
   1e58c:	13 85 04 00 	mv	a0, s1
   1e590:	93 05 04 00 	mv	a1, s0
   1e594:	ef 30 40 73 	jal	14132
   1e598:	93 07 05 00 	mv	a5, a0
   1e59c:	93 05 0a 00 	mv	a1, s4
   1e5a0:	13 85 04 00 	mv	a0, s1
   1e5a4:	ef 30 40 72 	jal	14116
   1e5a8:	93 04 05 00 	mv	s1, a0
   1e5ac:	93 05 04 00 	mv	a1, s0
   1e5b0:	13 05 07 00 	mv	a0, a4
   1e5b4:	ef 30 40 71 	jal	14100
   1e5b8:	13 09 05 00 	mv	s2, a0
   1e5bc:	93 05 0a 00 	mv	a1, s4
   1e5c0:	13 05 07 00 	mv	a0, a4
   1e5c4:	ef 30 40 70 	jal	14084
   1e5c8:	93 d6 07 01 	srli	a3, a5, 16
   1e5cc:	b3 84 24 01 	add	s1, s1, s2
   1e5d0:	b3 86 96 00 	add	a3, a3, s1
   1e5d4:	63 f4 26 01 	bgeu	a3, s2, 8
   1e5d8:	33 05 55 01 	add	a0, a0, s5
   1e5dc:	37 06 01 00 	lui	a2, 16
   1e5e0:	13 06 f6 ff 	addi	a2, a2, -1
   1e5e4:	33 f7 c6 00 	and	a4, a3, a2
   1e5e8:	b3 f7 c7 00 	and	a5, a5, a2
   1e5ec:	13 17 07 01 	slli	a4, a4, 16
   1e5f0:	b3 82 72 00 	add	t0, t0, t2
   1e5f4:	33 07 f7 00 	add	a4, a4, a5
   1e5f8:	b3 be d2 01 	sltu	t4, t0, t4
   1e5fc:	33 07 e7 01 	add	a4, a4, t5
   1e600:	33 04 d7 01 	add	s0, a4, t4
   1e604:	b3 82 62 00 	add	t0, t0, t1
   1e608:	33 06 f4 01 	add	a2, s0, t6
   1e60c:	33 b3 62 00 	sltu	t1, t0, t1
   1e610:	b3 05 66 00 	add	a1, a2, t1
   1e614:	33 37 e7 01 	sltu	a4, a4, t5
   1e618:	33 34 d4 01 	sltu	s0, s0, t4
   1e61c:	33 64 87 00 	or	s0, a4, s0
   1e620:	93 d6 06 01 	srli	a3, a3, 16
   1e624:	33 36 f6 01 	sltu	a2, a2, t6
   1e628:	33 b3 65 00 	sltu	t1, a1, t1
   1e62c:	33 04 d4 00 	add	s0, s0, a3
   1e630:	33 63 66 00 	or	t1, a2, t1
   1e634:	33 04 64 00 	add	s0, s0, t1
   1e638:	93 97 92 00 	slli	a5, t0, 9
   1e63c:	33 04 a4 00 	add	s0, s0, a0
   1e640:	b3 e7 c7 01 	or	a5, a5, t3
   1e644:	13 14 94 00 	slli	s0, s0, 9
   1e648:	13 d5 75 01 	srli	a0, a1, 23
   1e64c:	b3 37 f0 00 	snez	a5, a5
   1e650:	13 de 72 01 	srli	t3, t0, 23
   1e654:	13 97 95 00 	slli	a4, a1, 9
   1e658:	33 64 a4 00 	or	s0, s0, a0
   1e65c:	b3 e7 c7 01 	or	a5, a5, t3
   1e660:	b3 e7 e7 00 	or	a5, a5, a4
   1e664:	13 17 74 00 	slli	a4, s0, 7
   1e668:	63 52 07 10 	bgez	a4, 260
   1e66c:	13 d7 17 00 	srli	a4, a5, 1
   1e670:	93 f7 17 00 	andi	a5, a5, 1
   1e674:	b3 67 f7 00 	or	a5, a4, a5
   1e678:	13 17 f4 01 	slli	a4, s0, 31
   1e67c:	b3 e7 e7 00 	or	a5, a5, a4
   1e680:	13 54 14 00 	srli	s0, s0, 1
   1e684:	93 86 f8 3f 	addi	a3, a7, 1023
   1e688:	63 56 d0 0e 	blez	a3, 236
   1e68c:	13 f7 77 00 	andi	a4, a5, 7
   1e690:	63 00 07 02 	beqz	a4, 32
   1e694:	13 f7 f7 00 	andi	a4, a5, 15
   1e698:	13 06 40 00 	addi	a2, zero, 4
   1e69c:	63 0a c7 00 	beq	a4, a2, 20
   1e6a0:	13 87 47 00 	addi	a4, a5, 4
   1e6a4:	b3 37 f7 00 	sltu	a5, a4, a5
   1e6a8:	33 04 f4 00 	add	s0, s0, a5
   1e6ac:	93 07 07 00 	mv	a5, a4
   1e6b0:	13 17 74 00 	slli	a4, s0, 7
   1e6b4:	63 5a 07 00 	bgez	a4, 20
   1e6b8:	37 07 00 ff 	lui	a4, 1044480
   1e6bc:	13 07 f7 ff 	addi	a4, a4, -1
   1e6c0:	33 74 e4 00 	and	s0, s0, a4
   1e6c4:	93 86 08 40 	addi	a3, a7, 1024
   1e6c8:	13 07 e0 7f 	addi	a4, zero, 2046
   1e6cc:	63 46 d7 16 	blt	a4, a3, 364
   1e6d0:	13 d7 37 00 	srli	a4, a5, 3
   1e6d4:	93 17 d4 01 	slli	a5, s0, 29
   1e6d8:	b3 e7 e7 00 	or	a5, a5, a4
   1e6dc:	13 54 34 00 	srli	s0, s0, 3
   1e6e0:	13 14 c4 00 	slli	s0, s0, 12
   1e6e4:	13 f7 f6 7f 	andi	a4, a3, 2047
   1e6e8:	13 17 47 01 	slli	a4, a4, 20
   1e6ec:	13 54 c4 00 	srli	s0, s0, 12
   1e6f0:	33 64 e4 00 	or	s0, s0, a4
   1e6f4:	13 18 f8 01 	slli	a6, a6, 31
   1e6f8:	33 67 04 01 	or	a4, s0, a6
   1e6fc:	83 20 c1 02 	lw	ra, 44(sp)
   1e700:	03 24 81 02 	lw	s0, 40(sp)
   1e704:	83 24 41 02 	lw	s1, 36(sp)
   1e708:	03 29 01 02 	lw	s2, 32(sp)
   1e70c:	83 29 c1 01 	lw	s3, 28(sp)
   1e710:	03 2a 81 01 	lw	s4, 24(sp)
   1e714:	83 2a 41 01 	lw	s5, 20(sp)
   1e718:	03 2b 01 01 	lw	s6, 16(sp)
   1e71c:	83 2b c1 00 	lw	s7, 12(sp)
   1e720:	13 85 07 00 	mv	a0, a5
   1e724:	93 05 07 00 	mv	a1, a4
   1e728:	13 01 01 03 	addi	sp, sp, 48
   1e72c:	67 80 00 00 	ret
   1e730:	13 08 0a 00 	mv	a6, s4
   1e734:	13 84 04 00 	mv	s0, s1
   1e738:	93 07 09 00 	mv	a5, s2
   1e73c:	13 87 0b 00 	mv	a4, s7
   1e740:	93 06 20 00 	addi	a3, zero, 2
   1e744:	63 0a d7 0e 	beq	a4, a3, 244
   1e748:	93 06 30 00 	addi	a3, zero, 3
   1e74c:	63 0c d7 0c 	beq	a4, a3, 216
   1e750:	93 06 10 00 	addi	a3, zero, 1
   1e754:	e3 18 d7 f2 	bne	a4, a3, -208
   1e758:	13 04 00 00 	mv	s0, zero
   1e75c:	93 07 00 00 	mv	a5, zero
   1e760:	6f 00 80 08 	j	136
   1e764:	13 88 0a 00 	mv	a6, s5
   1e768:	6f f0 9f fd 	j	-40
   1e76c:	93 88 09 00 	mv	a7, s3
   1e770:	6f f0 5f f1 	j	-236
   1e774:	13 06 10 00 	addi	a2, zero, 1
   1e778:	33 06 d6 40 	sub	a2, a2, a3
   1e77c:	13 07 80 03 	addi	a4, zero, 56
   1e780:	e3 4c c7 fc 	blt	a4, a2, -40
   1e784:	13 07 f0 01 	addi	a4, zero, 31
   1e788:	63 44 c7 06 	blt	a4, a2, 104
   1e78c:	93 88 e8 41 	addi	a7, a7, 1054
   1e790:	33 17 14 01 	sll	a4, s0, a7
   1e794:	b3 d6 c7 00 	srl	a3, a5, a2
   1e798:	b3 97 17 01 	sll	a5, a5, a7
   1e79c:	33 67 d7 00 	or	a4, a4, a3
   1e7a0:	b3 37 f0 00 	snez	a5, a5
   1e7a4:	b3 67 f7 00 	or	a5, a4, a5
   1e7a8:	33 54 c4 00 	srl	s0, s0, a2
   1e7ac:	13 f7 77 00 	andi	a4, a5, 7
   1e7b0:	63 00 07 02 	beqz	a4, 32
   1e7b4:	13 f7 f7 00 	andi	a4, a5, 15
   1e7b8:	93 06 40 00 	addi	a3, zero, 4
   1e7bc:	63 0a d7 00 	beq	a4, a3, 20
   1e7c0:	13 87 47 00 	addi	a4, a5, 4
   1e7c4:	b3 37 f7 00 	sltu	a5, a4, a5
   1e7c8:	33 04 f4 00 	add	s0, s0, a5
   1e7cc:	93 07 07 00 	mv	a5, a4
   1e7d0:	13 17 84 00 	slli	a4, s0, 8
   1e7d4:	63 4a 07 06 	bltz	a4, 116
   1e7d8:	13 17 d4 01 	slli	a4, s0, 29
   1e7dc:	93 d7 37 00 	srli	a5, a5, 3
   1e7e0:	b3 67 f7 00 	or	a5, a4, a5
   1e7e4:	13 54 34 00 	srli	s0, s0, 3
   1e7e8:	93 06 00 00 	mv	a3, zero
   1e7ec:	6f f0 5f ef 	j	-268
   1e7f0:	13 07 10 fe 	addi	a4, zero, -31
   1e7f4:	33 07 d7 40 	sub	a4, a4, a3
   1e7f8:	93 05 00 02 	addi	a1, zero, 32
   1e7fc:	33 57 e4 00 	srl	a4, s0, a4
   1e800:	93 06 00 00 	mv	a3, zero
   1e804:	63 06 b6 00 	beq	a2, a1, 12
   1e808:	93 88 e8 43 	addi	a7, a7, 1086
   1e80c:	b3 16 14 01 	sll	a3, s0, a7
   1e810:	b3 e7 f6 00 	or	a5, a3, a5
   1e814:	b3 37 f0 00 	snez	a5, a5
   1e818:	b3 67 f7 00 	or	a5, a4, a5
   1e81c:	13 04 00 00 	mv	s0, zero
   1e820:	6f f0 df f8 	j	-116
   1e824:	37 04 08 00 	lui	s0, 128
   1e828:	93 07 00 00 	mv	a5, zero
   1e82c:	93 06 f0 7f 	addi	a3, zero, 2047
   1e830:	13 08 00 00 	mv	a6, zero
   1e834:	6f f0 df ea 	j	-340
   1e838:	13 04 00 00 	mv	s0, zero
   1e83c:	93 07 00 00 	mv	a5, zero
   1e840:	93 06 f0 7f 	addi	a3, zero, 2047
   1e844:	6f f0 df e9 	j	-356
   1e848:	13 04 00 00 	mv	s0, zero
   1e84c:	93 07 00 00 	mv	a5, zero
   1e850:	93 06 10 00 	addi	a3, zero, 1
   1e854:	6f f0 df e8 	j	-372

__netf2:
   1e858:	83 27 c5 00 	lw	a5, 12(a0)
   1e85c:	03 af 05 00 	lw	t5, 0(a1)
   1e860:	83 af 45 00 	lw	t6, 4(a1)
   1e864:	83 a2 85 00 	lw	t0, 8(a1)
   1e868:	83 a5 c5 00 	lw	a1, 12(a1)
   1e86c:	37 87 00 00 	lui	a4, 8
   1e870:	93 d6 07 01 	srli	a3, a5, 16
   1e874:	13 07 f7 ff 	addi	a4, a4, -1
   1e878:	13 98 07 01 	slli	a6, a5, 16
   1e87c:	93 9e 05 01 	slli	t4, a1, 16
   1e880:	13 d6 f7 01 	srli	a2, a5, 31
   1e884:	b3 f6 e6 00 	and	a3, a3, a4
   1e888:	93 d7 05 01 	srli	a5, a1, 16
   1e88c:	13 01 01 ff 	addi	sp, sp, -16
   1e890:	83 28 05 00 	lw	a7, 0(a0)
   1e894:	03 23 45 00 	lw	t1, 4(a0)
   1e898:	03 2e 85 00 	lw	t3, 8(a0)
   1e89c:	13 58 08 01 	srli	a6, a6, 16
   1e8a0:	93 de 0e 01 	srli	t4, t4, 16
   1e8a4:	b3 f7 e7 00 	and	a5, a5, a4
   1e8a8:	93 d5 f5 01 	srli	a1, a1, 31
   1e8ac:	63 90 e6 02 	bne	a3, a4, 32
   1e8b0:	33 e7 68 00 	or	a4, a7, t1
   1e8b4:	33 67 c7 01 	or	a4, a4, t3
   1e8b8:	33 67 07 01 	or	a4, a4, a6
   1e8bc:	13 05 10 00 	addi	a0, zero, 1
   1e8c0:	63 1a 07 04 	bnez	a4, 84
   1e8c4:	63 98 d7 04 	bne	a5, a3, 80
   1e8c8:	6f 00 80 00 	j	8
   1e8cc:	63 9c e7 00 	bne	a5, a4, 24
   1e8d0:	33 67 ff 01 	or	a4, t5, t6
   1e8d4:	33 67 57 00 	or	a4, a4, t0
   1e8d8:	33 67 d7 01 	or	a4, a4, t4
   1e8dc:	13 05 10 00 	addi	a0, zero, 1
   1e8e0:	63 1a 07 02 	bnez	a4, 52
   1e8e4:	13 05 10 00 	addi	a0, zero, 1
   1e8e8:	63 96 d7 02 	bne	a5, a3, 44
   1e8ec:	63 94 e8 03 	bne	a7, t5, 40
   1e8f0:	63 12 f3 03 	bne	t1, t6, 36
   1e8f4:	63 10 5e 02 	bne	t3, t0, 32
   1e8f8:	63 1e d8 01 	bne	a6, t4, 28
   1e8fc:	63 00 b6 02 	beq	a2, a1, 32
   1e900:	63 9a 07 00 	bnez	a5, 20
   1e904:	33 e5 68 00 	or	a0, a7, t1
   1e908:	33 65 c5 01 	or	a0, a0, t3
   1e90c:	33 65 05 01 	or	a0, a0, a6
   1e910:	33 35 a0 00 	snez	a0, a0
   1e914:	13 01 01 01 	addi	sp, sp, 16
   1e918:	67 80 00 00 	ret
   1e91c:	13 05 00 00 	mv	a0, zero
   1e920:	6f f0 5f ff 	j	-12

__gttf2:
   1e924:	83 2f 05 00 	lw	t6, 0(a0)
   1e928:	03 28 45 00 	lw	a6, 4(a0)
   1e92c:	03 2e 85 00 	lw	t3, 8(a0)
   1e930:	03 25 c5 00 	lw	a0, 12(a0)
   1e934:	03 a6 c5 00 	lw	a2, 12(a1)
   1e938:	b7 87 00 00 	lui	a5, 8
   1e93c:	93 56 05 01 	srli	a3, a0, 16
   1e940:	93 87 f7 ff 	addi	a5, a5, -1
   1e944:	13 13 06 01 	slli	t1, a2, 16
   1e948:	13 57 06 01 	srli	a4, a2, 16
   1e94c:	83 a2 05 00 	lw	t0, 0(a1)
   1e950:	83 a8 45 00 	lw	a7, 4(a1)
   1e954:	83 ae 85 00 	lw	t4, 8(a1)
   1e958:	b3 f6 f6 00 	and	a3, a3, a5
   1e95c:	93 15 05 01 	slli	a1, a0, 16
   1e960:	13 01 01 ff 	addi	sp, sp, -16
   1e964:	93 d5 05 01 	srli	a1, a1, 16
   1e968:	13 55 f5 01 	srli	a0, a0, 31
   1e96c:	13 53 03 01 	srli	t1, t1, 16
   1e970:	33 77 f7 00 	and	a4, a4, a5
   1e974:	13 56 f6 01 	srli	a2, a2, 31
   1e978:	63 9e f6 00 	bne	a3, a5, 28
   1e97c:	b3 67 f8 01 	or	a5, a6, t6
   1e980:	b3 e7 c7 01 	or	a5, a5, t3
   1e984:	b3 e7 b7 00 	or	a5, a5, a1
   1e988:	63 88 07 0c 	beqz	a5, 208
   1e98c:	13 05 e0 ff 	addi	a0, zero, -2
   1e990:	6f 00 00 06 	j	96
   1e994:	63 1a f7 00 	bne	a4, a5, 20
   1e998:	b3 e7 58 00 	or	a5, a7, t0
   1e99c:	b3 e7 d7 01 	or	a5, a5, t4
   1e9a0:	b3 e7 67 00 	or	a5, a5, t1
   1e9a4:	e3 94 07 fe 	bnez	a5, -24
   1e9a8:	63 9a 06 0a 	bnez	a3, 180
   1e9ac:	b3 67 f8 01 	or	a5, a6, t6
   1e9b0:	b3 e7 c7 01 	or	a5, a5, t3
   1e9b4:	b3 e7 b7 00 	or	a5, a5, a1
   1e9b8:	93 b7 17 00 	seqz	a5, a5
   1e9bc:	63 1a 07 00 	bnez	a4, 20
   1e9c0:	33 ef 58 00 	or	t5, a7, t0
   1e9c4:	33 6f df 01 	or	t5, t5, t4
   1e9c8:	33 6f 6f 00 	or	t5, t5, t1
   1e9cc:	63 0a 0f 06 	beqz	t5, 116
   1e9d0:	63 9a 07 00 	bnez	a5, 20
   1e9d4:	63 02 c5 02 	beq	a0, a2, 36
   1e9d8:	63 00 05 06 	beqz	a0, 96
   1e9dc:	13 05 f0 ff 	addi	a0, zero, -1
   1e9e0:	6f 00 00 01 	j	16
   1e9e4:	13 05 f0 ff 	addi	a0, zero, -1
   1e9e8:	63 04 06 00 	beqz	a2, 8
   1e9ec:	13 05 06 00 	mv	a0, a2
   1e9f0:	13 01 01 01 	addi	sp, sp, 16
   1e9f4:	67 80 00 00 	ret
   1e9f8:	e3 40 d7 fe 	blt	a4, a3, -32
   1e9fc:	63 d6 e6 00 	bge	a3, a4, 12
   1ea00:	e3 18 05 fe 	bnez	a0, -16
   1ea04:	6f f0 9f fd 	j	-40
   1ea08:	e3 68 b3 fc 	bltu	t1, a1, -48
   1ea0c:	63 9e 65 02 	bne	a1, t1, 60
   1ea10:	e3 e4 ce fd 	bltu	t4, t3, -56
   1ea14:	63 9e ce 03 	bne	t4, t3, 60
   1ea18:	e3 e0 08 fd 	bltu	a7, a6, -64
   1ea1c:	63 94 08 01 	bne	a7, a6, 8
   1ea20:	e3 ec f2 fb 	bltu	t0, t6, -72
   1ea24:	e3 6e 18 fd 	bltu	a6, a7, -36
   1ea28:	63 94 08 01 	bne	a7, a6, 8
   1ea2c:	e3 ea 5f fc 	bltu	t6, t0, -44
   1ea30:	13 05 00 00 	mv	a0, zero
   1ea34:	6f f0 df fb 	j	-68
   1ea38:	13 05 10 00 	addi	a0, zero, 1
   1ea3c:	6f f0 5f fb 	j	-76
   1ea40:	e3 98 07 fe 	bnez	a5, -16
   1ea44:	6f f0 5f f9 	j	-108
   1ea48:	e3 ec 65 fa 	bltu	a1, t1, -72
   1ea4c:	6f f0 5f fe 	j	-28
   1ea50:	e3 68 de fb 	bltu	t3, t4, -80
   1ea54:	6f f0 df fd 	j	-36
   1ea58:	e3 00 d7 f4 	beq	a4, a3, -192
   1ea5c:	e3 1c 07 f6 	bnez	a4, -136
   1ea60:	93 07 00 00 	mv	a5, zero
   1ea64:	6f f0 df f5 	j	-164

__lttf2:
   1ea68:	83 2f 05 00 	lw	t6, 0(a0)
   1ea6c:	03 28 45 00 	lw	a6, 4(a0)
   1ea70:	03 2e 85 00 	lw	t3, 8(a0)
   1ea74:	03 25 c5 00 	lw	a0, 12(a0)
   1ea78:	03 a6 c5 00 	lw	a2, 12(a1)
   1ea7c:	b7 87 00 00 	lui	a5, 8
   1ea80:	93 56 05 01 	srli	a3, a0, 16
   1ea84:	93 87 f7 ff 	addi	a5, a5, -1
   1ea88:	13 13 06 01 	slli	t1, a2, 16
   1ea8c:	13 57 06 01 	srli	a4, a2, 16
   1ea90:	83 a2 05 00 	lw	t0, 0(a1)
   1ea94:	83 a8 45 00 	lw	a7, 4(a1)
   1ea98:	83 ae 85 00 	lw	t4, 8(a1)
   1ea9c:	b3 f6 f6 00 	and	a3, a3, a5
   1eaa0:	93 15 05 01 	slli	a1, a0, 16
   1eaa4:	13 01 01 ff 	addi	sp, sp, -16
   1eaa8:	93 d5 05 01 	srli	a1, a1, 16
   1eaac:	13 55 f5 01 	srli	a0, a0, 31
   1eab0:	13 53 03 01 	srli	t1, t1, 16
   1eab4:	33 77 f7 00 	and	a4, a4, a5
   1eab8:	13 56 f6 01 	srli	a2, a2, 31
   1eabc:	63 9e f6 00 	bne	a3, a5, 28
   1eac0:	b3 67 f8 01 	or	a5, a6, t6
   1eac4:	b3 e7 c7 01 	or	a5, a5, t3
   1eac8:	b3 e7 b7 00 	or	a5, a5, a1
   1eacc:	63 88 07 0c 	beqz	a5, 208
   1ead0:	13 05 20 00 	addi	a0, zero, 2
   1ead4:	6f 00 00 06 	j	96
   1ead8:	63 1a f7 00 	bne	a4, a5, 20
   1eadc:	b3 e7 58 00 	or	a5, a7, t0
   1eae0:	b3 e7 d7 01 	or	a5, a5, t4
   1eae4:	b3 e7 67 00 	or	a5, a5, t1
   1eae8:	e3 94 07 fe 	bnez	a5, -24
   1eaec:	63 9a 06 0a 	bnez	a3, 180
   1eaf0:	b3 67 f8 01 	or	a5, a6, t6
   1eaf4:	b3 e7 c7 01 	or	a5, a5, t3
   1eaf8:	b3 e7 b7 00 	or	a5, a5, a1
   1eafc:	93 b7 17 00 	seqz	a5, a5
   1eb00:	63 1a 07 00 	bnez	a4, 20
   1eb04:	33 ef 58 00 	or	t5, a7, t0
   1eb08:	33 6f df 01 	or	t5, t5, t4
   1eb0c:	33 6f 6f 00 	or	t5, t5, t1
   1eb10:	63 0a 0f 06 	beqz	t5, 116
   1eb14:	63 9a 07 00 	bnez	a5, 20
   1eb18:	63 02 c5 02 	beq	a0, a2, 36
   1eb1c:	63 00 05 06 	beqz	a0, 96
   1eb20:	13 05 f0 ff 	addi	a0, zero, -1
   1eb24:	6f 00 00 01 	j	16
   1eb28:	13 05 f0 ff 	addi	a0, zero, -1
   1eb2c:	63 04 06 00 	beqz	a2, 8
   1eb30:	13 05 06 00 	mv	a0, a2
   1eb34:	13 01 01 01 	addi	sp, sp, 16
   1eb38:	67 80 00 00 	ret
   1eb3c:	e3 40 d7 fe 	blt	a4, a3, -32
   1eb40:	63 d6 e6 00 	bge	a3, a4, 12
   1eb44:	e3 18 05 fe 	bnez	a0, -16
   1eb48:	6f f0 9f fd 	j	-40
   1eb4c:	e3 68 b3 fc 	bltu	t1, a1, -48
   1eb50:	63 9e 65 02 	bne	a1, t1, 60
   1eb54:	e3 e4 ce fd 	bltu	t4, t3, -56
   1eb58:	63 9e ce 03 	bne	t4, t3, 60
   1eb5c:	e3 e0 08 fd 	bltu	a7, a6, -64
   1eb60:	63 94 08 01 	bne	a7, a6, 8
   1eb64:	e3 ec f2 fb 	bltu	t0, t6, -72
   1eb68:	e3 6e 18 fd 	bltu	a6, a7, -36
   1eb6c:	63 94 08 01 	bne	a7, a6, 8
   1eb70:	e3 ea 5f fc 	bltu	t6, t0, -44
   1eb74:	13 05 00 00 	mv	a0, zero
   1eb78:	6f f0 df fb 	j	-68
   1eb7c:	13 05 10 00 	addi	a0, zero, 1
   1eb80:	6f f0 5f fb 	j	-76
   1eb84:	e3 98 07 fe 	bnez	a5, -16
   1eb88:	6f f0 5f f9 	j	-108
   1eb8c:	e3 ec 65 fa 	bltu	a1, t1, -72
   1eb90:	6f f0 5f fe 	j	-28
   1eb94:	e3 68 de fb 	bltu	t3, t4, -80
   1eb98:	6f f0 df fd 	j	-36
   1eb9c:	e3 00 d7 f4 	beq	a4, a3, -192
   1eba0:	e3 1c 07 f6 	bnez	a4, -136
   1eba4:	93 07 00 00 	mv	a5, zero
   1eba8:	6f f0 df f5 	j	-164

__multf3:
   1ebac:	13 01 01 f6 	addi	sp, sp, -160
   1ebb0:	23 24 41 09 	sw	s4, 136(sp)
   1ebb4:	03 aa c5 00 	lw	s4, 12(a1)
   1ebb8:	83 a6 05 00 	lw	a3, 0(a1)
   1ebbc:	83 a7 45 00 	lw	a5, 4(a1)
   1ebc0:	23 2c 81 08 	sw	s0, 152(sp)
   1ebc4:	13 04 05 00 	mv	s0, a0
   1ebc8:	03 a5 85 00 	lw	a0, 8(a1)
   1ebcc:	13 17 0a 01 	slli	a4, s4, 16
   1ebd0:	23 2a 91 08 	sw	s1, 148(sp)
   1ebd4:	23 26 31 09 	sw	s3, 140(sp)
   1ebd8:	23 22 51 09 	sw	s5, 132(sp)
   1ebdc:	23 20 61 09 	sw	s6, 128(sp)
   1ebe0:	83 24 06 00 	lw	s1, 0(a2)
   1ebe4:	03 2b 46 00 	lw	s6, 4(a2)
   1ebe8:	83 2a 86 00 	lw	s5, 8(a2)
   1ebec:	83 29 c6 00 	lw	s3, 12(a2)
   1ebf0:	37 86 00 00 	lui	a2, 8
   1ebf4:	23 28 21 09 	sw	s2, 144(sp)
   1ebf8:	13 57 07 01 	srli	a4, a4, 16
   1ebfc:	13 59 0a 01 	srli	s2, s4, 16
   1ec00:	13 06 f6 ff 	addi	a2, a2, -1
   1ec04:	23 26 41 05 	sw	s4, 76(sp)
   1ec08:	23 2e 11 08 	sw	ra, 156(sp)
   1ec0c:	23 2e 71 07 	sw	s7, 124(sp)
   1ec10:	23 2c 81 07 	sw	s8, 120(sp)
   1ec14:	23 2a 91 07 	sw	s9, 116(sp)
   1ec18:	23 28 a1 07 	sw	s10, 112(sp)
   1ec1c:	23 26 b1 07 	sw	s11, 108(sp)
   1ec20:	23 20 d1 04 	sw	a3, 64(sp)
   1ec24:	23 22 f1 04 	sw	a5, 68(sp)
   1ec28:	23 24 a1 04 	sw	a0, 72(sp)
   1ec2c:	23 28 d1 00 	sw	a3, 16(sp)
   1ec30:	23 2a f1 00 	sw	a5, 20(sp)
   1ec34:	23 2c a1 00 	sw	a0, 24(sp)
   1ec38:	23 2e e1 00 	sw	a4, 28(sp)
   1ec3c:	33 79 c9 00 	and	s2, s2, a2
   1ec40:	13 5a fa 01 	srli	s4, s4, 31
   1ec44:	63 04 09 12 	beqz	s2, 296
   1ec48:	63 00 c9 24 	beq	s2, a2, 576
   1ec4c:	b7 07 01 00 	lui	a5, 16
   1ec50:	b3 67 f7 00 	or	a5, a4, a5
   1ec54:	23 2e f1 00 	sw	a5, 28(sp)
   1ec58:	13 06 01 01 	addi	a2, sp, 16
   1ec5c:	93 07 c1 01 	addi	a5, sp, 28
   1ec60:	03 a7 07 00 	lw	a4, 0(a5)
   1ec64:	83 a6 c7 ff 	lw	a3, -4(a5)
   1ec68:	93 87 c7 ff 	addi	a5, a5, -4
   1ec6c:	13 17 37 00 	slli	a4, a4, 3
   1ec70:	93 d6 d6 01 	srli	a3, a3, 29
   1ec74:	33 67 d7 00 	or	a4, a4, a3
   1ec78:	23 a2 e7 00 	sw	a4, 4(a5)
   1ec7c:	e3 12 f6 fe 	bne	a2, a5, -28
   1ec80:	83 27 01 01 	lw	a5, 16(sp)
   1ec84:	37 c5 ff ff 	lui	a0, 1048572
   1ec88:	13 05 15 00 	addi	a0, a0, 1
   1ec8c:	93 97 37 00 	slli	a5, a5, 3
   1ec90:	23 28 f1 00 	sw	a5, 16(sp)
   1ec94:	33 09 a9 00 	add	s2, s2, a0
   1ec98:	13 0c 00 00 	mv	s8, zero
   1ec9c:	13 95 09 01 	slli	a0, s3, 16
   1eca0:	37 87 00 00 	lui	a4, 8
   1eca4:	93 d7 09 01 	srli	a5, s3, 16
   1eca8:	13 55 05 01 	srli	a0, a0, 16
   1ecac:	13 07 f7 ff 	addi	a4, a4, -1
   1ecb0:	23 26 31 05 	sw	s3, 76(sp)
   1ecb4:	23 20 91 04 	sw	s1, 64(sp)
   1ecb8:	23 22 61 05 	sw	s6, 68(sp)
   1ecbc:	23 24 51 05 	sw	s5, 72(sp)
   1ecc0:	23 20 91 02 	sw	s1, 32(sp)
   1ecc4:	23 22 61 03 	sw	s6, 36(sp)
   1ecc8:	23 24 51 03 	sw	s5, 40(sp)
   1eccc:	23 26 a1 02 	sw	a0, 44(sp)
   1ecd0:	b3 f7 e7 00 	and	a5, a5, a4
   1ecd4:	93 d9 f9 01 	srli	s3, s3, 31
   1ecd8:	63 8c 07 1c 	beqz	a5, 472
   1ecdc:	63 88 e7 2e 	beq	a5, a4, 752
   1ece0:	b7 0a 01 00 	lui	s5, 16
   1ece4:	b3 6a 55 01 	or	s5, a0, s5
   1ece8:	23 26 51 03 	sw	s5, 44(sp)
   1ecec:	93 05 01 02 	addi	a1, sp, 32
   1ecf0:	13 07 c1 02 	addi	a4, sp, 44
   1ecf4:	83 26 07 00 	lw	a3, 0(a4)
   1ecf8:	03 26 c7 ff 	lw	a2, -4(a4)
   1ecfc:	13 07 c7 ff 	addi	a4, a4, -4
   1ed00:	93 96 36 00 	slli	a3, a3, 3
   1ed04:	13 56 d6 01 	srli	a2, a2, 29
   1ed08:	b3 e6 c6 00 	or	a3, a3, a2
   1ed0c:	23 22 d7 00 	sw	a3, 4(a4)
   1ed10:	e3 92 e5 fe 	bne	a1, a4, -28
   1ed14:	03 27 01 02 	lw	a4, 32(sp)
   1ed18:	37 c5 ff ff 	lui	a0, 1048572
   1ed1c:	13 05 15 00 	addi	a0, a0, 1
   1ed20:	13 17 37 00 	slli	a4, a4, 3
   1ed24:	23 20 e1 02 	sw	a4, 32(sp)
   1ed28:	b3 87 a7 00 	add	a5, a5, a0
   1ed2c:	13 07 00 00 	mv	a4, zero
   1ed30:	b3 07 f9 00 	add	a5, s2, a5
   1ed34:	23 24 f1 00 	sw	a5, 8(sp)
   1ed38:	93 8b 17 00 	addi	s7, a5, 1
   1ed3c:	93 17 2c 00 	slli	a5, s8, 2
   1ed40:	b3 e7 e7 00 	or	a5, a5, a4
   1ed44:	93 87 f7 ff 	addi	a5, a5, -1
   1ed48:	93 06 e0 00 	addi	a3, zero, 14
   1ed4c:	b3 44 3a 01 	xor	s1, s4, s3
   1ed50:	63 e2 f6 2a 	bltu	a3, a5, 676
   1ed54:	b7 36 02 00 	lui	a3, 35
   1ed58:	93 97 27 00 	slli	a5, a5, 2
   1ed5c:	93 86 06 9d 	addi	a3, a3, -1584
   1ed60:	b3 87 d7 00 	add	a5, a5, a3
   1ed64:	83 a7 07 00 	lw	a5, 0(a5)
   1ed68:	67 80 07 00 	jr	a5
   1ed6c:	33 e6 d7 00 	or	a2, a5, a3
   1ed70:	33 66 a6 00 	or	a2, a2, a0
   1ed74:	33 66 e6 00 	or	a2, a2, a4
   1ed78:	63 06 06 12 	beqz	a2, 300
   1ed7c:	63 00 07 06 	beqz	a4, 96
   1ed80:	13 05 07 00 	mv	a0, a4
   1ed84:	ef 30 c0 01 	jal	12316
   1ed88:	93 06 45 ff 	addi	a3, a0, -12
   1ed8c:	13 d7 56 40 	srai	a4, a3, 5
   1ed90:	93 f6 f6 01 	andi	a3, a3, 31
   1ed94:	b3 07 e0 40 	neg	a5, a4
   1ed98:	63 8c 06 06 	beqz	a3, 120
   1ed9c:	93 97 27 00 	slli	a5, a5, 2
   1eda0:	13 03 01 01 	addi	t1, sp, 16
   1eda4:	93 87 c7 00 	addi	a5, a5, 12
   1eda8:	13 08 00 02 	addi	a6, zero, 32
   1edac:	b3 07 f3 00 	add	a5, t1, a5
   1edb0:	93 15 27 00 	slli	a1, a4, 2
   1edb4:	33 08 d8 40 	sub	a6, a6, a3
   1edb8:	63 12 f3 08 	bne	t1, a5, 132
   1edbc:	93 07 f7 ff 	addi	a5, a4, -1
   1edc0:	13 07 01 06 	addi	a4, sp, 96
   1edc4:	b3 05 b7 00 	add	a1, a4, a1
   1edc8:	03 27 01 01 	lw	a4, 16(sp)
   1edcc:	b3 16 d7 00 	sll	a3, a4, a3
   1edd0:	23 a8 d5 fa 	sw	a3, -80(a1)
   1edd4:	93 06 f0 ff 	addi	a3, zero, -1
   1edd8:	6f 00 c0 09 	j	156
   1eddc:	63 08 05 00 	beqz	a0, 16
   1ede0:	ef 20 10 7c 	jal	12224
   1ede4:	13 05 05 02 	addi	a0, a0, 32
   1ede8:	6f f0 1f fa 	j	-96
   1edec:	63 8a 07 00 	beqz	a5, 20
   1edf0:	13 85 07 00 	mv	a0, a5
   1edf4:	ef 20 d0 7a 	jal	12204
   1edf8:	13 05 05 04 	addi	a0, a0, 64
   1edfc:	6f f0 df f8 	j	-116
   1ee00:	13 85 06 00 	mv	a0, a3
   1ee04:	ef 20 d0 79 	jal	12188
   1ee08:	13 05 05 06 	addi	a0, a0, 96
   1ee0c:	6f f0 df f7 	j	-132
   1ee10:	93 06 c1 01 	addi	a3, sp, 28
   1ee14:	93 97 27 00 	slli	a5, a5, 2
   1ee18:	13 06 30 00 	addi	a2, zero, 3
   1ee1c:	b3 85 f6 00 	add	a1, a3, a5
   1ee20:	83 a5 05 00 	lw	a1, 0(a1)
   1ee24:	13 06 f6 ff 	addi	a2, a2, -1
   1ee28:	93 86 c6 ff 	addi	a3, a3, -4
   1ee2c:	23 a2 b6 00 	sw	a1, 4(a3)
   1ee30:	e3 56 e6 fe 	bge	a2, a4, -20
   1ee34:	93 07 f7 ff 	addi	a5, a4, -1
   1ee38:	6f f0 df f9 	j	-100
   1ee3c:	03 a6 c7 ff 	lw	a2, -4(a5)
   1ee40:	83 a8 07 00 	lw	a7, 0(a5)
   1ee44:	33 8e b7 00 	add	t3, a5, a1
   1ee48:	33 56 06 01 	srl	a2, a2, a6
   1ee4c:	b3 98 d8 00 	sll	a7, a7, a3
   1ee50:	33 66 16 01 	or	a2, a2, a7
   1ee54:	23 20 ce 00 	sw	a2, 0(t3)
   1ee58:	93 87 c7 ff 	addi	a5, a5, -4
   1ee5c:	6f f0 df f5 	j	-164
   1ee60:	13 97 27 00 	slli	a4, a5, 2
   1ee64:	13 06 01 01 	addi	a2, sp, 16
   1ee68:	33 07 e6 00 	add	a4, a2, a4
   1ee6c:	23 20 07 00 	sw	zero, 0(a4)
   1ee70:	93 87 f7 ff 	addi	a5, a5, -1
   1ee74:	e3 96 d7 fe 	bne	a5, a3, -20
   1ee78:	37 c9 ff ff 	lui	s2, 1048572
   1ee7c:	13 09 19 01 	addi	s2, s2, 17
   1ee80:	33 09 a9 40 	sub	s2, s2, a0
   1ee84:	6f f0 5f e1 	j	-492
   1ee88:	b3 e7 d7 00 	or	a5, a5, a3
   1ee8c:	b3 e7 a7 00 	or	a5, a5, a0
   1ee90:	b3 e7 e7 00 	or	a5, a5, a4
   1ee94:	13 0c 30 00 	addi	s8, zero, 3
   1ee98:	e3 92 07 e0 	bnez	a5, -508
   1ee9c:	13 0c 20 00 	addi	s8, zero, 2
   1eea0:	6f f0 df df 	j	-516
   1eea4:	13 09 00 00 	mv	s2, zero
   1eea8:	13 0c 10 00 	addi	s8, zero, 1
   1eeac:	6f f0 1f df 	j	-528
   1eeb0:	b3 e7 64 01 	or	a5, s1, s6
   1eeb4:	b3 e7 57 01 	or	a5, a5, s5
   1eeb8:	b3 e7 a7 00 	or	a5, a5, a0
   1eebc:	63 86 07 12 	beqz	a5, 300
   1eec0:	63 0e 05 04 	beqz	a0, 92
   1eec4:	ef 20 d0 6d 	jal	11996
   1eec8:	13 06 45 ff 	addi	a2, a0, -12
   1eecc:	93 56 56 40 	srai	a3, a2, 5
   1eed0:	13 76 f6 01 	andi	a2, a2, 31
   1eed4:	33 07 d0 40 	neg	a4, a3
   1eed8:	63 0e 06 06 	beqz	a2, 124
   1eedc:	13 17 27 00 	slli	a4, a4, 2
   1eee0:	13 03 01 02 	addi	t1, sp, 32
   1eee4:	13 07 c7 00 	addi	a4, a4, 12
   1eee8:	93 07 00 02 	addi	a5, zero, 32
   1eeec:	33 07 e3 00 	add	a4, t1, a4
   1eef0:	13 98 26 00 	slli	a6, a3, 2
   1eef4:	b3 87 c7 40 	sub	a5, a5, a2
   1eef8:	63 14 e3 08 	bne	t1, a4, 136
   1eefc:	93 07 01 06 	addi	a5, sp, 96
   1ef00:	33 88 07 01 	add	a6, a5, a6
   1ef04:	83 27 01 02 	lw	a5, 32(sp)
   1ef08:	13 87 f6 ff 	addi	a4, a3, -1
   1ef0c:	33 96 c7 00 	sll	a2, a5, a2
   1ef10:	23 20 c8 fc 	sw	a2, -64(a6)
   1ef14:	93 06 f0 ff 	addi	a3, zero, -1
   1ef18:	6f 00 00 0a 	j	160
   1ef1c:	63 8a 0a 00 	beqz	s5, 20
   1ef20:	13 85 0a 00 	mv	a0, s5
   1ef24:	ef 20 d0 67 	jal	11900
   1ef28:	13 05 05 02 	addi	a0, a0, 32
   1ef2c:	6f f0 df f9 	j	-100
   1ef30:	63 0a 0b 00 	beqz	s6, 20
   1ef34:	13 05 0b 00 	mv	a0, s6
   1ef38:	ef 20 90 66 	jal	11880
   1ef3c:	13 05 05 04 	addi	a0, a0, 64
   1ef40:	6f f0 9f f8 	j	-120
   1ef44:	13 85 04 00 	mv	a0, s1
   1ef48:	ef 20 90 65 	jal	11864
   1ef4c:	13 05 05 06 	addi	a0, a0, 96
   1ef50:	6f f0 9f f7 	j	-136
   1ef54:	13 06 c1 02 	addi	a2, sp, 44
   1ef58:	13 17 27 00 	slli	a4, a4, 2
   1ef5c:	93 07 30 00 	addi	a5, zero, 3
   1ef60:	b3 05 e6 00 	add	a1, a2, a4
   1ef64:	83 a5 05 00 	lw	a1, 0(a1)
   1ef68:	93 87 f7 ff 	addi	a5, a5, -1
   1ef6c:	13 06 c6 ff 	addi	a2, a2, -4
   1ef70:	23 22 b6 00 	sw	a1, 4(a2)
   1ef74:	e3 d6 d7 fe 	bge	a5, a3, -20
   1ef78:	13 87 f6 ff 	addi	a4, a3, -1
   1ef7c:	6f f0 9f f9 	j	-104
   1ef80:	83 25 c7 ff 	lw	a1, -4(a4)
   1ef84:	83 28 07 00 	lw	a7, 0(a4)
   1ef88:	33 0e 07 01 	add	t3, a4, a6
   1ef8c:	b3 d5 f5 00 	srl	a1, a1, a5
   1ef90:	b3 98 c8 00 	sll	a7, a7, a2
   1ef94:	b3 e5 15 01 	or	a1, a1, a7
   1ef98:	23 20 be 00 	sw	a1, 0(t3)
   1ef9c:	13 07 c7 ff 	addi	a4, a4, -4
   1efa0:	6f f0 9f f5 	j	-168
   1efa4:	93 17 27 00 	slli	a5, a4, 2
   1efa8:	13 06 01 02 	addi	a2, sp, 32
   1efac:	b3 07 f6 00 	add	a5, a2, a5
   1efb0:	23 a0 07 00 	sw	zero, 0(a5)
   1efb4:	13 07 f7 ff 	addi	a4, a4, -1
   1efb8:	e3 16 d7 fe 	bne	a4, a3, -20
   1efbc:	b7 c7 ff ff 	lui	a5, 1048572
   1efc0:	93 87 17 01 	addi	a5, a5, 17
   1efc4:	b3 87 a7 40 	sub	a5, a5, a0
   1efc8:	6f f0 5f d6 	j	-668
   1efcc:	b3 e4 64 01 	or	s1, s1, s6
   1efd0:	b3 ea 54 01 	or	s5, s1, s5
   1efd4:	b3 ea aa 00 	or	s5, s5, a0
   1efd8:	13 07 30 00 	addi	a4, zero, 3
   1efdc:	e3 9a 0a d4 	bnez	s5, -684
   1efe0:	13 07 20 00 	addi	a4, zero, 2
   1efe4:	6f f0 df d4 	j	-692
   1efe8:	93 07 00 00 	mv	a5, zero
   1efec:	13 07 10 00 	addi	a4, zero, 1
   1eff0:	6f f0 1f d4 	j	-704
   1eff4:	83 22 01 01 	lw	t0, 16(sp)
   1eff8:	83 2f 01 02 	lw	t6, 32(sp)
   1effc:	37 03 01 00 	lui	t1, 16
   1f000:	93 07 f3 ff 	addi	a5, t1, -1
   1f004:	b3 f8 f2 00 	and	a7, t0, a5
   1f008:	b3 f7 ff 00 	and	a5, t6, a5
   1f00c:	13 de 02 01 	srli	t3, t0, 16
   1f010:	13 d7 0f 01 	srli	a4, t6, 16
   1f014:	13 85 08 00 	mv	a0, a7
   1f018:	93 85 07 00 	mv	a1, a5
   1f01c:	ef 20 d0 4a 	jal	11436
   1f020:	13 08 05 00 	mv	a6, a0
   1f024:	93 05 07 00 	mv	a1, a4
   1f028:	13 85 08 00 	mv	a0, a7
   1f02c:	ef 20 d0 49 	jal	11420
   1f030:	93 08 05 00 	mv	a7, a0
   1f034:	93 85 07 00 	mv	a1, a5
   1f038:	13 05 0e 00 	mv	a0, t3
   1f03c:	ef 20 d0 48 	jal	11404
   1f040:	93 07 05 00 	mv	a5, a0
   1f044:	93 05 07 00 	mv	a1, a4
   1f048:	13 05 0e 00 	mv	a0, t3
   1f04c:	ef 20 d0 47 	jal	11388
   1f050:	13 57 08 01 	srli	a4, a6, 16
   1f054:	b3 88 f8 00 	add	a7, a7, a5
   1f058:	33 07 17 01 	add	a4, a4, a7
   1f05c:	63 74 f7 00 	bgeu	a4, a5, 8
   1f060:	33 05 65 00 	add	a0, a0, t1
   1f064:	93 57 07 01 	srli	a5, a4, 16
   1f068:	b3 87 a7 00 	add	a5, a5, a0
   1f06c:	37 0e 01 00 	lui	t3, 16
   1f070:	83 2e 41 02 	lw	t4, 36(sp)
   1f074:	23 22 f1 04 	sw	a5, 68(sp)
   1f078:	93 07 fe ff 	addi	a5, t3, -1
   1f07c:	33 77 f7 00 	and	a4, a4, a5
   1f080:	33 78 f8 00 	and	a6, a6, a5
   1f084:	13 17 07 01 	slli	a4, a4, 16
   1f088:	33 07 07 01 	add	a4, a4, a6
   1f08c:	33 ff fe 00 	and	t5, t4, a5
   1f090:	33 f8 f2 00 	and	a6, t0, a5
   1f094:	23 20 e1 04 	sw	a4, 64(sp)
   1f098:	13 d3 02 01 	srli	t1, t0, 16
   1f09c:	13 d7 0e 01 	srli	a4, t4, 16
   1f0a0:	13 05 08 00 	mv	a0, a6
   1f0a4:	93 05 0f 00 	mv	a1, t5
   1f0a8:	ef 20 10 42 	jal	11296
   1f0ac:	93 08 05 00 	mv	a7, a0
   1f0b0:	93 05 07 00 	mv	a1, a4
   1f0b4:	13 05 08 00 	mv	a0, a6
   1f0b8:	ef 20 10 41 	jal	11280
   1f0bc:	13 08 05 00 	mv	a6, a0
   1f0c0:	93 05 0f 00 	mv	a1, t5
   1f0c4:	13 05 03 00 	mv	a0, t1
   1f0c8:	ef 20 10 40 	jal	11264
   1f0cc:	13 0f 05 00 	mv	t5, a0
   1f0d0:	93 05 07 00 	mv	a1, a4
   1f0d4:	13 05 03 00 	mv	a0, t1
   1f0d8:	ef 20 10 3f 	jal	11248
   1f0dc:	13 d7 08 01 	srli	a4, a7, 16
   1f0e0:	33 08 e8 01 	add	a6, a6, t5
   1f0e4:	33 07 07 01 	add	a4, a4, a6
   1f0e8:	13 0c 05 00 	mv	s8, a0
   1f0ec:	63 74 e7 01 	bgeu	a4, t5, 8
   1f0f0:	33 0c c5 01 	add	s8, a0, t3
   1f0f4:	03 2f 41 01 	lw	t5, 20(sp)
   1f0f8:	33 78 f7 00 	and	a6, a4, a5
   1f0fc:	b3 f8 f8 00 	and	a7, a7, a5
   1f100:	13 18 08 01 	slli	a6, a6, 16
   1f104:	93 56 07 01 	srli	a3, a4, 16
   1f108:	33 08 18 01 	add	a6, a6, a7
   1f10c:	b3 78 ff 00 	and	a7, t5, a5
   1f110:	b3 f7 ff 00 	and	a5, t6, a5
   1f114:	23 26 d1 00 	sw	a3, 12(sp)
   1f118:	93 53 0f 01 	srli	t2, t5, 16
   1f11c:	13 d7 0f 01 	srli	a4, t6, 16
   1f120:	13 85 08 00 	mv	a0, a7
   1f124:	93 85 07 00 	mv	a1, a5
   1f128:	ef 20 10 3a 	jal	11168
   1f12c:	13 03 05 00 	mv	t1, a0
   1f130:	93 05 07 00 	mv	a1, a4
   1f134:	13 85 08 00 	mv	a0, a7
   1f138:	ef 20 10 39 	jal	11152
   1f13c:	93 08 05 00 	mv	a7, a0
   1f140:	93 85 07 00 	mv	a1, a5
   1f144:	13 85 03 00 	mv	a0, t2
   1f148:	ef 20 10 38 	jal	11136
   1f14c:	13 0e 05 00 	mv	t3, a0
   1f150:	93 05 07 00 	mv	a1, a4
   1f154:	13 85 03 00 	mv	a0, t2
   1f158:	ef 20 10 37 	jal	11120
   1f15c:	93 57 03 01 	srli	a5, t1, 16
   1f160:	b3 88 c8 01 	add	a7, a7, t3
   1f164:	b3 87 17 01 	add	a5, a5, a7
   1f168:	63 f6 c7 01 	bgeu	a5, t3, 12
   1f16c:	37 07 01 00 	lui	a4, 16
   1f170:	33 05 e5 00 	add	a0, a0, a4
   1f174:	b7 03 01 00 	lui	t2, 16
   1f178:	13 87 f3 ff 	addi	a4, t2, -1
   1f17c:	b3 f8 e7 00 	and	a7, a5, a4
   1f180:	13 da 07 01 	srli	s4, a5, 16
   1f184:	33 0a aa 00 	add	s4, s4, a0
   1f188:	b3 77 ef 00 	and	a5, t5, a4
   1f18c:	33 75 e3 00 	and	a0, t1, a4
   1f190:	93 98 08 01 	slli	a7, a7, 16
   1f194:	33 f7 ee 00 	and	a4, t4, a4
   1f198:	b3 88 a8 00 	add	a7, a7, a0
   1f19c:	13 59 0f 01 	srli	s2, t5, 16
   1f1a0:	13 de 0e 01 	srli	t3, t4, 16
   1f1a4:	13 85 07 00 	mv	a0, a5
   1f1a8:	93 05 07 00 	mv	a1, a4
   1f1ac:	ef 20 d0 31 	jal	11036
   1f1b0:	13 03 05 00 	mv	t1, a0
   1f1b4:	93 05 0e 00 	mv	a1, t3
   1f1b8:	13 85 07 00 	mv	a0, a5
   1f1bc:	ef 20 d0 30 	jal	11020
   1f1c0:	93 09 05 00 	mv	s3, a0
   1f1c4:	93 05 07 00 	mv	a1, a4
   1f1c8:	13 05 09 00 	mv	a0, s2
   1f1cc:	ef 20 d0 2f 	jal	11004
   1f1d0:	13 07 05 00 	mv	a4, a0
   1f1d4:	93 05 0e 00 	mv	a1, t3
   1f1d8:	13 05 09 00 	mv	a0, s2
   1f1dc:	ef 20 d0 2e 	jal	10988
   1f1e0:	93 57 03 01 	srli	a5, t1, 16
   1f1e4:	b3 89 e9 00 	add	s3, s3, a4
   1f1e8:	b3 87 37 01 	add	a5, a5, s3
   1f1ec:	63 f4 e7 00 	bgeu	a5, a4, 8
   1f1f0:	33 05 75 00 	add	a0, a0, t2
   1f1f4:	b7 03 01 00 	lui	t2, 16
   1f1f8:	93 85 f3 ff 	addi	a1, t2, -1
   1f1fc:	33 f7 b7 00 	and	a4, a5, a1
   1f200:	33 73 b3 00 	and	t1, t1, a1
   1f204:	13 17 07 01 	slli	a4, a4, 16
   1f208:	33 07 67 00 	add	a4, a4, t1
   1f20c:	03 23 81 02 	lw	t1, 40(sp)
   1f210:	93 d9 07 01 	srli	s3, a5, 16
   1f214:	b3 f7 b2 00 	and	a5, t0, a1
   1f218:	b3 7a b3 00 	and	s5, t1, a1
   1f21c:	b3 89 a9 00 	add	s3, s3, a0
   1f220:	13 d9 02 01 	srli	s2, t0, 16
   1f224:	13 5b 03 01 	srli	s6, t1, 16
   1f228:	13 85 07 00 	mv	a0, a5
   1f22c:	93 85 0a 00 	mv	a1, s5
   1f230:	ef 20 90 29 	jal	10904
   1f234:	13 0e 05 00 	mv	t3, a0
   1f238:	93 05 0b 00 	mv	a1, s6
   1f23c:	13 85 07 00 	mv	a0, a5
   1f240:	ef 20 90 28 	jal	10888
   1f244:	93 07 05 00 	mv	a5, a0
   1f248:	93 85 0a 00 	mv	a1, s5
   1f24c:	13 05 09 00 	mv	a0, s2
   1f250:	ef 20 90 27 	jal	10872
   1f254:	93 0a 05 00 	mv	s5, a0
   1f258:	93 05 0b 00 	mv	a1, s6
   1f25c:	13 05 09 00 	mv	a0, s2
   1f260:	ef 20 90 26 	jal	10856
   1f264:	93 56 0e 01 	srli	a3, t3, 16
   1f268:	b3 87 57 01 	add	a5, a5, s5
   1f26c:	b3 86 f6 00 	add	a3, a3, a5
   1f270:	63 f4 56 01 	bgeu	a3, s5, 8
   1f274:	33 05 75 00 	add	a0, a0, t2
   1f278:	37 0d 01 00 	lui	s10, 16
   1f27c:	93 03 fd ff 	addi	t2, s10, -1
   1f280:	b3 f7 76 00 	and	a5, a3, t2
   1f284:	33 7e 7e 00 	and	t3, t3, t2
   1f288:	93 97 07 01 	slli	a5, a5, 16
   1f28c:	b3 87 c7 01 	add	a5, a5, t3
   1f290:	03 2e 81 01 	lw	t3, 24(sp)
   1f294:	13 d9 06 01 	srli	s2, a3, 16
   1f298:	33 09 a9 00 	add	s2, s2, a0
   1f29c:	b3 7c 7e 00 	and	s9, t3, t2
   1f2a0:	b3 f3 7f 00 	and	t2, t6, t2
   1f2a4:	93 5d 0e 01 	srli	s11, t3, 16
   1f2a8:	13 db 0f 01 	srli	s6, t6, 16
   1f2ac:	13 85 0c 00 	mv	a0, s9
   1f2b0:	93 85 03 00 	mv	a1, t2
   1f2b4:	ef 20 50 21 	jal	10772
   1f2b8:	93 0a 05 00 	mv	s5, a0
   1f2bc:	93 05 0b 00 	mv	a1, s6
   1f2c0:	13 85 0c 00 	mv	a0, s9
   1f2c4:	ef 20 50 20 	jal	10756
   1f2c8:	93 0c 05 00 	mv	s9, a0
   1f2cc:	93 85 03 00 	mv	a1, t2
   1f2d0:	13 85 0d 00 	mv	a0, s11
   1f2d4:	ef 20 50 1f 	jal	10740
   1f2d8:	93 03 05 00 	mv	t2, a0
   1f2dc:	93 05 0b 00 	mv	a1, s6
   1f2e0:	13 85 0d 00 	mv	a0, s11
   1f2e4:	ef 20 50 1e 	jal	10724
   1f2e8:	13 d6 0a 01 	srli	a2, s5, 16
   1f2ec:	b3 8c 7c 00 	add	s9, s9, t2
   1f2f0:	b3 0c 96 01 	add	s9, a2, s9
   1f2f4:	63 f4 7c 00 	bgeu	s9, t2, 8
   1f2f8:	33 05 a5 01 	add	a0, a0, s10
   1f2fc:	03 26 41 04 	lw	a2, 68(sp)
   1f300:	93 d6 0c 01 	srli	a3, s9, 16
   1f304:	b3 86 a6 00 	add	a3, a3, a0
   1f308:	03 25 c1 00 	lw	a0, 12(sp)
   1f30c:	33 06 c8 00 	add	a2, a6, a2
   1f310:	b3 30 06 01 	sltu	ra, a2, a6
   1f314:	33 08 15 00 	add	a6, a0, ra
   1f318:	b7 03 01 00 	lui	t2, 16
   1f31c:	93 85 f3 ff 	addi	a1, t2, -1
   1f320:	33 0c 88 01 	add	s8, a6, s8
   1f324:	33 06 16 01 	add	a2, a2, a7
   1f328:	b3 38 16 01 	sltu	a7, a2, a7
   1f32c:	33 05 4c 01 	add	a0, s8, s4
   1f330:	b3 fc bc 00 	and	s9, s9, a1
   1f334:	33 08 15 01 	add	a6, a0, a7
   1f338:	b3 fa ba 00 	and	s5, s5, a1
   1f33c:	93 9c 0c 01 	slli	s9, s9, 16
   1f340:	b3 8c 5c 01 	add	s9, s9, s5
   1f344:	33 35 45 01 	sltu	a0, a0, s4
   1f348:	b3 0a e8 00 	add	s5, a6, a4
   1f34c:	33 38 18 01 	sltu	a6, a6, a7
   1f350:	33 3c 1c 00 	sltu	s8, s8, ra
   1f354:	33 68 05 01 	or	a6, a0, a6
   1f358:	33 08 88 01 	add	a6, a6, s8
   1f35c:	33 b7 ea 00 	sltu	a4, s5, a4
   1f360:	33 08 38 01 	add	a6, a6, s3
   1f364:	b3 00 e8 00 	add	ra, a6, a4
   1f368:	b3 8a fa 00 	add	s5, s5, a5
   1f36c:	33 85 20 01 	add	a0, ra, s2
   1f370:	b3 b7 fa 00 	sltu	a5, s5, a5
   1f374:	b3 08 f5 00 	add	a7, a0, a5
   1f378:	b3 8a 9a 01 	add	s5, s5, s9
   1f37c:	23 22 c1 04 	sw	a2, 68(sp)
   1f380:	23 24 51 05 	sw	s5, 72(sp)
   1f384:	33 86 d8 00 	add	a2, a7, a3
   1f388:	b3 ba 9a 01 	sltu	s5, s5, s9
   1f38c:	33 0a 56 01 	add	s4, a2, s5
   1f390:	b3 b7 f8 00 	sltu	a5, a7, a5
   1f394:	33 38 38 01 	sltu	a6, a6, s3
   1f398:	33 b7 e0 00 	sltu	a4, ra, a4
   1f39c:	33 35 25 01 	sltu	a0, a0, s2
   1f3a0:	33 65 f5 00 	or	a0, a0, a5
   1f3a4:	33 68 e8 00 	or	a6, a6, a4
   1f3a8:	b3 36 d6 00 	sltu	a3, a2, a3
   1f3ac:	b3 3a 5a 01 	sltu	s5, s4, s5
   1f3b0:	33 08 a8 00 	add	a6, a6, a0
   1f3b4:	b3 ea 56 01 	or	s5, a3, s5
   1f3b8:	b3 0a 58 01 	add	s5, a6, s5
   1f3bc:	03 28 c1 02 	lw	a6, 44(sp)
   1f3c0:	13 d9 02 01 	srli	s2, t0, 16
   1f3c4:	b3 f2 b2 00 	and	t0, t0, a1
   1f3c8:	b3 77 b8 00 	and	a5, a6, a1
   1f3cc:	23 26 41 05 	sw	s4, 76(sp)
   1f3d0:	23 28 51 05 	sw	s5, 80(sp)
   1f3d4:	93 58 08 01 	srli	a7, a6, 16
   1f3d8:	13 85 02 00 	mv	a0, t0
   1f3dc:	93 85 07 00 	mv	a1, a5
   1f3e0:	ef 20 90 0e 	jal	10472
   1f3e4:	93 0c 05 00 	mv	s9, a0
   1f3e8:	93 85 08 00 	mv	a1, a7
   1f3ec:	13 85 02 00 	mv	a0, t0
   1f3f0:	ef 20 90 0d 	jal	10456
   1f3f4:	13 07 05 00 	mv	a4, a0
   1f3f8:	93 85 07 00 	mv	a1, a5
   1f3fc:	13 05 09 00 	mv	a0, s2
   1f400:	ef 20 90 0c 	jal	10440
   1f404:	93 07 05 00 	mv	a5, a0
   1f408:	93 85 08 00 	mv	a1, a7
   1f40c:	13 05 09 00 	mv	a0, s2
   1f410:	ef 20 90 0b 	jal	10424
   1f414:	13 d6 0c 01 	srli	a2, s9, 16
   1f418:	33 07 f7 00 	add	a4, a4, a5
   1f41c:	33 06 e6 00 	add	a2, a2, a4
   1f420:	63 74 f6 00 	bgeu	a2, a5, 8
   1f424:	33 05 75 00 	add	a0, a0, t2
   1f428:	83 28 c1 01 	lw	a7, 28(sp)
   1f42c:	37 07 01 00 	lui	a4, 16
   1f430:	93 07 f7 ff 	addi	a5, a4, -1
   1f434:	13 5a 06 01 	srli	s4, a2, 16
   1f438:	33 76 f6 00 	and	a2, a2, a5
   1f43c:	13 16 06 01 	slli	a2, a2, 16
   1f440:	b3 fc fc 00 	and	s9, s9, a5
   1f444:	93 d2 0f 01 	srli	t0, t6, 16
   1f448:	33 f9 f8 00 	and	s2, a7, a5
   1f44c:	b3 ff ff 00 	and	t6, t6, a5
   1f450:	33 0a aa 00 	add	s4, s4, a0
   1f454:	b3 0c 96 01 	add	s9, a2, s9
   1f458:	93 d3 08 01 	srli	t2, a7, 16
   1f45c:	13 05 09 00 	mv	a0, s2
   1f460:	93 85 0f 00 	mv	a1, t6
   1f464:	ef 20 50 06 	jal	10340
   1f468:	13 0b 05 00 	mv	s6, a0
   1f46c:	93 85 02 00 	mv	a1, t0
   1f470:	13 05 09 00 	mv	a0, s2
   1f474:	ef 20 50 05 	jal	10324
   1f478:	93 07 05 00 	mv	a5, a0
   1f47c:	93 85 0f 00 	mv	a1, t6
   1f480:	13 85 03 00 	mv	a0, t2
   1f484:	ef 20 50 04 	jal	10308
   1f488:	93 0f 05 00 	mv	t6, a0
   1f48c:	93 85 02 00 	mv	a1, t0
   1f490:	13 85 03 00 	mv	a0, t2
   1f494:	ef 20 50 03 	jal	10292
   1f498:	93 56 0b 01 	srli	a3, s6, 16
   1f49c:	b3 87 f7 01 	add	a5, a5, t6
   1f4a0:	b3 86 f6 00 	add	a3, a3, a5
   1f4a4:	63 f4 f6 01 	bgeu	a3, t6, 8
   1f4a8:	33 05 e5 00 	add	a0, a0, a4
   1f4ac:	b7 02 01 00 	lui	t0, 16
   1f4b0:	93 87 f2 ff 	addi	a5, t0, -1
   1f4b4:	93 d9 06 01 	srli	s3, a3, 16
   1f4b8:	b3 f6 f6 00 	and	a3, a3, a5
   1f4bc:	33 77 ff 00 	and	a4, t5, a5
   1f4c0:	93 96 06 01 	slli	a3, a3, 16
   1f4c4:	33 7b fb 00 	and	s6, s6, a5
   1f4c8:	b3 77 f3 00 	and	a5, t1, a5
   1f4cc:	b3 89 a9 00 	add	s3, s3, a0
   1f4d0:	33 8b 66 01 	add	s6, a3, s6
   1f4d4:	13 59 0f 01 	srli	s2, t5, 16
   1f4d8:	93 53 03 01 	srli	t2, t1, 16
   1f4dc:	13 05 07 00 	mv	a0, a4
   1f4e0:	93 85 07 00 	mv	a1, a5
   1f4e4:	ef 20 40 7e 	jal	10212
   1f4e8:	93 0f 05 00 	mv	t6, a0
   1f4ec:	93 85 03 00 	mv	a1, t2
   1f4f0:	13 05 07 00 	mv	a0, a4
   1f4f4:	ef 20 40 7d 	jal	10196
   1f4f8:	13 07 05 00 	mv	a4, a0
   1f4fc:	93 85 07 00 	mv	a1, a5
   1f500:	13 05 09 00 	mv	a0, s2
   1f504:	ef 20 40 7c 	jal	10180
   1f508:	93 0a 05 00 	mv	s5, a0
   1f50c:	93 85 03 00 	mv	a1, t2
   1f510:	13 05 09 00 	mv	a0, s2
   1f514:	ef 20 40 7b 	jal	10164
   1f518:	93 d7 0f 01 	srli	a5, t6, 16
   1f51c:	33 07 57 01 	add	a4, a4, s5
   1f520:	b3 87 e7 00 	add	a5, a5, a4
   1f524:	63 f4 57 01 	bgeu	a5, s5, 8
   1f528:	33 05 55 00 	add	a0, a0, t0
   1f52c:	b7 03 01 00 	lui	t2, 16
   1f530:	93 86 f3 ff 	addi	a3, t2, -1
   1f534:	33 f7 d7 00 	and	a4, a5, a3
   1f538:	13 d9 07 01 	srli	s2, a5, 16
   1f53c:	b3 ff df 00 	and	t6, t6, a3
   1f540:	b3 72 de 00 	and	t0, t3, a3
   1f544:	b3 fa de 00 	and	s5, t4, a3
   1f548:	13 17 07 01 	slli	a4, a4, 16
   1f54c:	33 09 a9 00 	add	s2, s2, a0
   1f550:	33 07 f7 01 	add	a4, a4, t6
   1f554:	93 57 0e 01 	srli	a5, t3, 16
   1f558:	13 dc 0e 01 	srli	s8, t4, 16
   1f55c:	13 85 02 00 	mv	a0, t0
   1f560:	93 85 0a 00 	mv	a1, s5
   1f564:	ef 20 40 76 	jal	10084
   1f568:	93 0f 05 00 	mv	t6, a0
   1f56c:	93 05 0c 00 	mv	a1, s8
   1f570:	13 85 02 00 	mv	a0, t0
   1f574:	ef 20 40 75 	jal	10068
   1f578:	93 02 05 00 	mv	t0, a0
   1f57c:	93 85 0a 00 	mv	a1, s5
   1f580:	13 85 07 00 	mv	a0, a5
   1f584:	ef 20 40 74 	jal	10052
   1f588:	93 0a 05 00 	mv	s5, a0
   1f58c:	93 05 0c 00 	mv	a1, s8
   1f590:	13 85 07 00 	mv	a0, a5
   1f594:	ef 20 40 73 	jal	10036
   1f598:	b3 86 52 01 	add	a3, t0, s5
   1f59c:	93 d2 0f 01 	srli	t0, t6, 16
   1f5a0:	b3 86 56 00 	add	a3, a3, t0
   1f5a4:	63 f4 56 01 	bgeu	a3, s5, 8
   1f5a8:	33 05 75 00 	add	a0, a0, t2
   1f5ac:	b7 0a 01 00 	lui	s5, 16
   1f5b0:	93 83 fa ff 	addi	t2, s5, -1
   1f5b4:	b3 f7 76 00 	and	a5, a3, t2
   1f5b8:	b3 f2 7f 00 	and	t0, t6, t2
   1f5bc:	93 97 07 01 	slli	a5, a5, 16
   1f5c0:	b3 82 57 00 	add	t0, a5, t0
   1f5c4:	83 27 c1 04 	lw	a5, 76(sp)
   1f5c8:	83 2f 01 05 	lw	t6, 80(sp)
   1f5cc:	13 dc 06 01 	srli	s8, a3, 16
   1f5d0:	b3 87 fc 00 	add	a5, s9, a5
   1f5d4:	33 b6 97 01 	sltu	a2, a5, s9
   1f5d8:	b3 0f fa 01 	add	t6, s4, t6
   1f5dc:	b3 8d cf 00 	add	s11, t6, a2
   1f5e0:	b3 87 67 01 	add	a5, a5, s6
   1f5e4:	b3 b6 67 01 	sltu	a3, a5, s6
   1f5e8:	33 8b 3d 01 	add	s6, s11, s3
   1f5ec:	33 0d db 00 	add	s10, s6, a3
   1f5f0:	b3 87 e7 00 	add	a5, a5, a4
   1f5f4:	33 b7 e7 00 	sltu	a4, a5, a4
   1f5f8:	b3 05 2d 01 	add	a1, s10, s2
   1f5fc:	b3 8c e5 00 	add	s9, a1, a4
   1f600:	33 0c ac 00 	add	s8, s8, a0
   1f604:	b3 87 57 00 	add	a5, a5, t0
   1f608:	23 26 f1 04 	sw	a5, 76(sp)
   1f60c:	b3 bf 4f 01 	sltu	t6, t6, s4
   1f610:	b3 b7 57 00 	sltu	a5, a5, t0
   1f614:	33 b6 cd 00 	sltu	a2, s11, a2
   1f618:	b3 82 8c 01 	add	t0, s9, s8
   1f61c:	b3 39 3b 01 	sltu	s3, s6, s3
   1f620:	b3 36 dd 00 	sltu	a3, s10, a3
   1f624:	b3 80 f2 00 	add	ra, t0, a5
   1f628:	33 b7 ec 00 	sltu	a4, s9, a4
   1f62c:	b3 ef cf 00 	or	t6, t6, a2
   1f630:	b3 e9 d9 00 	or	s3, s3, a3
   1f634:	b3 b5 25 01 	sltu	a1, a1, s2
   1f638:	33 bc 82 01 	sltu	s8, t0, s8
   1f63c:	b3 8f 3f 01 	add	t6, t6, s3
   1f640:	b3 e5 e5 00 	or	a1, a1, a4
   1f644:	b3 b7 f0 00 	sltu	a5, ra, a5
   1f648:	b3 85 bf 00 	add	a1, t6, a1
   1f64c:	b3 67 fc 00 	or	a5, s8, a5
   1f650:	b3 87 f5 00 	add	a5, a1, a5
   1f654:	33 77 7e 00 	and	a4, t3, t2
   1f658:	b3 73 73 00 	and	t2, t1, t2
   1f65c:	23 2a f1 04 	sw	a5, 84(sp)
   1f660:	23 28 11 04 	sw	ra, 80(sp)
   1f664:	93 52 0e 01 	srli	t0, t3, 16
   1f668:	93 57 03 01 	srli	a5, t1, 16
   1f66c:	13 05 07 00 	mv	a0, a4
   1f670:	93 85 03 00 	mv	a1, t2
   1f674:	ef 20 40 65 	jal	9812
   1f678:	93 0f 05 00 	mv	t6, a0
   1f67c:	93 85 07 00 	mv	a1, a5
   1f680:	13 05 07 00 	mv	a0, a4
   1f684:	ef 20 40 64 	jal	9796
   1f688:	13 07 05 00 	mv	a4, a0
   1f68c:	93 85 03 00 	mv	a1, t2
   1f690:	13 85 02 00 	mv	a0, t0
   1f694:	ef 20 40 63 	jal	9780
   1f698:	93 03 05 00 	mv	t2, a0
   1f69c:	93 85 07 00 	mv	a1, a5
   1f6a0:	13 85 02 00 	mv	a0, t0
   1f6a4:	ef 20 40 62 	jal	9764
   1f6a8:	13 d6 0f 01 	srli	a2, t6, 16
   1f6ac:	33 07 77 00 	add	a4, a4, t2
   1f6b0:	33 06 e6 00 	add	a2, a2, a4
   1f6b4:	63 74 76 00 	bgeu	a2, t2, 8
   1f6b8:	33 05 55 01 	add	a0, a0, s5
   1f6bc:	b7 02 01 00 	lui	t0, 16
   1f6c0:	93 87 f2 ff 	addi	a5, t0, -1
   1f6c4:	13 57 06 01 	srli	a4, a2, 16
   1f6c8:	33 76 f6 00 	and	a2, a2, a5
   1f6cc:	b3 09 a7 00 	add	s3, a4, a0
   1f6d0:	13 16 06 01 	slli	a2, a2, 16
   1f6d4:	33 f7 ff 00 	and	a4, t6, a5
   1f6d8:	13 59 0f 01 	srli	s2, t5, 16
   1f6dc:	b3 7f f8 00 	and	t6, a6, a5
   1f6e0:	33 7f ff 00 	and	t5, t5, a5
   1f6e4:	33 07 e6 00 	add	a4, a2, a4
   1f6e8:	93 53 08 01 	srli	t2, a6, 16
   1f6ec:	13 05 0f 00 	mv	a0, t5
   1f6f0:	93 85 0f 00 	mv	a1, t6
   1f6f4:	ef 20 40 5d 	jal	9684
   1f6f8:	13 0a 05 00 	mv	s4, a0
   1f6fc:	93 85 03 00 	mv	a1, t2
   1f700:	13 05 0f 00 	mv	a0, t5
   1f704:	ef 20 40 5c 	jal	9668
   1f708:	93 07 05 00 	mv	a5, a0
   1f70c:	93 85 0f 00 	mv	a1, t6
   1f710:	13 05 09 00 	mv	a0, s2
   1f714:	ef 20 40 5b 	jal	9652
   1f718:	93 0f 05 00 	mv	t6, a0
   1f71c:	93 85 03 00 	mv	a1, t2
   1f720:	13 05 09 00 	mv	a0, s2
   1f724:	ef 20 40 5a 	jal	9636
   1f728:	b3 86 f7 01 	add	a3, a5, t6
   1f72c:	93 57 0a 01 	srli	a5, s4, 16
   1f730:	b3 86 f6 00 	add	a3, a3, a5
   1f734:	63 f4 f6 01 	bgeu	a3, t6, 8
   1f738:	33 05 55 00 	add	a0, a0, t0
   1f73c:	37 0f 01 00 	lui	t5, 16
   1f740:	13 06 ff ff 	addi	a2, t5, -1
   1f744:	13 d9 06 01 	srli	s2, a3, 16
   1f748:	b3 f6 c6 00 	and	a3, a3, a2
   1f74c:	93 96 06 01 	slli	a3, a3, 16
   1f750:	33 7a ca 00 	and	s4, s4, a2
   1f754:	93 d3 0e 01 	srli	t2, t4, 16
   1f758:	b3 f2 c8 00 	and	t0, a7, a2
   1f75c:	b3 fe ce 00 	and	t4, t4, a2
   1f760:	33 09 a9 00 	add	s2, s2, a0
   1f764:	33 8a 46 01 	add	s4, a3, s4
   1f768:	93 d7 08 01 	srli	a5, a7, 16
   1f76c:	13 85 02 00 	mv	a0, t0
   1f770:	93 85 0e 00 	mv	a1, t4
   1f774:	ef 20 40 55 	jal	9556
   1f778:	93 0f 05 00 	mv	t6, a0
   1f77c:	93 85 03 00 	mv	a1, t2
   1f780:	13 85 02 00 	mv	a0, t0
   1f784:	ef 20 40 54 	jal	9540
   1f788:	93 02 05 00 	mv	t0, a0
   1f78c:	93 85 0e 00 	mv	a1, t4
   1f790:	13 85 07 00 	mv	a0, a5
   1f794:	ef 20 40 53 	jal	9524
   1f798:	93 0e 05 00 	mv	t4, a0
   1f79c:	93 85 03 00 	mv	a1, t2
   1f7a0:	13 85 07 00 	mv	a0, a5
   1f7a4:	ef 20 40 52 	jal	9508
   1f7a8:	93 d6 0f 01 	srli	a3, t6, 16
   1f7ac:	b3 82 d2 01 	add	t0, t0, t4
   1f7b0:	b3 86 56 00 	add	a3, a3, t0
   1f7b4:	63 f4 d6 01 	bgeu	a3, t4, 8
   1f7b8:	33 05 e5 01 	add	a0, a0, t5
   1f7bc:	b7 0e 01 00 	lui	t4, 16
   1f7c0:	93 87 fe ff 	addi	a5, t4, -1
   1f7c4:	b3 f5 f6 00 	and	a1, a3, a5
   1f7c8:	93 d3 06 01 	srli	t2, a3, 16
   1f7cc:	93 95 05 01 	slli	a1, a1, 16
   1f7d0:	b3 ff ff 00 	and	t6, t6, a5
   1f7d4:	93 5a 0e 01 	srli	s5, t3, 16
   1f7d8:	33 7e fe 00 	and	t3, t3, a5
   1f7dc:	b3 77 f8 00 	and	a5, a6, a5
   1f7e0:	b3 83 a3 00 	add	t2, t2, a0
   1f7e4:	b3 8f f5 01 	add	t6, a1, t6
   1f7e8:	93 52 08 01 	srli	t0, a6, 16
   1f7ec:	13 05 0e 00 	mv	a0, t3
   1f7f0:	93 85 07 00 	mv	a1, a5
   1f7f4:	ef 20 40 4d 	jal	9428
   1f7f8:	13 0f 05 00 	mv	t5, a0
   1f7fc:	93 85 02 00 	mv	a1, t0
   1f800:	13 05 0e 00 	mv	a0, t3
   1f804:	ef 20 40 4c 	jal	9412
   1f808:	13 0e 05 00 	mv	t3, a0
   1f80c:	93 85 07 00 	mv	a1, a5
   1f810:	13 85 0a 00 	mv	a0, s5
   1f814:	ef 20 40 4b 	jal	9396
   1f818:	93 07 05 00 	mv	a5, a0
   1f81c:	93 85 02 00 	mv	a1, t0
   1f820:	13 85 0a 00 	mv	a0, s5
   1f824:	ef 20 40 4a 	jal	9380
   1f828:	93 56 0f 01 	srli	a3, t5, 16
   1f82c:	33 0e fe 00 	add	t3, t3, a5
   1f830:	b3 86 c6 01 	add	a3, a3, t3
   1f834:	63 f4 f6 00 	bgeu	a3, a5, 8
   1f838:	33 05 d5 01 	add	a0, a0, t4
   1f83c:	b7 0e 01 00 	lui	t4, 16
   1f840:	13 86 fe ff 	addi	a2, t4, -1
   1f844:	33 fe c6 00 	and	t3, a3, a2
   1f848:	33 7f cf 00 	and	t5, t5, a2
   1f84c:	13 1e 0e 01 	slli	t3, t3, 16
   1f850:	93 d7 06 01 	srli	a5, a3, 16
   1f854:	33 0e ee 01 	add	t3, t3, t5
   1f858:	13 5b 03 01 	srli	s6, t1, 16
   1f85c:	33 ff c8 00 	and	t5, a7, a2
   1f860:	33 73 c3 00 	and	t1, t1, a2
   1f864:	b3 82 a7 00 	add	t0, a5, a0
   1f868:	93 05 03 00 	mv	a1, t1
   1f86c:	93 d7 08 01 	srli	a5, a7, 16
   1f870:	13 05 0f 00 	mv	a0, t5
   1f874:	ef 20 40 45 	jal	9300
   1f878:	93 0a 05 00 	mv	s5, a0
   1f87c:	93 05 0b 00 	mv	a1, s6
   1f880:	13 05 0f 00 	mv	a0, t5
   1f884:	ef 20 40 44 	jal	9284
   1f888:	13 0f 05 00 	mv	t5, a0
   1f88c:	93 05 03 00 	mv	a1, t1
   1f890:	13 85 07 00 	mv	a0, a5
   1f894:	ef 20 40 43 	jal	9268
   1f898:	13 03 05 00 	mv	t1, a0
   1f89c:	93 05 0b 00 	mv	a1, s6
   1f8a0:	13 85 07 00 	mv	a0, a5
   1f8a4:	ef 20 40 42 	jal	9252
   1f8a8:	93 d6 0a 01 	srli	a3, s5, 16
   1f8ac:	33 0f 6f 00 	add	t5, t5, t1
   1f8b0:	b3 86 e6 01 	add	a3, a3, t5
   1f8b4:	63 f4 66 00 	bgeu	a3, t1, 8
   1f8b8:	33 05 d5 01 	add	a0, a0, t4
   1f8bc:	83 25 01 05 	lw	a1, 80(sp)
   1f8c0:	b7 0e 01 00 	lui	t4, 16
   1f8c4:	13 83 fe ff 	addi	t1, t4, -1
   1f8c8:	b3 05 b7 00 	add	a1, a4, a1
   1f8cc:	33 b6 e5 00 	sltu	a2, a1, a4
   1f8d0:	03 27 41 05 	lw	a4, 84(sp)
   1f8d4:	33 ff 66 00 	and	t5, a3, t1
   1f8d8:	b3 fa 6a 00 	and	s5, s5, t1
   1f8dc:	33 87 e9 00 	add	a4, s3, a4
   1f8e0:	b3 0c c7 00 	add	s9, a4, a2
   1f8e4:	b3 85 45 01 	add	a1, a1, s4
   1f8e8:	13 1f 0f 01 	slli	t5, t5, 16
   1f8ec:	93 d7 06 01 	srli	a5, a3, 16
   1f8f0:	33 0f 5f 01 	add	t5, t5, s5
   1f8f4:	b3 b6 45 01 	sltu	a3, a1, s4
   1f8f8:	b3 8a 2c 01 	add	s5, s9, s2
   1f8fc:	33 8c da 00 	add	s8, s5, a3
   1f900:	b3 85 f5 01 	add	a1, a1, t6
   1f904:	33 0a 7c 00 	add	s4, s8, t2
   1f908:	b3 36 dc 00 	sltu	a3, s8, a3
   1f90c:	23 28 b1 04 	sw	a1, 80(sp)
   1f910:	33 37 37 01 	sltu	a4, a4, s3
   1f914:	b3 b5 f5 01 	sltu	a1, a1, t6
   1f918:	33 b6 cc 00 	sltu	a2, s9, a2
   1f91c:	33 b9 2a 01 	sltu	s2, s5, s2
   1f920:	33 0b ba 00 	add	s6, s4, a1
   1f924:	33 85 a7 00 	add	a0, a5, a0
   1f928:	33 67 c7 00 	or	a4, a4, a2
   1f92c:	b3 67 d9 00 	or	a5, s2, a3
   1f930:	33 07 f7 00 	add	a4, a4, a5
   1f934:	b3 33 7a 00 	sltu	t2, s4, t2
   1f938:	b3 37 bb 00 	sltu	a5, s6, a1
   1f93c:	b3 e7 f3 00 	or	a5, t2, a5
   1f940:	b3 0f cb 01 	add	t6, s6, t3
   1f944:	33 07 f7 00 	add	a4, a4, a5
   1f948:	b3 07 57 00 	add	a5, a4, t0
   1f94c:	33 be cf 01 	sltu	t3, t6, t3
   1f950:	b3 86 c7 01 	add	a3, a5, t3
   1f954:	b3 8f ef 01 	add	t6, t6, t5
   1f958:	33 87 a6 00 	add	a4, a3, a0
   1f95c:	33 bf ef 01 	sltu	t5, t6, t5
   1f960:	23 2a f1 05 	sw	t6, 84(sp)
   1f964:	b3 0f e7 01 	add	t6, a4, t5
   1f968:	33 35 a7 00 	sltu	a0, a4, a0
   1f96c:	b3 b7 57 00 	sltu	a5, a5, t0
   1f970:	33 be c6 01 	sltu	t3, a3, t3
   1f974:	33 bf ef 01 	sltu	t5, t6, t5
   1f978:	33 6f e5 01 	or	t5, a0, t5
   1f97c:	b3 e7 c7 01 	or	a5, a5, t3
   1f980:	b3 87 e7 01 	add	a5, a5, t5
   1f984:	23 2e f1 04 	sw	a5, 92(sp)
   1f988:	13 df 08 01 	srli	t5, a7, 16
   1f98c:	93 57 08 01 	srli	a5, a6, 16
   1f990:	b3 f8 68 00 	and	a7, a7, t1
   1f994:	33 78 68 00 	and	a6, a6, t1
   1f998:	23 2c f1 05 	sw	t6, 88(sp)
   1f99c:	13 85 08 00 	mv	a0, a7
   1f9a0:	93 05 08 00 	mv	a1, a6
   1f9a4:	ef 20 40 32 	jal	8996
   1f9a8:	13 0e 05 00 	mv	t3, a0
   1f9ac:	93 85 07 00 	mv	a1, a5
   1f9b0:	13 85 08 00 	mv	a0, a7
   1f9b4:	ef 20 40 31 	jal	8980
   1f9b8:	13 07 05 00 	mv	a4, a0
   1f9bc:	93 05 08 00 	mv	a1, a6
   1f9c0:	13 05 0f 00 	mv	a0, t5
   1f9c4:	ef 20 40 30 	jal	8964
   1f9c8:	13 08 05 00 	mv	a6, a0
   1f9cc:	93 85 07 00 	mv	a1, a5
   1f9d0:	13 05 0f 00 	mv	a0, t5
   1f9d4:	ef 20 40 2f 	jal	8948
   1f9d8:	93 57 0e 01 	srli	a5, t3, 16
   1f9dc:	33 07 07 01 	add	a4, a4, a6
   1f9e0:	b3 87 e7 00 	add	a5, a5, a4
   1f9e4:	63 f4 07 01 	bgeu	a5, a6, 8
   1f9e8:	33 05 d5 01 	add	a0, a0, t4
   1f9ec:	33 f7 67 00 	and	a4, a5, t1
   1f9f0:	13 17 07 01 	slli	a4, a4, 16
   1f9f4:	33 73 6e 00 	and	t1, t3, t1
   1f9f8:	33 03 67 00 	add	t1, a4, t1
   1f9fc:	03 27 81 05 	lw	a4, 88(sp)
   1fa00:	83 26 c1 05 	lw	a3, 92(sp)
   1fa04:	93 d7 07 01 	srli	a5, a5, 16
   1fa08:	33 07 e3 00 	add	a4, t1, a4
   1fa0c:	33 33 67 00 	sltu	t1, a4, t1
   1fa10:	b3 87 d7 00 	add	a5, a5, a3
   1fa14:	b3 87 67 00 	add	a5, a5, t1
   1fa18:	b3 87 a7 00 	add	a5, a5, a0
   1fa1c:	23 2e f1 04 	sw	a5, 92(sp)
   1fa20:	23 2c e1 04 	sw	a4, 88(sp)
   1fa24:	83 27 01 04 	lw	a5, 64(sp)
   1fa28:	03 27 41 04 	lw	a4, 68(sp)
   1fa2c:	93 05 01 05 	addi	a1, sp, 80
   1fa30:	b3 e7 e7 00 	or	a5, a5, a4
   1fa34:	03 27 81 04 	lw	a4, 72(sp)
   1fa38:	33 e7 e7 00 	or	a4, a5, a4
   1fa3c:	83 27 c1 04 	lw	a5, 76(sp)
   1fa40:	93 97 d7 00 	slli	a5, a5, 13
   1fa44:	b3 e7 e7 00 	or	a5, a5, a4
   1fa48:	13 07 01 04 	addi	a4, sp, 64
   1fa4c:	83 26 c7 00 	lw	a3, 12(a4)
   1fa50:	03 26 07 01 	lw	a2, 16(a4)
   1fa54:	13 07 47 00 	addi	a4, a4, 4
   1fa58:	93 d6 36 01 	srli	a3, a3, 19
   1fa5c:	13 16 d6 00 	slli	a2, a2, 13
   1fa60:	b3 e6 c6 00 	or	a3, a3, a2
   1fa64:	23 2e d7 fe 	sw	a3, -4(a4)
   1fa68:	e3 92 e5 fe 	bne	a1, a4, -28
   1fa6c:	03 27 01 04 	lw	a4, 64(sp)
   1fa70:	83 26 81 04 	lw	a3, 72(sp)
   1fa74:	b3 37 f0 00 	snez	a5, a5
   1fa78:	b3 e7 e7 00 	or	a5, a5, a4
   1fa7c:	23 2c d1 02 	sw	a3, 56(sp)
   1fa80:	03 27 c1 04 	lw	a4, 76(sp)
   1fa84:	83 26 41 04 	lw	a3, 68(sp)
   1fa88:	23 28 f1 02 	sw	a5, 48(sp)
   1fa8c:	23 2e e1 02 	sw	a4, 60(sp)
   1fa90:	23 2a d1 02 	sw	a3, 52(sp)
   1fa94:	93 16 b7 00 	slli	a3, a4, 11
   1fa98:	63 d0 06 22 	bgez	a3, 544
   1fa9c:	93 97 f7 01 	slli	a5, a5, 31
   1faa0:	13 07 01 03 	addi	a4, sp, 48
   1faa4:	93 05 c1 03 	addi	a1, sp, 60
   1faa8:	83 26 07 00 	lw	a3, 0(a4)
   1faac:	03 26 47 00 	lw	a2, 4(a4)
   1fab0:	13 07 47 00 	addi	a4, a4, 4
   1fab4:	93 d6 16 00 	srli	a3, a3, 1
   1fab8:	13 16 f6 01 	slli	a2, a2, 31
   1fabc:	b3 e6 c6 00 	or	a3, a3, a2
   1fac0:	23 2e d7 fe 	sw	a3, -4(a4)
   1fac4:	e3 92 e5 fe 	bne	a1, a4, -28
   1fac8:	03 27 c1 03 	lw	a4, 60(sp)
   1facc:	b3 37 f0 00 	snez	a5, a5
   1fad0:	13 57 17 00 	srli	a4, a4, 1
   1fad4:	23 2e e1 02 	sw	a4, 60(sp)
   1fad8:	03 27 01 03 	lw	a4, 48(sp)
   1fadc:	b3 67 f7 00 	or	a5, a4, a5
   1fae0:	23 28 f1 02 	sw	a5, 48(sp)
   1fae4:	b7 47 00 00 	lui	a5, 4
   1fae8:	93 87 f7 ff 	addi	a5, a5, -1
   1faec:	b3 87 fb 00 	add	a5, s7, a5
   1faf0:	63 54 f0 1e 	blez	a5, 488
   1faf4:	03 27 01 03 	lw	a4, 48(sp)
   1faf8:	93 76 77 00 	andi	a3, a4, 7
   1fafc:	63 84 06 04 	beqz	a3, 72
   1fb00:	93 76 f7 00 	andi	a3, a4, 15
   1fb04:	13 06 40 00 	addi	a2, zero, 4
   1fb08:	63 8e c6 02 	beq	a3, a2, 60
   1fb0c:	83 26 41 03 	lw	a3, 52(sp)
   1fb10:	13 07 47 00 	addi	a4, a4, 4
   1fb14:	23 28 e1 02 	sw	a4, 48(sp)
   1fb18:	13 37 47 00 	sltiu	a4, a4, 4
   1fb1c:	b3 06 d7 00 	add	a3, a4, a3
   1fb20:	33 b7 e6 00 	sltu	a4, a3, a4
   1fb24:	23 2a d1 02 	sw	a3, 52(sp)
   1fb28:	83 26 81 03 	lw	a3, 56(sp)
   1fb2c:	b3 06 d7 00 	add	a3, a4, a3
   1fb30:	23 2c d1 02 	sw	a3, 56(sp)
   1fb34:	b3 b6 e6 00 	sltu	a3, a3, a4
   1fb38:	03 27 c1 03 	lw	a4, 60(sp)
   1fb3c:	b3 86 e6 00 	add	a3, a3, a4
   1fb40:	23 2e d1 02 	sw	a3, 60(sp)
   1fb44:	03 27 c1 03 	lw	a4, 60(sp)
   1fb48:	93 16 b7 00 	slli	a3, a4, 11
   1fb4c:	63 de 06 00 	bgez	a3, 28
   1fb50:	b7 07 f0 ff 	lui	a5, 1048320
   1fb54:	93 87 f7 ff 	addi	a5, a5, -1
   1fb58:	33 77 f7 00 	and	a4, a4, a5
   1fb5c:	b7 47 00 00 	lui	a5, 4
   1fb60:	23 2e e1 02 	sw	a4, 60(sp)
   1fb64:	b3 87 fb 00 	add	a5, s7, a5
   1fb68:	13 07 01 03 	addi	a4, sp, 48
   1fb6c:	93 05 c1 03 	addi	a1, sp, 60
   1fb70:	83 26 07 00 	lw	a3, 0(a4)
   1fb74:	03 26 47 00 	lw	a2, 4(a4)
   1fb78:	13 07 47 00 	addi	a4, a4, 4
   1fb7c:	93 d6 36 00 	srli	a3, a3, 3
   1fb80:	13 16 d6 01 	slli	a2, a2, 29
   1fb84:	b3 e6 c6 00 	or	a3, a3, a2
   1fb88:	23 2e d7 fe 	sw	a3, -4(a4)
   1fb8c:	e3 12 b7 fe 	bne	a4, a1, -28
   1fb90:	37 87 00 00 	lui	a4, 8
   1fb94:	93 06 e7 ff 	addi	a3, a4, -2
   1fb98:	63 c4 f6 12 	blt	a3, a5, 296
   1fb9c:	03 27 c1 03 	lw	a4, 60(sp)
   1fba0:	13 57 37 00 	srli	a4, a4, 3
   1fba4:	23 2e e1 02 	sw	a4, 60(sp)
   1fba8:	03 27 c1 03 	lw	a4, 60(sp)
   1fbac:	93 97 17 01 	slli	a5, a5, 17
   1fbb0:	b7 06 01 80 	lui	a3, 524304
   1fbb4:	23 16 e1 04 	sh	a4, 76(sp)
   1fbb8:	03 27 c1 04 	lw	a4, 76(sp)
   1fbbc:	93 d7 17 01 	srli	a5, a5, 17
   1fbc0:	93 86 f6 ff 	addi	a3, a3, -1
   1fbc4:	33 77 d7 00 	and	a4, a4, a3
   1fbc8:	93 97 07 01 	slli	a5, a5, 16
   1fbcc:	b3 67 f7 00 	or	a5, a4, a5
   1fbd0:	03 27 01 03 	lw	a4, 48(sp)
   1fbd4:	93 97 17 00 	slli	a5, a5, 1
   1fbd8:	93 94 f4 01 	slli	s1, s1, 31
   1fbdc:	23 20 e4 00 	sw	a4, 0(s0)
   1fbe0:	03 27 41 03 	lw	a4, 52(sp)
   1fbe4:	93 d7 17 00 	srli	a5, a5, 1
   1fbe8:	b3 e7 97 00 	or	a5, a5, s1
   1fbec:	23 22 e4 00 	sw	a4, 4(s0)
   1fbf0:	03 27 81 03 	lw	a4, 56(sp)
   1fbf4:	23 26 f4 00 	sw	a5, 12(s0)
   1fbf8:	13 05 04 00 	mv	a0, s0
   1fbfc:	23 24 e4 00 	sw	a4, 8(s0)
   1fc00:	83 20 c1 09 	lw	ra, 156(sp)
   1fc04:	03 24 81 09 	lw	s0, 152(sp)
   1fc08:	83 24 41 09 	lw	s1, 148(sp)
   1fc0c:	03 29 01 09 	lw	s2, 144(sp)
   1fc10:	83 29 c1 08 	lw	s3, 140(sp)
   1fc14:	03 2a 81 08 	lw	s4, 136(sp)
   1fc18:	83 2a 41 08 	lw	s5, 132(sp)
   1fc1c:	03 2b 01 08 	lw	s6, 128(sp)
   1fc20:	83 2b c1 07 	lw	s7, 124(sp)
   1fc24:	03 2c 81 07 	lw	s8, 120(sp)
   1fc28:	83 2c 41 07 	lw	s9, 116(sp)
   1fc2c:	03 2d 01 07 	lw	s10, 112(sp)
   1fc30:	83 2d c1 06 	lw	s11, 108(sp)
   1fc34:	13 01 01 0a 	addi	sp, sp, 160
   1fc38:	67 80 00 00 	ret
   1fc3c:	93 04 0a 00 	mv	s1, s4
   1fc40:	83 27 01 01 	lw	a5, 16(sp)
   1fc44:	23 28 f1 02 	sw	a5, 48(sp)
   1fc48:	83 27 41 01 	lw	a5, 20(sp)
   1fc4c:	23 2a f1 02 	sw	a5, 52(sp)
   1fc50:	83 27 81 01 	lw	a5, 24(sp)
   1fc54:	23 2c f1 02 	sw	a5, 56(sp)
   1fc58:	83 27 c1 01 	lw	a5, 28(sp)
   1fc5c:	23 2e f1 02 	sw	a5, 60(sp)
   1fc60:	93 07 20 00 	addi	a5, zero, 2
   1fc64:	63 0a fc 26 	beq	s8, a5, 628
   1fc68:	93 07 30 00 	addi	a5, zero, 3
   1fc6c:	63 04 fc 28 	beq	s8, a5, 648
   1fc70:	93 07 10 00 	addi	a5, zero, 1
   1fc74:	e3 18 fc e6 	bne	s8, a5, -400
   1fc78:	23 2e 01 02 	sw	zero, 60(sp)
   1fc7c:	23 2c 01 02 	sw	zero, 56(sp)
   1fc80:	23 2a 01 02 	sw	zero, 52(sp)
   1fc84:	23 28 01 02 	sw	zero, 48(sp)
   1fc88:	6f 00 00 21 	j	528
   1fc8c:	93 84 09 00 	mv	s1, s3
   1fc90:	83 27 01 02 	lw	a5, 32(sp)
   1fc94:	13 0c 07 00 	mv	s8, a4
   1fc98:	23 28 f1 02 	sw	a5, 48(sp)
   1fc9c:	83 27 41 02 	lw	a5, 36(sp)
   1fca0:	23 2a f1 02 	sw	a5, 52(sp)
   1fca4:	83 27 81 02 	lw	a5, 40(sp)
   1fca8:	23 2c f1 02 	sw	a5, 56(sp)
   1fcac:	83 27 c1 02 	lw	a5, 44(sp)
   1fcb0:	23 2e f1 02 	sw	a5, 60(sp)
   1fcb4:	6f f0 df fa 	j	-84
   1fcb8:	83 2b 81 00 	lw	s7, 8(sp)
   1fcbc:	6f f0 9f e2 	j	-472
   1fcc0:	23 2e 01 02 	sw	zero, 60(sp)
   1fcc4:	23 2c 01 02 	sw	zero, 56(sp)
   1fcc8:	23 2a 01 02 	sw	zero, 52(sp)
   1fccc:	23 28 01 02 	sw	zero, 48(sp)
   1fcd0:	93 07 f7 ff 	addi	a5, a4, -1
   1fcd4:	6f f0 5f ed 	j	-300
   1fcd8:	13 07 10 00 	addi	a4, zero, 1
   1fcdc:	b3 07 f7 40 	sub	a5, a4, a5
   1fce0:	13 07 40 07 	addi	a4, zero, 116
   1fce4:	63 4e f7 1a 	blt	a4, a5, 444
   1fce8:	93 d8 57 40 	srai	a7, a5, 5
   1fcec:	13 07 00 00 	mv	a4, zero
   1fcf0:	93 f7 f7 01 	andi	a5, a5, 31
   1fcf4:	93 06 00 00 	mv	a3, zero
   1fcf8:	13 96 26 00 	slli	a2, a3, 2
   1fcfc:	63 9a 16 03 	bne	a3, a7, 52
   1fd00:	63 94 07 04 	bnez	a5, 72
   1fd04:	13 05 30 00 	addi	a0, zero, 3
   1fd08:	93 05 01 03 	addi	a1, sp, 48
   1fd0c:	b3 06 d5 40 	sub	a3, a0, a3
   1fd10:	33 85 c5 00 	add	a0, a1, a2
   1fd14:	03 25 05 00 	lw	a0, 0(a0)
   1fd18:	93 87 17 00 	addi	a5, a5, 1
   1fd1c:	93 85 45 00 	addi	a1, a1, 4
   1fd20:	23 ae a5 fe 	sw	a0, -4(a1)
   1fd24:	e3 d6 f6 fe 	bge	a3, a5, -20
   1fd28:	13 06 40 00 	addi	a2, zero, 4
   1fd2c:	6f 00 80 0b 	j	184
   1fd30:	93 05 01 03 	addi	a1, sp, 48
   1fd34:	33 86 c5 00 	add	a2, a1, a2
   1fd38:	03 26 06 00 	lw	a2, 0(a2)
   1fd3c:	93 86 16 00 	addi	a3, a3, 1
   1fd40:	33 67 c7 00 	or	a4, a4, a2
   1fd44:	6f f0 5f fb 	j	-76
   1fd48:	93 06 01 06 	addi	a3, sp, 96
   1fd4c:	b3 86 c6 00 	add	a3, a3, a2
   1fd50:	83 a6 06 fd 	lw	a3, -48(a3)
   1fd54:	13 08 00 02 	addi	a6, zero, 32
   1fd58:	33 08 f8 40 	sub	a6, a6, a5
   1fd5c:	b3 96 06 01 	sll	a3, a3, a6
   1fd60:	33 67 d7 00 	or	a4, a4, a3
   1fd64:	93 06 01 03 	addi	a3, sp, 48
   1fd68:	33 86 c6 00 	add	a2, a3, a2
   1fd6c:	93 06 30 00 	addi	a3, zero, 3
   1fd70:	13 05 00 00 	mv	a0, zero
   1fd74:	b3 86 16 41 	sub	a3, a3, a7
   1fd78:	13 06 46 00 	addi	a2, a2, 4
   1fd7c:	63 44 d5 02 	blt	a0, a3, 40
   1fd80:	13 06 01 06 	addi	a2, sp, 96
   1fd84:	93 96 26 00 	slli	a3, a3, 2
   1fd88:	b3 06 d6 00 	add	a3, a2, a3
   1fd8c:	03 26 c1 03 	lw	a2, 60(sp)
   1fd90:	b3 57 f6 00 	srl	a5, a2, a5
   1fd94:	23 a8 f6 fc 	sw	a5, -48(a3)
   1fd98:	93 07 40 00 	addi	a5, zero, 4
   1fd9c:	b3 87 17 41 	sub	a5, a5, a7
   1fda0:	6f f0 9f f8 	j	-120
   1fda4:	13 13 25 00 	slli	t1, a0, 2
   1fda8:	93 05 01 03 	addi	a1, sp, 48
   1fdac:	33 83 65 00 	add	t1, a1, t1
   1fdb0:	03 2e 06 00 	lw	t3, 0(a2)
   1fdb4:	83 25 c6 ff 	lw	a1, -4(a2)
   1fdb8:	13 05 15 00 	addi	a0, a0, 1
   1fdbc:	33 1e 0e 01 	sll	t3, t3, a6
   1fdc0:	b3 d5 f5 00 	srl	a1, a1, a5
   1fdc4:	b3 e5 c5 01 	or	a1, a1, t3
   1fdc8:	23 20 b3 00 	sw	a1, 0(t1)
   1fdcc:	6f f0 df fa 	j	-84
   1fdd0:	93 96 27 00 	slli	a3, a5, 2
   1fdd4:	93 05 01 03 	addi	a1, sp, 48
   1fdd8:	b3 86 d5 00 	add	a3, a1, a3
   1fddc:	23 a0 06 00 	sw	zero, 0(a3)
   1fde0:	93 87 17 00 	addi	a5, a5, 1
   1fde4:	e3 96 c7 fe 	bne	a5, a2, -20
   1fde8:	83 26 01 03 	lw	a3, 48(sp)
   1fdec:	33 37 e0 00 	snez	a4, a4
   1fdf0:	33 67 d7 00 	or	a4, a4, a3
   1fdf4:	23 28 e1 02 	sw	a4, 48(sp)
   1fdf8:	93 76 77 00 	andi	a3, a4, 7
   1fdfc:	63 82 06 04 	beqz	a3, 68
   1fe00:	93 76 f7 00 	andi	a3, a4, 15
   1fe04:	63 8e f6 02 	beq	a3, a5, 60
   1fe08:	83 27 41 03 	lw	a5, 52(sp)
   1fe0c:	13 07 47 00 	addi	a4, a4, 4
   1fe10:	23 28 e1 02 	sw	a4, 48(sp)
   1fe14:	13 37 47 00 	sltiu	a4, a4, 4
   1fe18:	b3 07 f7 00 	add	a5, a4, a5
   1fe1c:	33 b7 e7 00 	sltu	a4, a5, a4
   1fe20:	23 2a f1 02 	sw	a5, 52(sp)
   1fe24:	83 27 81 03 	lw	a5, 56(sp)
   1fe28:	b3 07 f7 00 	add	a5, a4, a5
   1fe2c:	23 2c f1 02 	sw	a5, 56(sp)
   1fe30:	b3 b7 e7 00 	sltu	a5, a5, a4
   1fe34:	03 27 c1 03 	lw	a4, 60(sp)
   1fe38:	b3 87 e7 00 	add	a5, a5, a4
   1fe3c:	23 2e f1 02 	sw	a5, 60(sp)
   1fe40:	83 27 c1 03 	lw	a5, 60(sp)
   1fe44:	13 97 c7 00 	slli	a4, a5, 12
   1fe48:	63 5e 07 00 	bgez	a4, 28
   1fe4c:	23 2e 01 02 	sw	zero, 60(sp)
   1fe50:	23 2c 01 02 	sw	zero, 56(sp)
   1fe54:	23 2a 01 02 	sw	zero, 52(sp)
   1fe58:	23 28 01 02 	sw	zero, 48(sp)
   1fe5c:	93 07 10 00 	addi	a5, zero, 1
   1fe60:	6f f0 9f d4 	j	-696
   1fe64:	93 07 01 03 	addi	a5, sp, 48
   1fe68:	13 06 c1 03 	addi	a2, sp, 60
   1fe6c:	03 a7 07 00 	lw	a4, 0(a5)
   1fe70:	83 a6 47 00 	lw	a3, 4(a5)
   1fe74:	93 87 47 00 	addi	a5, a5, 4
   1fe78:	13 57 37 00 	srli	a4, a4, 3
   1fe7c:	93 96 d6 01 	slli	a3, a3, 29
   1fe80:	33 67 d7 00 	or	a4, a4, a3
   1fe84:	23 ae e7 fe 	sw	a4, -4(a5)
   1fe88:	e3 12 f6 fe 	bne	a2, a5, -28
   1fe8c:	83 27 c1 03 	lw	a5, 60(sp)
   1fe90:	93 d7 37 00 	srli	a5, a5, 3
   1fe94:	23 2e f1 02 	sw	a5, 60(sp)
   1fe98:	93 07 00 00 	mv	a5, zero
   1fe9c:	6f f0 df d0 	j	-756
   1fea0:	83 27 41 03 	lw	a5, 52(sp)
   1fea4:	03 27 01 03 	lw	a4, 48(sp)
   1fea8:	33 67 f7 00 	or	a4, a4, a5
   1feac:	83 27 81 03 	lw	a5, 56(sp)
   1feb0:	33 67 f7 00 	or	a4, a4, a5
   1feb4:	83 27 c1 03 	lw	a5, 60(sp)
   1feb8:	33 67 f7 00 	or	a4, a4, a5
   1febc:	93 07 00 00 	mv	a5, zero
   1fec0:	e3 04 07 ce 	beqz	a4, -792
   1fec4:	23 2e 01 02 	sw	zero, 60(sp)
   1fec8:	23 2c 01 02 	sw	zero, 56(sp)
   1fecc:	23 2a 01 02 	sw	zero, 52(sp)
   1fed0:	23 28 01 02 	sw	zero, 48(sp)
   1fed4:	6f f0 5f cd 	j	-812
   1fed8:	b7 87 00 00 	lui	a5, 8
   1fedc:	23 2e 01 02 	sw	zero, 60(sp)
   1fee0:	23 2c 01 02 	sw	zero, 56(sp)
   1fee4:	23 2a 01 02 	sw	zero, 52(sp)
   1fee8:	23 28 01 02 	sw	zero, 48(sp)
   1feec:	93 87 f7 ff 	addi	a5, a5, -1
   1fef0:	6f f0 9f cb 	j	-840
   1fef4:	b7 87 00 00 	lui	a5, 8
   1fef8:	23 2e f1 02 	sw	a5, 60(sp)
   1fefc:	23 2c 01 02 	sw	zero, 56(sp)
   1ff00:	23 2a 01 02 	sw	zero, 52(sp)
   1ff04:	23 28 01 02 	sw	zero, 48(sp)
   1ff08:	93 87 f7 ff 	addi	a5, a5, -1
   1ff0c:	93 04 00 00 	mv	s1, zero
   1ff10:	6f f0 9f c9 	j	-872

__subtf3:
   1ff14:	13 01 01 fa 	addi	sp, sp, -96
   1ff18:	83 a7 85 00 	lw	a5, 8(a1)
   1ff1c:	23 28 21 05 	sw	s2, 80(sp)
   1ff20:	03 a9 c5 00 	lw	s2, 12(a1)
   1ff24:	03 a8 05 00 	lw	a6, 0(a1)
   1ff28:	03 a7 45 00 	lw	a4, 4(a1)
   1ff2c:	23 2a 91 04 	sw	s1, 84(sp)
   1ff30:	23 2c f1 02 	sw	a5, 56(sp)
   1ff34:	93 04 05 00 	mv	s1, a0
   1ff38:	23 2c f1 00 	sw	a5, 24(sp)
   1ff3c:	03 23 06 00 	lw	t1, 0(a2)
   1ff40:	93 17 09 01 	slli	a5, s2, 16
   1ff44:	83 25 46 00 	lw	a1, 4(a2)
   1ff48:	83 26 86 00 	lw	a3, 8(a2)
   1ff4c:	03 25 c6 00 	lw	a0, 12(a2)
   1ff50:	23 2c 81 04 	sw	s0, 88(sp)
   1ff54:	93 d7 07 01 	srli	a5, a5, 16
   1ff58:	13 14 19 00 	slli	s0, s2, 1
   1ff5c:	23 28 01 03 	sw	a6, 48(sp)
   1ff60:	23 2e 21 03 	sw	s2, 60(sp)
   1ff64:	23 28 01 01 	sw	a6, 16(sp)
   1ff68:	23 2e 11 04 	sw	ra, 92(sp)
   1ff6c:	23 26 31 05 	sw	s3, 76(sp)
   1ff70:	23 24 41 05 	sw	s4, 72(sp)
   1ff74:	23 22 51 05 	sw	s5, 68(sp)
   1ff78:	23 2a e1 02 	sw	a4, 52(sp)
   1ff7c:	23 2a e1 00 	sw	a4, 20(sp)
   1ff80:	23 2e f1 00 	sw	a5, 28(sp)
   1ff84:	13 54 14 01 	srli	s0, s0, 17
   1ff88:	13 59 f9 01 	srli	s2, s2, 31
   1ff8c:	93 08 01 01 	addi	a7, sp, 16
   1ff90:	13 08 c1 01 	addi	a6, sp, 28
   1ff94:	83 27 08 00 	lw	a5, 0(a6)
   1ff98:	03 27 c8 ff 	lw	a4, -4(a6)
   1ff9c:	13 08 c8 ff 	addi	a6, a6, -4
   1ffa0:	93 97 37 00 	slli	a5, a5, 3
   1ffa4:	13 57 d7 01 	srli	a4, a4, 29
   1ffa8:	b3 e7 e7 00 	or	a5, a5, a4
   1ffac:	23 22 f8 00 	sw	a5, 4(a6)
   1ffb0:	e3 92 08 ff 	bne	a7, a6, -28
   1ffb4:	03 27 01 01 	lw	a4, 16(sp)
   1ffb8:	93 17 05 01 	slli	a5, a0, 16
   1ffbc:	13 16 15 00 	slli	a2, a0, 1
   1ffc0:	13 17 37 00 	slli	a4, a4, 3
   1ffc4:	93 d7 07 01 	srli	a5, a5, 16
   1ffc8:	23 28 61 02 	sw	t1, 48(sp)
   1ffcc:	23 2e a1 02 	sw	a0, 60(sp)
   1ffd0:	23 20 61 02 	sw	t1, 32(sp)
   1ffd4:	23 28 e1 00 	sw	a4, 16(sp)
   1ffd8:	23 2a b1 02 	sw	a1, 52(sp)
   1ffdc:	23 2c d1 02 	sw	a3, 56(sp)
   1ffe0:	23 22 b1 02 	sw	a1, 36(sp)
   1ffe4:	23 24 d1 02 	sw	a3, 40(sp)
   1ffe8:	23 26 f1 02 	sw	a5, 44(sp)
   1ffec:	13 56 16 01 	srli	a2, a2, 17
   1fff0:	13 55 f5 01 	srli	a0, a0, 31
   1fff4:	13 03 01 02 	addi	t1, sp, 32
   1fff8:	13 0e c1 02 	addi	t3, sp, 44
   1fffc:	83 27 0e 00 	lw	a5, 0(t3)
   20000:	83 26 ce ff 	lw	a3, -4(t3)
   20004:	13 0e ce ff 	addi	t3, t3, -4
   20008:	93 97 37 00 	slli	a5, a5, 3
   2000c:	93 d6 d6 01 	srli	a3, a3, 29
   20010:	b3 e7 d7 00 	or	a5, a5, a3
   20014:	23 22 fe 00 	sw	a5, 4(t3)
   20018:	e3 12 c3 ff 	bne	t1, t3, -28
   2001c:	83 27 01 02 	lw	a5, 32(sp)
   20020:	b7 86 00 00 	lui	a3, 8
   20024:	93 86 f6 ff 	addi	a3, a3, -1
   20028:	93 97 37 00 	slli	a5, a5, 3
   2002c:	23 20 f1 02 	sw	a5, 32(sp)
   20030:	63 10 d6 02 	bne	a2, a3, 32
   20034:	83 25 81 02 	lw	a1, 40(sp)
   20038:	83 26 41 02 	lw	a3, 36(sp)
   2003c:	b3 e6 b6 00 	or	a3, a3, a1
   20040:	83 25 c1 02 	lw	a1, 44(sp)
   20044:	b3 e6 b6 00 	or	a3, a3, a1
   20048:	b3 e6 f6 00 	or	a3, a3, a5
   2004c:	63 94 06 00 	bnez	a3, 8
   20050:	13 45 15 00 	xori	a0, a0, 1
   20054:	b3 05 c4 40 	sub	a1, s0, a2
   20058:	e3 1c 25 15 	bne	a0, s2, 2392
   2005c:	63 54 b0 30 	blez	a1, 776
   20060:	63 16 06 0c 	bnez	a2, 204
   20064:	03 25 41 02 	lw	a0, 36(sp)
   20068:	03 26 81 02 	lw	a2, 40(sp)
   2006c:	03 28 c1 02 	lw	a6, 44(sp)
   20070:	b3 66 c5 00 	or	a3, a0, a2
   20074:	b3 e6 06 01 	or	a3, a3, a6
   20078:	b3 e6 f6 00 	or	a3, a3, a5
   2007c:	63 90 06 02 	bnez	a3, 32
   20080:	83 27 41 01 	lw	a5, 20(sp)
   20084:	23 28 e1 02 	sw	a4, 48(sp)
   20088:	23 2a f1 02 	sw	a5, 52(sp)
   2008c:	83 27 81 01 	lw	a5, 24(sp)
   20090:	23 2c f1 02 	sw	a5, 56(sp)
   20094:	83 27 c1 01 	lw	a5, 28(sp)
   20098:	6f 00 c0 30 	j	780
   2009c:	93 86 f5 ff 	addi	a3, a1, -1
   200a0:	63 90 06 06 	bnez	a3, 96
   200a4:	83 26 41 01 	lw	a3, 20(sp)
   200a8:	b3 07 f7 00 	add	a5, a4, a5
   200ac:	33 b7 e7 00 	sltu	a4, a5, a4
   200b0:	b3 05 d5 00 	add	a1, a0, a3
   200b4:	23 28 f1 02 	sw	a5, 48(sp)
   200b8:	b3 87 e5 00 	add	a5, a1, a4
   200bc:	33 b7 e7 00 	sltu	a4, a5, a4
   200c0:	23 2a f1 02 	sw	a5, 52(sp)
   200c4:	83 27 81 01 	lw	a5, 24(sp)
   200c8:	b3 b6 d5 00 	sltu	a3, a1, a3
   200cc:	33 e7 e6 00 	or	a4, a3, a4
   200d0:	b3 06 f6 00 	add	a3, a2, a5
   200d4:	33 86 e6 00 	add	a2, a3, a4
   200d8:	33 37 e6 00 	sltu	a4, a2, a4
   200dc:	b3 b7 f6 00 	sltu	a5, a3, a5
   200e0:	b3 e7 e7 00 	or	a5, a5, a4
   200e4:	03 27 c1 01 	lw	a4, 28(sp)
   200e8:	23 2c c1 02 	sw	a2, 56(sp)
   200ec:	33 08 e8 00 	add	a6, a6, a4
   200f0:	b3 87 07 01 	add	a5, a5, a6
   200f4:	23 2e f1 02 	sw	a5, 60(sp)
   200f8:	13 04 10 00 	addi	s0, zero, 1
   200fc:	6f 00 c0 1d 	j	476
   20100:	b7 87 00 00 	lui	a5, 8
   20104:	93 87 f7 ff 	addi	a5, a5, -1
   20108:	e3 8c f5 f6 	beq	a1, a5, -136
   2010c:	93 07 40 07 	addi	a5, zero, 116
   20110:	63 d2 d7 06 	bge	a5, a3, 100
   20114:	93 07 10 00 	addi	a5, zero, 1
   20118:	23 26 01 02 	sw	zero, 44(sp)
   2011c:	23 24 01 02 	sw	zero, 40(sp)
   20120:	23 22 01 02 	sw	zero, 36(sp)
   20124:	23 20 f1 02 	sw	a5, 32(sp)
   20128:	6f 00 80 14 	j	328
   2012c:	b7 87 00 00 	lui	a5, 8
   20130:	93 87 f7 ff 	addi	a5, a5, -1
   20134:	63 12 f4 02 	bne	s0, a5, 36
   20138:	83 27 41 01 	lw	a5, 20(sp)
   2013c:	23 28 e1 02 	sw	a4, 48(sp)
   20140:	23 2a f1 02 	sw	a5, 52(sp)
   20144:	83 27 81 01 	lw	a5, 24(sp)
   20148:	23 2c f1 02 	sw	a5, 56(sp)
   2014c:	83 27 c1 01 	lw	a5, 28(sp)
   20150:	23 2e f1 02 	sw	a5, 60(sp)
   20154:	6f 00 80 25 	j	600
   20158:	83 27 c1 02 	lw	a5, 44(sp)
   2015c:	37 07 08 00 	lui	a4, 128
   20160:	b3 e7 e7 00 	or	a5, a5, a4
   20164:	23 26 f1 02 	sw	a5, 44(sp)
   20168:	93 07 40 07 	addi	a5, zero, 116
   2016c:	e3 c4 b7 fa 	blt	a5, a1, -88
   20170:	93 86 05 00 	mv	a3, a1
   20174:	93 d8 56 40 	srai	a7, a3, 5
   20178:	93 f7 f6 01 	andi	a5, a3, 31
   2017c:	13 06 00 00 	mv	a2, zero
   20180:	13 07 00 00 	mv	a4, zero
   20184:	93 16 27 00 	slli	a3, a4, 2
   20188:	63 18 17 03 	bne	a4, a7, 48
   2018c:	63 90 07 04 	bnez	a5, 64
   20190:	93 05 30 00 	addi	a1, zero, 3
   20194:	33 87 e5 40 	sub	a4, a1, a4
   20198:	b3 05 de 00 	add	a1, t3, a3
   2019c:	83 a5 05 00 	lw	a1, 0(a1)
   201a0:	93 87 17 00 	addi	a5, a5, 1
   201a4:	13 0e 4e 00 	addi	t3, t3, 4
   201a8:	23 2e be fe 	sw	a1, -4(t3)
   201ac:	e3 56 f7 fe 	bge	a4, a5, -20
   201b0:	93 06 40 00 	addi	a3, zero, 4
   201b4:	6f 00 80 0a 	j	168
   201b8:	b3 06 d3 00 	add	a3, t1, a3
   201bc:	83 a6 06 00 	lw	a3, 0(a3)
   201c0:	13 07 17 00 	addi	a4, a4, 1
   201c4:	33 66 d6 00 	or	a2, a2, a3
   201c8:	6f f0 df fb 	j	-68
   201cc:	13 07 01 04 	addi	a4, sp, 64
   201d0:	33 07 d7 00 	add	a4, a4, a3
   201d4:	03 27 07 fe 	lw	a4, -32(a4)
   201d8:	13 08 00 02 	addi	a6, zero, 32
   201dc:	33 08 f8 40 	sub	a6, a6, a5
   201e0:	33 17 07 01 	sll	a4, a4, a6
   201e4:	33 66 e6 00 	or	a2, a2, a4
   201e8:	13 07 30 00 	addi	a4, zero, 3
   201ec:	b3 06 d3 00 	add	a3, t1, a3
   201f0:	13 05 00 00 	mv	a0, zero
   201f4:	33 07 17 41 	sub	a4, a4, a7
   201f8:	93 86 46 00 	addi	a3, a3, 4
   201fc:	63 44 e5 02 	blt	a0, a4, 40
   20200:	93 06 01 04 	addi	a3, sp, 64
   20204:	13 17 27 00 	slli	a4, a4, 2
   20208:	33 87 e6 00 	add	a4, a3, a4
   2020c:	83 26 c1 02 	lw	a3, 44(sp)
   20210:	b3 d7 f6 00 	srl	a5, a3, a5
   20214:	23 20 f7 fe 	sw	a5, -32(a4)
   20218:	93 07 40 00 	addi	a5, zero, 4
   2021c:	b3 87 17 41 	sub	a5, a5, a7
   20220:	6f f0 1f f9 	j	-112
   20224:	83 a5 c6 ff 	lw	a1, -4(a3)
   20228:	83 ae 06 00 	lw	t4, 0(a3)
   2022c:	13 1e 25 00 	slli	t3, a0, 2
   20230:	b3 d5 f5 00 	srl	a1, a1, a5
   20234:	b3 9e 0e 01 	sll	t4, t4, a6
   20238:	33 0e c3 01 	add	t3, t1, t3
   2023c:	b3 e5 d5 01 	or	a1, a1, t4
   20240:	23 20 be 00 	sw	a1, 0(t3)
   20244:	13 05 15 00 	addi	a0, a0, 1
   20248:	6f f0 1f fb 	j	-80
   2024c:	13 97 27 00 	slli	a4, a5, 2
   20250:	33 07 e3 00 	add	a4, t1, a4
   20254:	23 20 07 00 	sw	zero, 0(a4)
   20258:	93 87 17 00 	addi	a5, a5, 1
   2025c:	e3 98 d7 fe 	bne	a5, a3, -16
   20260:	83 27 01 02 	lw	a5, 32(sp)
   20264:	33 36 c0 00 	snez	a2, a2
   20268:	33 e6 c7 00 	or	a2, a5, a2
   2026c:	23 20 c1 02 	sw	a2, 32(sp)
   20270:	83 26 01 01 	lw	a3, 16(sp)
   20274:	83 27 01 02 	lw	a5, 32(sp)
   20278:	03 27 41 01 	lw	a4, 20(sp)
   2027c:	83 25 81 02 	lw	a1, 40(sp)
   20280:	b3 87 f6 00 	add	a5, a3, a5
   20284:	b3 b6 d7 00 	sltu	a3, a5, a3
   20288:	23 28 f1 02 	sw	a5, 48(sp)
   2028c:	83 27 41 02 	lw	a5, 36(sp)
   20290:	03 25 c1 02 	lw	a0, 44(sp)
   20294:	b3 07 f7 00 	add	a5, a4, a5
   20298:	33 86 d7 00 	add	a2, a5, a3
   2029c:	33 b7 e7 00 	sltu	a4, a5, a4
   202a0:	b3 37 d6 00 	sltu	a5, a2, a3
   202a4:	b3 67 f7 00 	or	a5, a4, a5
   202a8:	03 27 81 01 	lw	a4, 24(sp)
   202ac:	83 26 c1 01 	lw	a3, 28(sp)
   202b0:	23 2a c1 02 	sw	a2, 52(sp)
   202b4:	b3 05 b7 00 	add	a1, a4, a1
   202b8:	33 86 f5 00 	add	a2, a1, a5
   202bc:	33 b7 e5 00 	sltu	a4, a1, a4
   202c0:	b3 37 f6 00 	sltu	a5, a2, a5
   202c4:	b3 86 a6 00 	add	a3, a3, a0
   202c8:	33 67 f7 00 	or	a4, a4, a5
   202cc:	33 87 e6 00 	add	a4, a3, a4
   202d0:	23 2c c1 02 	sw	a2, 56(sp)
   202d4:	23 2e e1 02 	sw	a4, 60(sp)
   202d8:	83 27 c1 03 	lw	a5, 60(sp)
   202dc:	13 97 c7 00 	slli	a4, a5, 12
   202e0:	63 56 07 0c 	bgez	a4, 204
   202e4:	37 07 f8 ff 	lui	a4, 1048448
   202e8:	13 07 f7 ff 	addi	a4, a4, -1
   202ec:	b3 f7 e7 00 	and	a5, a5, a4
   202f0:	23 2e f1 02 	sw	a5, 60(sp)
   202f4:	83 27 01 03 	lw	a5, 48(sp)
   202f8:	13 04 14 00 	addi	s0, s0, 1
   202fc:	93 05 c1 03 	addi	a1, sp, 60
   20300:	13 97 f7 01 	slli	a4, a5, 31
   20304:	93 07 01 03 	addi	a5, sp, 48
   20308:	83 a6 07 00 	lw	a3, 0(a5)
   2030c:	03 a6 47 00 	lw	a2, 4(a5)
   20310:	93 87 47 00 	addi	a5, a5, 4
   20314:	93 d6 16 00 	srli	a3, a3, 1
   20318:	13 16 f6 01 	slli	a2, a2, 31
   2031c:	b3 e6 c6 00 	or	a3, a3, a2
   20320:	23 ae d7 fe 	sw	a3, -4(a5)
   20324:	e3 92 f5 fe 	bne	a1, a5, -28
   20328:	83 27 c1 03 	lw	a5, 60(sp)
   2032c:	93 d7 17 00 	srli	a5, a5, 1
   20330:	23 2e f1 02 	sw	a5, 60(sp)
   20334:	b3 37 e0 00 	snez	a5, a4
   20338:	03 27 01 03 	lw	a4, 48(sp)
   2033c:	b3 67 f7 00 	or	a5, a4, a5
   20340:	23 28 f1 02 	sw	a5, 48(sp)
   20344:	b7 87 00 00 	lui	a5, 8
   20348:	93 87 f7 ff 	addi	a5, a5, -1
   2034c:	63 10 f4 06 	bne	s0, a5, 96
   20350:	23 2e 01 02 	sw	zero, 60(sp)
   20354:	23 2c 01 02 	sw	zero, 56(sp)
   20358:	23 2a 01 02 	sw	zero, 52(sp)
   2035c:	23 28 01 02 	sw	zero, 48(sp)
   20360:	6f 00 c0 04 	j	76
   20364:	63 88 05 42 	beqz	a1, 1072
   20368:	b3 05 86 40 	sub	a1, a2, s0
   2036c:	63 1a 04 22 	bnez	s0, 564
   20370:	03 23 41 01 	lw	t1, 20(sp)
   20374:	03 25 81 01 	lw	a0, 24(sp)
   20378:	03 2e c1 01 	lw	t3, 28(sp)
   2037c:	b3 66 a3 00 	or	a3, t1, a0
   20380:	b3 e6 c6 01 	or	a3, a3, t3
   20384:	b3 e6 e6 00 	or	a3, a3, a4
   20388:	63 98 06 18 	bnez	a3, 400
   2038c:	23 28 f1 02 	sw	a5, 48(sp)
   20390:	83 27 41 02 	lw	a5, 36(sp)
   20394:	23 2a f1 02 	sw	a5, 52(sp)
   20398:	83 27 81 02 	lw	a5, 40(sp)
   2039c:	23 2c f1 02 	sw	a5, 56(sp)
   203a0:	83 27 c1 02 	lw	a5, 44(sp)
   203a4:	23 2e f1 02 	sw	a5, 60(sp)
   203a8:	13 84 05 00 	mv	s0, a1
   203ac:	83 27 01 03 	lw	a5, 48(sp)
   203b0:	13 f7 77 00 	andi	a4, a5, 7
   203b4:	63 04 07 04 	beqz	a4, 72
   203b8:	13 f7 f7 00 	andi	a4, a5, 15
   203bc:	93 06 40 00 	addi	a3, zero, 4
   203c0:	63 0e d7 02 	beq	a4, a3, 60
   203c4:	03 27 41 03 	lw	a4, 52(sp)
   203c8:	93 87 47 00 	addi	a5, a5, 4
   203cc:	23 28 f1 02 	sw	a5, 48(sp)
   203d0:	93 b7 47 00 	sltiu	a5, a5, 4
   203d4:	33 87 e7 00 	add	a4, a5, a4
   203d8:	b3 37 f7 00 	sltu	a5, a4, a5
   203dc:	23 2a e1 02 	sw	a4, 52(sp)
   203e0:	03 27 81 03 	lw	a4, 56(sp)
   203e4:	33 87 e7 00 	add	a4, a5, a4
   203e8:	23 2c e1 02 	sw	a4, 56(sp)
   203ec:	33 37 f7 00 	sltu	a4, a4, a5
   203f0:	83 27 c1 03 	lw	a5, 60(sp)
   203f4:	33 07 f7 00 	add	a4, a4, a5
   203f8:	23 2e e1 02 	sw	a4, 60(sp)
   203fc:	83 27 c1 03 	lw	a5, 60(sp)
   20400:	13 97 c7 00 	slli	a4, a5, 12
   20404:	63 54 07 02 	bgez	a4, 40
   20408:	37 87 00 00 	lui	a4, 8
   2040c:	13 04 14 00 	addi	s0, s0, 1
   20410:	13 07 f7 ff 	addi	a4, a4, -1
   20414:	63 14 e4 00 	bne	s0, a4, 8
   20418:	6f 10 80 08 	j	4232
   2041c:	37 07 f8 ff 	lui	a4, 1048448
   20420:	13 07 f7 ff 	addi	a4, a4, -1
   20424:	b3 f7 e7 00 	and	a5, a5, a4
   20428:	23 2e f1 02 	sw	a5, 60(sp)
   2042c:	93 07 01 03 	addi	a5, sp, 48
   20430:	13 06 c1 03 	addi	a2, sp, 60
   20434:	03 a7 07 00 	lw	a4, 0(a5)
   20438:	83 a6 47 00 	lw	a3, 4(a5)
   2043c:	93 87 47 00 	addi	a5, a5, 4
   20440:	13 57 37 00 	srli	a4, a4, 3
   20444:	93 96 d6 01 	slli	a3, a3, 29
   20448:	33 67 d7 00 	or	a4, a4, a3
   2044c:	23 ae e7 fe 	sw	a4, -4(a5)
   20450:	e3 12 f6 fe 	bne	a2, a5, -28
   20454:	83 27 c1 03 	lw	a5, 60(sp)
   20458:	b7 86 00 00 	lui	a3, 8
   2045c:	13 d7 37 00 	srli	a4, a5, 3
   20460:	23 2e e1 02 	sw	a4, 60(sp)
   20464:	93 87 f6 ff 	addi	a5, a3, -1
   20468:	63 1a f4 02 	bne	s0, a5, 52
   2046c:	03 26 41 03 	lw	a2, 52(sp)
   20470:	83 27 01 03 	lw	a5, 48(sp)
   20474:	b3 e7 c7 00 	or	a5, a5, a2
   20478:	03 26 81 03 	lw	a2, 56(sp)
   2047c:	b3 e7 c7 00 	or	a5, a5, a2
   20480:	b3 e7 e7 00 	or	a5, a5, a4
   20484:	63 8c 07 00 	beqz	a5, 24
   20488:	23 2e d1 02 	sw	a3, 60(sp)
   2048c:	23 2c 01 02 	sw	zero, 56(sp)
   20490:	23 2a 01 02 	sw	zero, 52(sp)
   20494:	23 28 01 02 	sw	zero, 48(sp)
   20498:	13 09 00 00 	mv	s2, zero
   2049c:	83 27 c1 03 	lw	a5, 60(sp)
   204a0:	13 14 14 01 	slli	s0, s0, 17
   204a4:	13 54 14 01 	srli	s0, s0, 17
   204a8:	23 16 f1 00 	sh	a5, 12(sp)
   204ac:	93 17 04 01 	slli	a5, s0, 16
   204b0:	03 24 c1 00 	lw	s0, 12(sp)
   204b4:	37 07 01 80 	lui	a4, 524304
   204b8:	13 07 f7 ff 	addi	a4, a4, -1
   204bc:	33 74 e4 00 	and	s0, s0, a4
   204c0:	33 64 f4 00 	or	s0, s0, a5
   204c4:	83 27 01 03 	lw	a5, 48(sp)
   204c8:	13 14 14 00 	slli	s0, s0, 1
   204cc:	13 19 f9 01 	slli	s2, s2, 31
   204d0:	23 a0 f4 00 	sw	a5, 0(s1)
   204d4:	83 27 41 03 	lw	a5, 52(sp)
   204d8:	13 54 14 00 	srli	s0, s0, 1
   204dc:	33 64 24 01 	or	s0, s0, s2
   204e0:	23 a2 f4 00 	sw	a5, 4(s1)
   204e4:	83 27 81 03 	lw	a5, 56(sp)
   204e8:	23 a6 84 00 	sw	s0, 12(s1)
   204ec:	83 20 c1 05 	lw	ra, 92(sp)
   204f0:	03 24 81 05 	lw	s0, 88(sp)
   204f4:	23 a4 f4 00 	sw	a5, 8(s1)
   204f8:	13 85 04 00 	mv	a0, s1
   204fc:	03 29 01 05 	lw	s2, 80(sp)
   20500:	83 24 41 05 	lw	s1, 84(sp)
   20504:	83 29 c1 04 	lw	s3, 76(sp)
   20508:	03 2a 81 04 	lw	s4, 72(sp)
   2050c:	83 2a 41 04 	lw	s5, 68(sp)
   20510:	13 01 01 06 	addi	sp, sp, 96
   20514:	67 80 00 00 	ret
   20518:	93 86 f5 ff 	addi	a3, a1, -1
   2051c:	63 9e 06 04 	bnez	a3, 92
   20520:	83 26 41 02 	lw	a3, 36(sp)
   20524:	33 07 f7 00 	add	a4, a4, a5
   20528:	b3 37 f7 00 	sltu	a5, a4, a5
   2052c:	33 06 d3 00 	add	a2, t1, a3
   20530:	23 28 e1 02 	sw	a4, 48(sp)
   20534:	33 07 f6 00 	add	a4, a2, a5
   20538:	b3 37 f7 00 	sltu	a5, a4, a5
   2053c:	23 2a e1 02 	sw	a4, 52(sp)
   20540:	03 27 81 02 	lw	a4, 40(sp)
   20544:	b3 36 d6 00 	sltu	a3, a2, a3
   20548:	b3 e7 f6 00 	or	a5, a3, a5
   2054c:	b3 06 e5 00 	add	a3, a0, a4
   20550:	33 86 f6 00 	add	a2, a3, a5
   20554:	b3 37 f6 00 	sltu	a5, a2, a5
   20558:	33 b7 e6 00 	sltu	a4, a3, a4
   2055c:	33 67 f7 00 	or	a4, a4, a5
   20560:	83 27 c1 02 	lw	a5, 44(sp)
   20564:	23 2c c1 02 	sw	a2, 56(sp)
   20568:	33 0e fe 00 	add	t3, t3, a5
   2056c:	33 07 c7 01 	add	a4, a4, t3
   20570:	23 2e e1 02 	sw	a4, 60(sp)
   20574:	6f f0 5f b8 	j	-1148
   20578:	37 87 00 00 	lui	a4, 8
   2057c:	13 07 f7 ff 	addi	a4, a4, -1
   20580:	e3 86 e5 e0 	beq	a1, a4, -500
   20584:	93 07 40 07 	addi	a5, zero, 116
   20588:	63 d2 d7 06 	bge	a5, a3, 100
   2058c:	23 2e 01 00 	sw	zero, 28(sp)
   20590:	23 2c 01 00 	sw	zero, 24(sp)
   20594:	23 2a 01 00 	sw	zero, 20(sp)
   20598:	93 07 10 00 	addi	a5, zero, 1
   2059c:	6f 00 40 18 	j	388
   205a0:	37 87 00 00 	lui	a4, 8
   205a4:	13 07 f7 ff 	addi	a4, a4, -1
   205a8:	63 14 e6 02 	bne	a2, a4, 40
   205ac:	23 28 f1 02 	sw	a5, 48(sp)
   205b0:	83 27 41 02 	lw	a5, 36(sp)
   205b4:	13 04 06 00 	mv	s0, a2
   205b8:	23 2a f1 02 	sw	a5, 52(sp)
   205bc:	83 27 81 02 	lw	a5, 40(sp)
   205c0:	23 2c f1 02 	sw	a5, 56(sp)
   205c4:	83 27 c1 02 	lw	a5, 44(sp)
   205c8:	23 2e f1 02 	sw	a5, 60(sp)
   205cc:	6f f0 1f de 	j	-544
   205d0:	83 27 c1 01 	lw	a5, 28(sp)
   205d4:	37 07 08 00 	lui	a4, 128
   205d8:	b3 e7 e7 00 	or	a5, a5, a4
   205dc:	23 2e f1 00 	sw	a5, 28(sp)
   205e0:	93 07 40 07 	addi	a5, zero, 116
   205e4:	e3 c4 b7 fa 	blt	a5, a1, -88
   205e8:	93 86 05 00 	mv	a3, a1
   205ec:	93 d7 f6 41 	srai	a5, a3, 31
   205f0:	37 07 00 80 	lui	a4, 524288
   205f4:	93 f7 f7 01 	andi	a5, a5, 31
   205f8:	13 07 f7 01 	addi	a4, a4, 31
   205fc:	b3 87 d7 00 	add	a5, a5, a3
   20600:	b3 f6 e6 00 	and	a3, a3, a4
   20604:	93 d7 57 40 	srai	a5, a5, 5
   20608:	63 d8 06 00 	bgez	a3, 16
   2060c:	93 86 f6 ff 	addi	a3, a3, -1
   20610:	93 e6 06 fe 	ori	a3, a3, -32
   20614:	93 86 16 00 	addi	a3, a3, 1
   20618:	13 87 06 00 	mv	a4, a3
   2061c:	13 03 00 00 	mv	t1, zero
   20620:	93 05 00 00 	mv	a1, zero
   20624:	63 c0 f5 04 	blt	a1, a5, 64
   20628:	13 85 07 00 	mv	a0, a5
   2062c:	63 d4 07 00 	bgez	a5, 8
   20630:	13 05 00 00 	mv	a0, zero
   20634:	93 95 27 00 	slli	a1, a5, 2
   20638:	63 92 06 04 	bnez	a3, 68
   2063c:	93 06 30 00 	addi	a3, zero, 3
   20640:	b3 87 f6 40 	sub	a5, a3, a5
   20644:	b3 06 b8 00 	add	a3, a6, a1
   20648:	83 a6 06 00 	lw	a3, 0(a3)
   2064c:	13 07 17 00 	addi	a4, a4, 1
   20650:	13 08 48 00 	addi	a6, a6, 4
   20654:	23 2e d8 fe 	sw	a3, -4(a6)
   20658:	e3 d6 e7 fe 	bge	a5, a4, -20
   2065c:	93 06 30 00 	addi	a3, zero, 3
   20660:	6f 00 00 0b 	j	176
   20664:	13 95 25 00 	slli	a0, a1, 2
   20668:	33 85 a8 00 	add	a0, a7, a0
   2066c:	03 25 05 00 	lw	a0, 0(a0)
   20670:	93 85 15 00 	addi	a1, a1, 1
   20674:	33 63 a3 00 	or	t1, t1, a0
   20678:	6f f0 df fa 	j	-84
   2067c:	13 07 01 04 	addi	a4, sp, 64
   20680:	13 15 25 00 	slli	a0, a0, 2
   20684:	33 05 a7 00 	add	a0, a4, a0
   20688:	03 27 05 fd 	lw	a4, -48(a0)
   2068c:	13 0e 00 02 	addi	t3, zero, 32
   20690:	33 0e de 40 	sub	t3, t3, a3
   20694:	33 17 c7 01 	sll	a4, a4, t3
   20698:	33 63 e3 00 	or	t1, t1, a4
   2069c:	13 07 30 00 	addi	a4, zero, 3
   206a0:	b3 85 b8 00 	add	a1, a7, a1
   206a4:	13 08 00 00 	mv	a6, zero
   206a8:	33 07 f7 40 	sub	a4, a4, a5
   206ac:	93 85 45 00 	addi	a1, a1, 4
   206b0:	63 44 e8 02 	blt	a6, a4, 40
   206b4:	93 05 01 04 	addi	a1, sp, 64
   206b8:	13 17 27 00 	slli	a4, a4, 2
   206bc:	33 87 e5 00 	add	a4, a1, a4
   206c0:	83 25 c1 01 	lw	a1, 28(sp)
   206c4:	b3 d6 d5 00 	srl	a3, a1, a3
   206c8:	23 28 d7 fc 	sw	a3, -48(a4)
   206cc:	13 07 40 00 	addi	a4, zero, 4
   206d0:	33 07 f7 40 	sub	a4, a4, a5
   206d4:	6f f0 9f f8 	j	-120
   206d8:	03 a5 c5 ff 	lw	a0, -4(a1)
   206dc:	03 af 05 00 	lw	t5, 0(a1)
   206e0:	93 1e 28 00 	slli	t4, a6, 2
   206e4:	33 55 d5 00 	srl	a0, a0, a3
   206e8:	33 1f cf 01 	sll	t5, t5, t3
   206ec:	b3 8e d8 01 	add	t4, a7, t4
   206f0:	33 65 e5 01 	or	a0, a0, t5
   206f4:	23 a0 ae 00 	sw	a0, 0(t4)
   206f8:	13 08 18 00 	addi	a6, a6, 1
   206fc:	6f f0 1f fb 	j	-80
   20700:	93 17 27 00 	slli	a5, a4, 2
   20704:	b3 87 f8 00 	add	a5, a7, a5
   20708:	23 a0 07 00 	sw	zero, 0(a5)
   2070c:	13 07 17 00 	addi	a4, a4, 1
   20710:	e3 d8 e6 fe 	bge	a3, a4, -16
   20714:	03 27 01 01 	lw	a4, 16(sp)
   20718:	b3 37 60 00 	snez	a5, t1
   2071c:	b3 67 f7 00 	or	a5, a4, a5
   20720:	23 28 f1 00 	sw	a5, 16(sp)
   20724:	83 26 01 02 	lw	a3, 32(sp)
   20728:	83 27 01 01 	lw	a5, 16(sp)
   2072c:	03 27 41 02 	lw	a4, 36(sp)
   20730:	03 25 81 01 	lw	a0, 24(sp)
   20734:	b3 87 f6 00 	add	a5, a3, a5
   20738:	b3 b6 d7 00 	sltu	a3, a5, a3
   2073c:	23 28 f1 02 	sw	a5, 48(sp)
   20740:	83 27 41 01 	lw	a5, 20(sp)
   20744:	03 28 c1 01 	lw	a6, 28(sp)
   20748:	13 04 06 00 	mv	s0, a2
   2074c:	b3 07 f7 00 	add	a5, a4, a5
   20750:	b3 85 d7 00 	add	a1, a5, a3
   20754:	33 b7 e7 00 	sltu	a4, a5, a4
   20758:	b3 b7 d5 00 	sltu	a5, a1, a3
   2075c:	b3 67 f7 00 	or	a5, a4, a5
   20760:	03 27 81 02 	lw	a4, 40(sp)
   20764:	83 26 c1 02 	lw	a3, 44(sp)
   20768:	23 2a b1 02 	sw	a1, 52(sp)
   2076c:	33 05 a7 00 	add	a0, a4, a0
   20770:	b3 05 f5 00 	add	a1, a0, a5
   20774:	33 37 e5 00 	sltu	a4, a0, a4
   20778:	b3 b7 f5 00 	sltu	a5, a1, a5
   2077c:	b3 86 06 01 	add	a3, a3, a6
   20780:	33 67 f7 00 	or	a4, a4, a5
   20784:	33 87 e6 00 	add	a4, a3, a4
   20788:	23 2c b1 02 	sw	a1, 56(sp)
   2078c:	23 2e e1 02 	sw	a4, 60(sp)
   20790:	6f f0 9f b4 	j	-1208
   20794:	b7 8f 00 00 	lui	t6, 8
   20798:	13 05 14 00 	addi	a0, s0, 1
   2079c:	13 86 ef ff 	addi	a2, t6, -2
   207a0:	33 76 c5 00 	and	a2, a0, a2
   207a4:	83 26 41 02 	lw	a3, 36(sp)
   207a8:	83 25 81 02 	lw	a1, 40(sp)
   207ac:	03 28 c1 02 	lw	a6, 44(sp)
   207b0:	03 2f 41 01 	lw	t5, 20(sp)
   207b4:	83 2e 81 01 	lw	t4, 24(sp)
   207b8:	83 28 c1 01 	lw	a7, 28(sp)
   207bc:	13 03 01 03 	addi	t1, sp, 48
   207c0:	13 0e c1 03 	addi	t3, sp, 60
   207c4:	63 16 06 14 	bnez	a2, 332
   207c8:	33 65 df 01 	or	a0, t5, t4
   207cc:	33 65 15 01 	or	a0, a0, a7
   207d0:	33 65 e5 00 	or	a0, a0, a4
   207d4:	63 16 04 0a 	bnez	s0, 172
   207d8:	63 1c 05 00 	bnez	a0, 24
   207dc:	23 28 f1 02 	sw	a5, 48(sp)
   207e0:	23 2a d1 02 	sw	a3, 52(sp)
   207e4:	23 2c b1 02 	sw	a1, 56(sp)
   207e8:	23 2e 01 03 	sw	a6, 60(sp)
   207ec:	6f f0 1f bc 	j	-1088
   207f0:	33 e6 b6 00 	or	a2, a3, a1
   207f4:	33 66 06 01 	or	a2, a2, a6
   207f8:	33 66 f6 00 	or	a2, a2, a5
   207fc:	63 1c 06 00 	bnez	a2, 24
   20800:	23 28 e1 02 	sw	a4, 48(sp)
   20804:	23 2a e1 03 	sw	t5, 52(sp)
   20808:	23 2c d1 03 	sw	t4, 56(sp)
   2080c:	23 2e 11 03 	sw	a7, 60(sp)
   20810:	6f f0 df b9 	j	-1124
   20814:	b3 07 f7 00 	add	a5, a4, a5
   20818:	33 b7 e7 00 	sltu	a4, a5, a4
   2081c:	b3 86 e6 01 	add	a3, a3, t5
   20820:	23 28 f1 02 	sw	a5, 48(sp)
   20824:	b3 87 e6 00 	add	a5, a3, a4
   20828:	33 b7 e7 00 	sltu	a4, a5, a4
   2082c:	b3 b6 e6 01 	sltu	a3, a3, t5
   20830:	33 e7 e6 00 	or	a4, a3, a4
   20834:	b3 85 d5 01 	add	a1, a1, t4
   20838:	23 2a f1 02 	sw	a5, 52(sp)
   2083c:	b3 87 e5 00 	add	a5, a1, a4
   20840:	33 b6 d5 01 	sltu	a2, a1, t4
   20844:	33 b7 e7 00 	sltu	a4, a5, a4
   20848:	33 67 e6 00 	or	a4, a2, a4
   2084c:	33 06 18 01 	add	a2, a6, a7
   20850:	33 06 c7 00 	add	a2, a4, a2
   20854:	23 2c f1 02 	sw	a5, 56(sp)
   20858:	93 17 c6 00 	slli	a5, a2, 12
   2085c:	63 c6 07 00 	bltz	a5, 12
   20860:	23 2e c1 02 	sw	a2, 60(sp)
   20864:	6f f0 9f b4 	j	-1208
   20868:	37 07 f8 ff 	lui	a4, 1048448
   2086c:	13 07 f7 ff 	addi	a4, a4, -1
   20870:	33 76 e6 00 	and	a2, a2, a4
   20874:	23 2e c1 02 	sw	a2, 60(sp)
   20878:	13 04 10 00 	addi	s0, zero, 1
   2087c:	6f f0 1f b3 	j	-1232
   20880:	63 1e 05 00 	bnez	a0, 28
   20884:	23 28 f1 02 	sw	a5, 48(sp)
   20888:	23 2a d1 02 	sw	a3, 52(sp)
   2088c:	23 2c b1 02 	sw	a1, 56(sp)
   20890:	23 2e 01 03 	sw	a6, 60(sp)
   20894:	13 84 ff ff 	addi	s0, t6, -1
   20898:	6f f0 5f b1 	j	-1260
   2089c:	33 e6 b6 00 	or	a2, a3, a1
   208a0:	33 66 06 01 	or	a2, a2, a6
   208a4:	b3 67 f6 00 	or	a5, a2, a5
   208a8:	63 9c 07 00 	bnez	a5, 24
   208ac:	23 28 e1 02 	sw	a4, 48(sp)
   208b0:	23 2a e1 03 	sw	t5, 52(sp)
   208b4:	23 2c d1 03 	sw	t4, 56(sp)
   208b8:	23 2e 11 03 	sw	a7, 60(sp)
   208bc:	6f f0 9f fd 	j	-40
   208c0:	23 2e f1 03 	sw	t6, 60(sp)
   208c4:	23 2c 01 02 	sw	zero, 56(sp)
   208c8:	23 2a 01 02 	sw	zero, 52(sp)
   208cc:	23 28 01 02 	sw	zero, 48(sp)
   208d0:	13 07 0e 00 	mv	a4, t3
   208d4:	83 27 07 00 	lw	a5, 0(a4)
   208d8:	83 26 c7 ff 	lw	a3, -4(a4)
   208dc:	13 07 c7 ff 	addi	a4, a4, -4
   208e0:	93 97 37 00 	slli	a5, a5, 3
   208e4:	93 d6 d6 01 	srli	a3, a3, 29
   208e8:	b3 e7 d7 00 	or	a5, a5, a3
   208ec:	23 22 f7 00 	sw	a5, 4(a4)
   208f0:	e3 12 e3 fe 	bne	t1, a4, -28
   208f4:	83 27 01 03 	lw	a5, 48(sp)
   208f8:	37 84 00 00 	lui	s0, 8
   208fc:	13 09 00 00 	mv	s2, zero
   20900:	93 97 37 00 	slli	a5, a5, 3
   20904:	23 28 f1 02 	sw	a5, 48(sp)
   20908:	13 04 f4 ff 	addi	s0, s0, -1
   2090c:	6f f0 1f aa 	j	-1376
   20910:	b3 07 f7 00 	add	a5, a4, a5
   20914:	33 b7 e7 00 	sltu	a4, a5, a4
   20918:	b3 86 e6 01 	add	a3, a3, t5
   2091c:	23 28 f1 02 	sw	a5, 48(sp)
   20920:	b3 87 e6 00 	add	a5, a3, a4
   20924:	33 b7 e7 00 	sltu	a4, a5, a4
   20928:	b3 b6 e6 01 	sltu	a3, a3, t5
   2092c:	33 e7 e6 00 	or	a4, a3, a4
   20930:	33 86 d5 01 	add	a2, a1, t4
   20934:	b3 06 e6 00 	add	a3, a2, a4
   20938:	33 b7 e6 00 	sltu	a4, a3, a4
   2093c:	33 36 d6 01 	sltu	a2, a2, t4
   20940:	33 66 e6 00 	or	a2, a2, a4
   20944:	33 07 18 01 	add	a4, a6, a7
   20948:	33 06 e6 00 	add	a2, a2, a4
   2094c:	23 2a f1 02 	sw	a5, 52(sp)
   20950:	23 2c d1 02 	sw	a3, 56(sp)
   20954:	23 2e c1 02 	sw	a2, 60(sp)
   20958:	93 07 03 00 	mv	a5, t1
   2095c:	03 a7 07 00 	lw	a4, 0(a5)
   20960:	83 a6 47 00 	lw	a3, 4(a5)
   20964:	93 87 47 00 	addi	a5, a5, 4
   20968:	13 57 17 00 	srli	a4, a4, 1
   2096c:	93 96 f6 01 	slli	a3, a3, 31
   20970:	33 67 d7 00 	or	a4, a4, a3
   20974:	23 ae e7 fe 	sw	a4, -4(a5)
   20978:	e3 12 fe fe 	bne	t3, a5, -28
   2097c:	b7 87 00 00 	lui	a5, 8
   20980:	93 87 f7 ff 	addi	a5, a5, -1
   20984:	63 0c f5 00 	beq	a0, a5, 24
   20988:	83 27 c1 03 	lw	a5, 60(sp)
   2098c:	93 d7 17 00 	srli	a5, a5, 1
   20990:	23 2e f1 02 	sw	a5, 60(sp)
   20994:	13 04 05 00 	mv	s0, a0
   20998:	6f f0 5f a1 	j	-1516
   2099c:	23 2e 01 02 	sw	zero, 60(sp)
   209a0:	23 2c 01 02 	sw	zero, 56(sp)
   209a4:	23 2a 01 02 	sw	zero, 52(sp)
   209a8:	23 28 01 02 	sw	zero, 48(sp)
   209ac:	6f f0 9f fe 	j	-24
   209b0:	63 50 b0 28 	blez	a1, 640
   209b4:	63 10 06 0c 	bnez	a2, 192
   209b8:	03 25 41 02 	lw	a0, 36(sp)
   209bc:	83 26 81 02 	lw	a3, 40(sp)
   209c0:	83 2e c1 02 	lw	t4, 44(sp)
   209c4:	33 66 d5 00 	or	a2, a0, a3
   209c8:	33 66 d6 01 	or	a2, a2, t4
   209cc:	33 66 f6 00 	or	a2, a2, a5
   209d0:	63 08 06 ea 	beqz	a2, -2384
   209d4:	13 88 f5 ff 	addi	a6, a1, -1
   209d8:	63 1a 08 06 	bnez	a6, 116
   209dc:	83 28 41 01 	lw	a7, 20(sp)
   209e0:	b3 07 f7 40 	sub	a5, a4, a5
   209e4:	33 36 f7 00 	sltu	a2, a4, a5
   209e8:	b3 85 a8 40 	sub	a1, a7, a0
   209ec:	33 b3 b8 00 	sltu	t1, a7, a1
   209f0:	b3 85 c5 40 	sub	a1, a1, a2
   209f4:	23 28 f1 02 	sw	a5, 48(sp)
   209f8:	23 2a b1 02 	sw	a1, 52(sp)
   209fc:	13 06 00 00 	mv	a2, zero
   20a00:	63 76 f7 00 	bgeu	a4, a5, 12
   20a04:	33 06 15 41 	sub	a2, a0, a7
   20a08:	13 36 16 00 	seqz	a2, a2
   20a0c:	03 25 81 01 	lw	a0, 24(sp)
   20a10:	33 66 66 00 	or	a2, a2, t1
   20a14:	b3 05 d5 40 	sub	a1, a0, a3
   20a18:	b3 37 b5 00 	sltu	a5, a0, a1
   20a1c:	b3 85 c5 40 	sub	a1, a1, a2
   20a20:	23 2c b1 02 	sw	a1, 56(sp)
   20a24:	63 06 06 00 	beqz	a2, 12
   20a28:	b3 86 a6 40 	sub	a3, a3, a0
   20a2c:	13 b8 16 00 	seqz	a6, a3
   20a30:	03 27 c1 01 	lw	a4, 28(sp)
   20a34:	b3 67 f8 00 	or	a5, a6, a5
   20a38:	33 07 d7 41 	sub	a4, a4, t4
   20a3c:	b3 07 f7 40 	sub	a5, a4, a5
   20a40:	23 2e f1 02 	sw	a5, 60(sp)
   20a44:	13 04 10 00 	addi	s0, zero, 1
   20a48:	6f 00 80 1c 	j	456
   20a4c:	b7 87 00 00 	lui	a5, 8
   20a50:	93 87 f7 ff 	addi	a5, a5, -1
   20a54:	63 86 f5 e2 	beq	a1, a5, -2516
   20a58:	93 07 40 07 	addi	a5, zero, 116
   20a5c:	63 d0 07 05 	bge	a5, a6, 64
   20a60:	23 26 01 02 	sw	zero, 44(sp)
   20a64:	23 24 01 02 	sw	zero, 40(sp)
   20a68:	23 22 01 02 	sw	zero, 36(sp)
   20a6c:	93 07 10 00 	addi	a5, zero, 1
   20a70:	6f 00 40 12 	j	292
   20a74:	b7 87 00 00 	lui	a5, 8
   20a78:	93 87 f7 ff 	addi	a5, a5, -1
   20a7c:	63 0e f4 ea 	beq	s0, a5, -2372
   20a80:	83 27 c1 02 	lw	a5, 44(sp)
   20a84:	37 07 08 00 	lui	a4, 128
   20a88:	b3 e7 e7 00 	or	a5, a5, a4
   20a8c:	23 26 f1 02 	sw	a5, 44(sp)
   20a90:	93 07 40 07 	addi	a5, zero, 116
   20a94:	e3 c6 b7 fc 	blt	a5, a1, -52
   20a98:	13 88 05 00 	mv	a6, a1
   20a9c:	93 58 58 40 	srai	a7, a6, 5
   20aa0:	93 77 f8 01 	andi	a5, a6, 31
   20aa4:	93 05 00 00 	mv	a1, zero
   20aa8:	13 07 00 00 	mv	a4, zero
   20aac:	93 16 27 00 	slli	a3, a4, 2
   20ab0:	63 18 17 03 	bne	a4, a7, 48
   20ab4:	63 90 07 04 	bnez	a5, 64
   20ab8:	13 06 30 00 	addi	a2, zero, 3
   20abc:	33 07 e6 40 	sub	a4, a2, a4
   20ac0:	33 06 de 00 	add	a2, t3, a3
   20ac4:	03 26 06 00 	lw	a2, 0(a2)
   20ac8:	93 87 17 00 	addi	a5, a5, 1
   20acc:	13 0e 4e 00 	addi	t3, t3, 4
   20ad0:	23 2e ce fe 	sw	a2, -4(t3)
   20ad4:	e3 56 f7 fe 	bge	a4, a5, -20
   20ad8:	93 06 40 00 	addi	a3, zero, 4
   20adc:	6f 00 80 0a 	j	168
   20ae0:	b3 06 d3 00 	add	a3, t1, a3
   20ae4:	83 a6 06 00 	lw	a3, 0(a3)
   20ae8:	13 07 17 00 	addi	a4, a4, 1
   20aec:	b3 e5 d5 00 	or	a1, a1, a3
   20af0:	6f f0 df fb 	j	-68
   20af4:	13 07 01 04 	addi	a4, sp, 64
   20af8:	33 07 d7 00 	add	a4, a4, a3
   20afc:	03 27 07 fe 	lw	a4, -32(a4)
   20b00:	13 08 00 02 	addi	a6, zero, 32
   20b04:	33 08 f8 40 	sub	a6, a6, a5
   20b08:	33 17 07 01 	sll	a4, a4, a6
   20b0c:	b3 e5 e5 00 	or	a1, a1, a4
   20b10:	13 07 30 00 	addi	a4, zero, 3
   20b14:	b3 06 d3 00 	add	a3, t1, a3
   20b18:	13 05 00 00 	mv	a0, zero
   20b1c:	33 07 17 41 	sub	a4, a4, a7
   20b20:	93 86 46 00 	addi	a3, a3, 4
   20b24:	63 44 e5 02 	blt	a0, a4, 40
   20b28:	93 06 01 04 	addi	a3, sp, 64
   20b2c:	13 17 27 00 	slli	a4, a4, 2
   20b30:	33 87 e6 00 	add	a4, a3, a4
   20b34:	83 26 c1 02 	lw	a3, 44(sp)
   20b38:	b3 d7 f6 00 	srl	a5, a3, a5
   20b3c:	23 20 f7 fe 	sw	a5, -32(a4)
   20b40:	93 07 40 00 	addi	a5, zero, 4
   20b44:	b3 87 17 41 	sub	a5, a5, a7
   20b48:	6f f0 1f f9 	j	-112
   20b4c:	03 a6 c6 ff 	lw	a2, -4(a3)
   20b50:	83 ae 06 00 	lw	t4, 0(a3)
   20b54:	13 1e 25 00 	slli	t3, a0, 2
   20b58:	33 56 f6 00 	srl	a2, a2, a5
   20b5c:	b3 9e 0e 01 	sll	t4, t4, a6
   20b60:	33 0e c3 01 	add	t3, t1, t3
   20b64:	33 66 d6 01 	or	a2, a2, t4
   20b68:	23 20 ce 00 	sw	a2, 0(t3)
   20b6c:	13 05 15 00 	addi	a0, a0, 1
   20b70:	6f f0 1f fb 	j	-80
   20b74:	13 97 27 00 	slli	a4, a5, 2
   20b78:	33 07 e3 00 	add	a4, t1, a4
   20b7c:	23 20 07 00 	sw	zero, 0(a4)
   20b80:	93 87 17 00 	addi	a5, a5, 1
   20b84:	e3 98 d7 fe 	bne	a5, a3, -16
   20b88:	03 27 01 02 	lw	a4, 32(sp)
   20b8c:	b3 37 b0 00 	snez	a5, a1
   20b90:	b3 67 f7 00 	or	a5, a4, a5
   20b94:	23 20 f1 02 	sw	a5, 32(sp)
   20b98:	83 26 41 01 	lw	a3, 20(sp)
   20b9c:	83 25 01 01 	lw	a1, 16(sp)
   20ba0:	03 27 01 02 	lw	a4, 32(sp)
   20ba4:	83 27 41 02 	lw	a5, 36(sp)
   20ba8:	33 87 e5 40 	sub	a4, a1, a4
   20bac:	b3 87 f6 40 	sub	a5, a3, a5
   20bb0:	33 b6 f6 00 	sltu	a2, a3, a5
   20bb4:	b3 b6 e5 00 	sltu	a3, a1, a4
   20bb8:	b3 86 d7 40 	sub	a3, a5, a3
   20bbc:	23 2a d1 02 	sw	a3, 52(sp)
   20bc0:	23 28 e1 02 	sw	a4, 48(sp)
   20bc4:	93 06 00 00 	mv	a3, zero
   20bc8:	63 f4 e5 00 	bgeu	a1, a4, 8
   20bcc:	93 b6 17 00 	seqz	a3, a5
   20bd0:	b3 e6 c6 00 	or	a3, a3, a2
   20bd4:	03 27 81 02 	lw	a4, 40(sp)
   20bd8:	03 26 81 01 	lw	a2, 24(sp)
   20bdc:	33 07 e6 40 	sub	a4, a2, a4
   20be0:	b3 07 d7 40 	sub	a5, a4, a3
   20be4:	23 2c f1 02 	sw	a5, 56(sp)
   20be8:	b3 35 e6 00 	sltu	a1, a2, a4
   20bec:	13 06 00 00 	mv	a2, zero
   20bf0:	63 84 06 00 	beqz	a3, 8
   20bf4:	13 36 17 00 	seqz	a2, a4
   20bf8:	83 27 c1 01 	lw	a5, 28(sp)
   20bfc:	03 27 c1 02 	lw	a4, 44(sp)
   20c00:	33 66 b6 00 	or	a2, a2, a1
   20c04:	b3 87 e7 40 	sub	a5, a5, a4
   20c08:	b3 87 c7 40 	sub	a5, a5, a2
   20c0c:	23 2e f1 02 	sw	a5, 60(sp)
   20c10:	83 27 c1 03 	lw	a5, 60(sp)
   20c14:	13 97 c7 00 	slli	a4, a5, 12
   20c18:	63 5a 07 f8 	bgez	a4, -2156
   20c1c:	37 07 08 00 	lui	a4, 128
   20c20:	13 07 f7 ff 	addi	a4, a4, -1
   20c24:	b3 f7 e7 00 	and	a5, a5, a4
   20c28:	23 2e f1 02 	sw	a5, 60(sp)
   20c2c:	6f 00 40 5c 	j	1476
   20c30:	63 8e 05 2e 	beqz	a1, 764
   20c34:	b3 0e 86 40 	sub	t4, a2, s0
   20c38:	63 14 04 0e 	bnez	s0, 232
   20c3c:	03 23 41 01 	lw	t1, 20(sp)
   20c40:	83 25 81 01 	lw	a1, 24(sp)
   20c44:	03 2f c1 01 	lw	t5, 28(sp)
   20c48:	33 6e b3 00 	or	t3, t1, a1
   20c4c:	33 6e ee 01 	or	t3, t3, t5
   20c50:	33 6e ee 00 	or	t3, t3, a4
   20c54:	63 16 0e 02 	bnez	t3, 44
   20c58:	23 28 f1 02 	sw	a5, 48(sp)
   20c5c:	83 27 41 02 	lw	a5, 36(sp)
   20c60:	13 84 0e 00 	mv	s0, t4
   20c64:	23 2a f1 02 	sw	a5, 52(sp)
   20c68:	83 27 81 02 	lw	a5, 40(sp)
   20c6c:	23 2c f1 02 	sw	a5, 56(sp)
   20c70:	83 27 c1 02 	lw	a5, 44(sp)
   20c74:	23 2e f1 02 	sw	a5, 60(sp)
   20c78:	13 09 05 00 	mv	s2, a0
   20c7c:	6f f0 0f f3 	j	-2256
   20c80:	93 86 fe ff 	addi	a3, t4, -1
   20c84:	63 9a 06 06 	bnez	a3, 116
   20c88:	83 28 41 02 	lw	a7, 36(sp)
   20c8c:	33 87 e7 40 	sub	a4, a5, a4
   20c90:	33 b6 e7 00 	sltu	a2, a5, a4
   20c94:	33 88 68 40 	sub	a6, a7, t1
   20c98:	33 be 08 01 	sltu	t3, a7, a6
   20c9c:	33 08 c8 40 	sub	a6, a6, a2
   20ca0:	23 28 e1 02 	sw	a4, 48(sp)
   20ca4:	23 2a 01 03 	sw	a6, 52(sp)
   20ca8:	13 06 00 00 	mv	a2, zero
   20cac:	63 f6 e7 00 	bgeu	a5, a4, 12
   20cb0:	33 06 13 41 	sub	a2, t1, a7
   20cb4:	13 36 16 00 	seqz	a2, a2
   20cb8:	83 28 81 02 	lw	a7, 40(sp)
   20cbc:	33 67 c6 01 	or	a4, a2, t3
   20cc0:	33 86 b8 40 	sub	a2, a7, a1
   20cc4:	33 b8 c8 00 	sltu	a6, a7, a2
   20cc8:	33 06 e6 40 	sub	a2, a2, a4
   20ccc:	23 2c c1 02 	sw	a2, 56(sp)
   20cd0:	63 06 07 00 	beqz	a4, 12
   20cd4:	b3 85 15 41 	sub	a1, a1, a7
   20cd8:	93 b6 15 00 	seqz	a3, a1
   20cdc:	83 27 c1 02 	lw	a5, 44(sp)
   20ce0:	b3 e6 06 01 	or	a3, a3, a6
   20ce4:	13 09 05 00 	mv	s2, a0
   20ce8:	b3 87 e7 41 	sub	a5, a5, t5
   20cec:	b3 86 d7 40 	sub	a3, a5, a3
   20cf0:	23 2e d1 02 	sw	a3, 60(sp)
   20cf4:	6f f0 1f d5 	j	-688
   20cf8:	37 87 00 00 	lui	a4, 8
   20cfc:	13 07 f7 ff 	addi	a4, a4, -1
   20d00:	e3 8c ee f4 	beq	t4, a4, -168
   20d04:	93 07 40 07 	addi	a5, zero, 116
   20d08:	63 dc d7 0c 	bge	a5, a3, 216
   20d0c:	23 2e 01 00 	sw	zero, 28(sp)
   20d10:	23 2c 01 00 	sw	zero, 24(sp)
   20d14:	23 2a 01 00 	sw	zero, 20(sp)
   20d18:	93 07 10 00 	addi	a5, zero, 1
   20d1c:	6f 00 80 18 	j	392
   20d20:	37 87 00 00 	lui	a4, 8
   20d24:	13 07 f7 ff 	addi	a4, a4, -1
   20d28:	63 14 e6 02 	bne	a2, a4, 40
   20d2c:	23 28 f1 02 	sw	a5, 48(sp)
   20d30:	83 27 41 02 	lw	a5, 36(sp)
   20d34:	13 04 06 00 	mv	s0, a2
   20d38:	23 2a f1 02 	sw	a5, 52(sp)
   20d3c:	83 27 81 02 	lw	a5, 40(sp)
   20d40:	23 2c f1 02 	sw	a5, 56(sp)
   20d44:	83 27 c1 02 	lw	a5, 44(sp)
   20d48:	23 2e f1 02 	sw	a5, 60(sp)
   20d4c:	6f f0 df f2 	j	-212
   20d50:	83 27 c1 01 	lw	a5, 28(sp)
   20d54:	37 07 08 00 	lui	a4, 128
   20d58:	b3 e7 e7 00 	or	a5, a5, a4
   20d5c:	23 2e f1 00 	sw	a5, 28(sp)
   20d60:	93 07 40 07 	addi	a5, zero, 116
   20d64:	e3 c4 d7 fb 	blt	a5, t4, -88
   20d68:	93 d7 fe 41 	srai	a5, t4, 31
   20d6c:	b7 05 00 80 	lui	a1, 524288
   20d70:	93 f7 f7 01 	andi	a5, a5, 31
   20d74:	93 85 f5 01 	addi	a1, a1, 31
   20d78:	b3 87 d7 01 	add	a5, a5, t4
   20d7c:	b3 f5 be 00 	and	a1, t4, a1
   20d80:	13 d3 57 40 	srai	t1, a5, 5
   20d84:	63 d8 05 00 	bgez	a1, 16
   20d88:	93 85 f5 ff 	addi	a1, a1, -1
   20d8c:	93 e5 05 fe 	ori	a1, a1, -32
   20d90:	93 85 15 00 	addi	a1, a1, 1
   20d94:	93 87 05 00 	mv	a5, a1
   20d98:	13 0e 00 00 	mv	t3, zero
   20d9c:	13 07 00 00 	mv	a4, zero
   20da0:	63 44 67 04 	blt	a4, t1, 72
   20da4:	93 06 03 00 	mv	a3, t1
   20da8:	63 54 03 00 	bgez	t1, 8
   20dac:	93 06 00 00 	mv	a3, zero
   20db0:	13 17 23 00 	slli	a4, t1, 2
   20db4:	63 96 05 04 	bnez	a1, 76
   20db8:	93 06 30 00 	addi	a3, zero, 3
   20dbc:	33 83 66 40 	sub	t1, a3, t1
   20dc0:	b3 06 e8 00 	add	a3, a6, a4
   20dc4:	83 a6 06 00 	lw	a3, 0(a3)
   20dc8:	93 87 17 00 	addi	a5, a5, 1
   20dcc:	13 08 48 00 	addi	a6, a6, 4
   20dd0:	23 2e d8 fe 	sw	a3, -4(a6)
   20dd4:	e3 56 f3 fe 	bge	t1, a5, -20
   20dd8:	93 06 30 00 	addi	a3, zero, 3
   20ddc:	6f 00 80 0b 	j	184
   20de0:	93 8e 06 00 	mv	t4, a3
   20de4:	6f f0 5f f8 	j	-124
   20de8:	93 16 27 00 	slli	a3, a4, 2
   20dec:	b3 86 d8 00 	add	a3, a7, a3
   20df0:	83 a6 06 00 	lw	a3, 0(a3)
   20df4:	13 07 17 00 	addi	a4, a4, 1
   20df8:	33 6e de 00 	or	t3, t3, a3
   20dfc:	6f f0 5f fa 	j	-92
   20e00:	93 07 01 04 	addi	a5, sp, 64
   20e04:	93 96 26 00 	slli	a3, a3, 2
   20e08:	b3 86 d7 00 	add	a3, a5, a3
   20e0c:	83 a7 06 fd 	lw	a5, -48(a3)
   20e10:	93 0e 00 02 	addi	t4, zero, 32
   20e14:	b3 8e be 40 	sub	t4, t4, a1
   20e18:	b3 97 d7 01 	sll	a5, a5, t4
   20e1c:	33 6e fe 00 	or	t3, t3, a5
   20e20:	93 07 30 00 	addi	a5, zero, 3
   20e24:	33 87 e8 00 	add	a4, a7, a4
   20e28:	13 08 00 00 	mv	a6, zero
   20e2c:	b3 87 67 40 	sub	a5, a5, t1
   20e30:	13 07 47 00 	addi	a4, a4, 4
   20e34:	63 44 f8 02 	blt	a6, a5, 40
   20e38:	13 07 01 04 	addi	a4, sp, 64
   20e3c:	93 97 27 00 	slli	a5, a5, 2
   20e40:	b3 07 f7 00 	add	a5, a4, a5
   20e44:	03 27 c1 01 	lw	a4, 28(sp)
   20e48:	b3 55 b7 00 	srl	a1, a4, a1
   20e4c:	23 a8 b7 fc 	sw	a1, -48(a5)
   20e50:	93 07 40 00 	addi	a5, zero, 4
   20e54:	b3 87 67 40 	sub	a5, a5, t1
   20e58:	6f f0 1f f8 	j	-128
   20e5c:	83 26 c7 ff 	lw	a3, -4(a4)
   20e60:	83 2f 07 00 	lw	t6, 0(a4)
   20e64:	13 1f 28 00 	slli	t5, a6, 2
   20e68:	b3 d6 b6 00 	srl	a3, a3, a1
   20e6c:	b3 9f df 01 	sll	t6, t6, t4
   20e70:	33 8f e8 01 	add	t5, a7, t5
   20e74:	b3 e6 f6 01 	or	a3, a3, t6
   20e78:	23 20 df 00 	sw	a3, 0(t5)
   20e7c:	13 08 18 00 	addi	a6, a6, 1
   20e80:	6f f0 1f fb 	j	-80
   20e84:	13 97 27 00 	slli	a4, a5, 2
   20e88:	33 87 e8 00 	add	a4, a7, a4
   20e8c:	23 20 07 00 	sw	zero, 0(a4)
   20e90:	93 87 17 00 	addi	a5, a5, 1
   20e94:	e3 d8 f6 fe 	bge	a3, a5, -16
   20e98:	03 27 01 01 	lw	a4, 16(sp)
   20e9c:	b3 37 c0 01 	snez	a5, t3
   20ea0:	b3 67 f7 00 	or	a5, a4, a5
   20ea4:	23 28 f1 00 	sw	a5, 16(sp)
   20ea8:	83 26 41 02 	lw	a3, 36(sp)
   20eac:	03 28 01 02 	lw	a6, 32(sp)
   20eb0:	03 27 01 01 	lw	a4, 16(sp)
   20eb4:	83 27 41 01 	lw	a5, 20(sp)
   20eb8:	33 07 e8 40 	sub	a4, a6, a4
   20ebc:	b3 87 f6 40 	sub	a5, a3, a5
   20ec0:	b3 b5 f6 00 	sltu	a1, a3, a5
   20ec4:	b3 36 e8 00 	sltu	a3, a6, a4
   20ec8:	b3 86 d7 40 	sub	a3, a5, a3
   20ecc:	23 2a d1 02 	sw	a3, 52(sp)
   20ed0:	23 28 e1 02 	sw	a4, 48(sp)
   20ed4:	93 06 00 00 	mv	a3, zero
   20ed8:	63 74 e8 00 	bgeu	a6, a4, 8
   20edc:	93 b6 17 00 	seqz	a3, a5
   20ee0:	b3 e6 b6 00 	or	a3, a3, a1
   20ee4:	03 27 81 01 	lw	a4, 24(sp)
   20ee8:	83 25 81 02 	lw	a1, 40(sp)
   20eec:	33 87 e5 40 	sub	a4, a1, a4
   20ef0:	b3 07 d7 40 	sub	a5, a4, a3
   20ef4:	23 2c f1 02 	sw	a5, 56(sp)
   20ef8:	33 b8 e5 00 	sltu	a6, a1, a4
   20efc:	93 05 00 00 	mv	a1, zero
   20f00:	63 84 06 00 	beqz	a3, 8
   20f04:	93 35 17 00 	seqz	a1, a4
   20f08:	83 27 c1 02 	lw	a5, 44(sp)
   20f0c:	03 27 c1 01 	lw	a4, 28(sp)
   20f10:	b3 e5 05 01 	or	a1, a1, a6
   20f14:	13 04 06 00 	mv	s0, a2
   20f18:	b3 87 e7 40 	sub	a5, a5, a4
   20f1c:	b3 87 b7 40 	sub	a5, a5, a1
   20f20:	23 2e f1 02 	sw	a5, 60(sp)
   20f24:	13 09 05 00 	mv	s2, a0
   20f28:	6f f0 9f ce 	j	-792
   20f2c:	37 8f 00 00 	lui	t5, 8
   20f30:	93 06 ef ff 	addi	a3, t5, -2
   20f34:	93 0e 14 00 	addi	t4, s0, 1
   20f38:	b3 fe de 00 	and	t4, t4, a3
   20f3c:	03 26 41 02 	lw	a2, 36(sp)
   20f40:	83 26 41 01 	lw	a3, 20(sp)
   20f44:	03 28 81 01 	lw	a6, 24(sp)
   20f48:	03 2e c1 01 	lw	t3, 28(sp)
   20f4c:	83 28 81 02 	lw	a7, 40(sp)
   20f50:	03 23 c1 02 	lw	t1, 44(sp)
   20f54:	63 90 0e 1e 	bnez	t4, 480
   20f58:	b3 65 16 01 	or	a1, a2, a7
   20f5c:	b3 ee 06 01 	or	t4, a3, a6
   20f60:	b3 e5 65 00 	or	a1, a1, t1
   20f64:	b3 ee ce 01 	or	t4, t4, t3
   20f68:	b3 e5 f5 00 	or	a1, a1, a5
   20f6c:	b3 ee ee 00 	or	t4, t4, a4
   20f70:	63 1a 04 10 	bnez	s0, 276
   20f74:	63 94 0e 02 	bnez	t4, 40
   20f78:	23 28 f1 02 	sw	a5, 48(sp)
   20f7c:	23 2a c1 02 	sw	a2, 52(sp)
   20f80:	23 2c 11 03 	sw	a7, 56(sp)
   20f84:	23 2e 61 02 	sw	t1, 60(sp)
   20f88:	13 09 05 00 	mv	s2, a0
   20f8c:	63 90 05 c2 	bnez	a1, -3040
   20f90:	13 04 00 00 	mv	s0, zero
   20f94:	13 09 00 00 	mv	s2, zero
   20f98:	6f f0 4f c1 	j	-3052
   20f9c:	63 9c 05 00 	bnez	a1, 24
   20fa0:	23 28 e1 02 	sw	a4, 48(sp)
   20fa4:	23 2a d1 02 	sw	a3, 52(sp)
   20fa8:	23 2c 01 03 	sw	a6, 56(sp)
   20fac:	23 2e c1 03 	sw	t3, 60(sp)
   20fb0:	6f f0 cf bf 	j	-3076
   20fb4:	b3 05 f7 40 	sub	a1, a4, a5
   20fb8:	b3 8f c6 40 	sub	t6, a3, a2
   20fbc:	33 3f b7 00 	sltu	t5, a4, a1
   20fc0:	b3 be f6 01 	sltu	t4, a3, t6
   20fc4:	b3 8f ef 41 	sub	t6, t6, t5
   20fc8:	23 28 b1 02 	sw	a1, 48(sp)
   20fcc:	23 2a f1 03 	sw	t6, 52(sp)
   20fd0:	13 0f 00 00 	mv	t5, zero
   20fd4:	63 76 b7 00 	bgeu	a4, a1, 12
   20fd8:	33 0f d6 40 	sub	t5, a2, a3
   20fdc:	13 3f 1f 00 	seqz	t5, t5
   20fe0:	b3 02 18 41 	sub	t0, a6, a7
   20fe4:	33 6f df 01 	or	t5, t5, t4
   20fe8:	b3 89 e2 41 	sub	s3, t0, t5
   20fec:	23 2c 31 03 	sw	s3, 56(sp)
   20ff0:	33 3a 58 00 	sltu	s4, a6, t0
   20ff4:	93 03 00 00 	mv	t2, zero
   20ff8:	63 04 0f 00 	beqz	t5, 8
   20ffc:	93 b3 12 00 	seqz	t2, t0
   21000:	b3 0e 6e 40 	sub	t4, t3, t1
   21004:	b3 e3 43 01 	or	t2, t2, s4
   21008:	b3 8e 7e 40 	sub	t4, t4, t2
   2100c:	23 2e d1 03 	sw	t4, 60(sp)
   21010:	13 9f ce 00 	slli	t5, t4, 12
   21014:	63 50 0f 06 	bgez	t5, 96
   21018:	33 87 e7 40 	sub	a4, a5, a4
   2101c:	b3 06 d6 40 	sub	a3, a2, a3
   21020:	b3 b5 e7 00 	sltu	a1, a5, a4
   21024:	b3 85 b6 40 	sub	a1, a3, a1
   21028:	23 2a b1 02 	sw	a1, 52(sp)
   2102c:	23 28 e1 02 	sw	a4, 48(sp)
   21030:	33 36 d6 00 	sltu	a2, a2, a3
   21034:	93 05 00 00 	mv	a1, zero
   21038:	63 f4 e7 00 	bgeu	a5, a4, 8
   2103c:	93 b5 16 00 	seqz	a1, a3
   21040:	33 87 08 41 	sub	a4, a7, a6
   21044:	33 e6 c5 00 	or	a2, a1, a2
   21048:	b3 b8 e8 00 	sltu	a7, a7, a4
   2104c:	33 07 c7 40 	sub	a4, a4, a2
   21050:	23 2c e1 02 	sw	a4, 56(sp)
   21054:	93 06 00 00 	mv	a3, zero
   21058:	63 04 06 00 	beqz	a2, 8
   2105c:	93 b6 12 00 	seqz	a3, t0
   21060:	33 07 c3 41 	sub	a4, t1, t3
   21064:	b3 e6 16 01 	or	a3, a3, a7
   21068:	b3 06 d7 40 	sub	a3, a4, a3
   2106c:	23 2e d1 02 	sw	a3, 60(sp)
   21070:	6f f0 9f c0 	j	-1016
   21074:	b3 e5 f5 01 	or	a1, a1, t6
   21078:	b3 e5 35 01 	or	a1, a1, s3
   2107c:	b3 e5 d5 01 	or	a1, a1, t4
   21080:	6f f0 df f0 	j	-244
   21084:	93 0f 01 03 	addi	t6, sp, 48
   21088:	63 9e 0e 04 	bnez	t4, 92
   2108c:	63 9e 05 02 	bnez	a1, 60
   21090:	23 2e e1 03 	sw	t5, 60(sp)
   21094:	23 2c 01 02 	sw	zero, 56(sp)
   21098:	23 2a 01 02 	sw	zero, 52(sp)
   2109c:	23 28 01 02 	sw	zero, 48(sp)
   210a0:	93 07 c1 03 	addi	a5, sp, 60
   210a4:	03 a7 07 00 	lw	a4, 0(a5)
   210a8:	83 a6 c7 ff 	lw	a3, -4(a5)
   210ac:	93 87 c7 ff 	addi	a5, a5, -4
   210b0:	13 17 37 00 	slli	a4, a4, 3
   210b4:	93 d6 d6 01 	srli	a3, a3, 29
   210b8:	33 67 d7 00 	or	a4, a4, a3
   210bc:	23 a2 e7 00 	sw	a4, 4(a5)
   210c0:	e3 92 ff fe 	bne	t6, a5, -28
   210c4:	6f f0 1f 83 	j	-2000
   210c8:	23 28 f1 02 	sw	a5, 48(sp)
   210cc:	23 2a c1 02 	sw	a2, 52(sp)
   210d0:	23 2c 11 03 	sw	a7, 56(sp)
   210d4:	23 2e 61 02 	sw	t1, 60(sp)
   210d8:	13 09 05 00 	mv	s2, a0
   210dc:	13 04 ff ff 	addi	s0, t5, -1
   210e0:	6f f0 cf ac 	j	-3380
   210e4:	63 9c 05 00 	bnez	a1, 24
   210e8:	23 28 e1 02 	sw	a4, 48(sp)
   210ec:	23 2a d1 02 	sw	a3, 52(sp)
   210f0:	23 2c 01 03 	sw	a6, 56(sp)
   210f4:	23 2e c1 03 	sw	t3, 60(sp)
   210f8:	6f f0 5f fe 	j	-28
   210fc:	23 2e e1 03 	sw	t5, 60(sp)
   21100:	23 2c 01 02 	sw	zero, 56(sp)
   21104:	23 2a 01 02 	sw	zero, 52(sp)
   21108:	23 28 01 02 	sw	zero, 48(sp)
   2110c:	93 07 c1 03 	addi	a5, sp, 60
   21110:	03 a7 07 00 	lw	a4, 0(a5)
   21114:	83 a6 c7 ff 	lw	a3, -4(a5)
   21118:	93 87 c7 ff 	addi	a5, a5, -4
   2111c:	13 17 37 00 	slli	a4, a4, 3
   21120:	93 d6 d6 01 	srli	a3, a3, 29
   21124:	33 67 d7 00 	or	a4, a4, a3
   21128:	23 a2 e7 00 	sw	a4, 4(a5)
   2112c:	e3 92 ff fe 	bne	t6, a5, -28
   21130:	6f f0 4f fc 	j	-2108
   21134:	b3 0e f7 40 	sub	t4, a4, a5
   21138:	b3 82 c6 40 	sub	t0, a3, a2
   2113c:	b3 3f d7 01 	sltu	t6, a4, t4
   21140:	33 bf 56 00 	sltu	t5, a3, t0
   21144:	b3 82 f2 41 	sub	t0, t0, t6
   21148:	23 28 d1 03 	sw	t4, 48(sp)
   2114c:	23 2a 51 02 	sw	t0, 52(sp)
   21150:	93 0f 00 00 	mv	t6, zero
   21154:	63 76 d7 01 	bgeu	a4, t4, 12
   21158:	b3 0f d6 40 	sub	t6, a2, a3
   2115c:	93 bf 1f 00 	seqz	t6, t6
   21160:	b3 03 18 41 	sub	t2, a6, a7
   21164:	b3 ef ef 01 	or	t6, t6, t5
   21168:	33 8a f3 41 	sub	s4, t2, t6
   2116c:	23 2c 41 03 	sw	s4, 56(sp)
   21170:	b3 3a 78 00 	sltu	s5, a6, t2
   21174:	93 09 00 00 	mv	s3, zero
   21178:	63 84 0f 00 	beqz	t6, 8
   2117c:	93 b9 13 00 	seqz	s3, t2
   21180:	33 0f 6e 40 	sub	t5, t3, t1
   21184:	b3 e9 59 01 	or	s3, s3, s5
   21188:	33 0f 3f 41 	sub	t5, t5, s3
   2118c:	23 2e e1 03 	sw	t5, 60(sp)
   21190:	93 1f cf 00 	slli	t6, t5, 12
   21194:	63 d0 0f 0e 	bgez	t6, 224
   21198:	33 87 e7 40 	sub	a4, a5, a4
   2119c:	b3 06 d6 40 	sub	a3, a2, a3
   211a0:	b3 be e7 00 	sltu	t4, a5, a4
   211a4:	b3 8e d6 41 	sub	t4, a3, t4
   211a8:	23 2a d1 03 	sw	t4, 52(sp)
   211ac:	23 28 e1 02 	sw	a4, 48(sp)
   211b0:	33 36 d6 00 	sltu	a2, a2, a3
   211b4:	93 0e 00 00 	mv	t4, zero
   211b8:	63 f4 e7 00 	bgeu	a5, a4, 8
   211bc:	93 be 16 00 	seqz	t4, a3
   211c0:	33 87 08 41 	sub	a4, a7, a6
   211c4:	33 e6 ce 00 	or	a2, t4, a2
   211c8:	b3 b8 e8 00 	sltu	a7, a7, a4
   211cc:	33 07 c7 40 	sub	a4, a4, a2
   211d0:	23 2c e1 02 	sw	a4, 56(sp)
   211d4:	63 04 06 00 	beqz	a2, 8
   211d8:	93 b5 13 00 	seqz	a1, t2
   211dc:	33 07 c3 41 	sub	a4, t1, t3
   211e0:	b3 e7 15 01 	or	a5, a1, a7
   211e4:	b3 07 f7 40 	sub	a5, a4, a5
   211e8:	23 2e f1 02 	sw	a5, 60(sp)
   211ec:	13 09 05 00 	mv	s2, a0
   211f0:	03 25 c1 03 	lw	a0, 60(sp)
   211f4:	63 0a 05 08 	beqz	a0, 148
   211f8:	ef 00 90 3a 	jal	2984
   211fc:	13 05 45 ff 	addi	a0, a0, -12
   21200:	93 57 f5 41 	srai	a5, a0, 31
   21204:	37 07 00 80 	lui	a4, 524288
   21208:	93 f7 f7 01 	andi	a5, a5, 31
   2120c:	13 07 f7 01 	addi	a4, a4, 31
   21210:	b3 87 a7 00 	add	a5, a5, a0
   21214:	33 77 e5 00 	and	a4, a0, a4
   21218:	93 d7 57 40 	srai	a5, a5, 5
   2121c:	63 58 07 00 	bgez	a4, 16
   21220:	13 07 f7 ff 	addi	a4, a4, -1
   21224:	13 67 07 fe 	ori	a4, a4, -32
   21228:	13 07 17 00 	addi	a4, a4, 1
   2122c:	b3 06 f0 40 	neg	a3, a5
   21230:	63 08 07 08 	beqz	a4, 144
   21234:	93 96 26 00 	slli	a3, a3, 2
   21238:	13 03 01 03 	addi	t1, sp, 48
   2123c:	93 86 c6 00 	addi	a3, a3, 12
   21240:	13 08 00 02 	addi	a6, zero, 32
   21244:	b3 06 d3 00 	add	a3, t1, a3
   21248:	93 95 27 00 	slli	a1, a5, 2
   2124c:	33 08 e8 40 	sub	a6, a6, a4
   21250:	63 1e d3 08 	bne	t1, a3, 156
   21254:	93 06 01 04 	addi	a3, sp, 64
   21258:	b3 85 b6 00 	add	a1, a3, a1
   2125c:	83 26 01 03 	lw	a3, 48(sp)
   21260:	93 87 f7 ff 	addi	a5, a5, -1
   21264:	33 97 e6 00 	sll	a4, a3, a4
   21268:	23 a8 e5 fe 	sw	a4, -16(a1)
   2126c:	93 06 f0 ff 	addi	a3, zero, -1
   21270:	6f 00 40 0b 	j	180
   21274:	b3 ee 5e 00 	or	t4, t4, t0
   21278:	b3 ee 4e 01 	or	t4, t4, s4
   2127c:	b3 ee ee 01 	or	t4, t4, t5
   21280:	e3 88 0e d0 	beqz	t4, -752
   21284:	6f f0 df f6 	j	-148
   21288:	03 25 81 03 	lw	a0, 56(sp)
   2128c:	63 08 05 00 	beqz	a0, 16
   21290:	ef 00 10 31 	jal	2832
   21294:	13 05 05 02 	addi	a0, a0, 32
   21298:	6f f0 5f f6 	j	-156
   2129c:	03 25 41 03 	lw	a0, 52(sp)
   212a0:	63 08 05 00 	beqz	a0, 16
   212a4:	ef 00 d0 2f 	jal	2812
   212a8:	13 05 05 04 	addi	a0, a0, 64
   212ac:	6f f0 1f f5 	j	-176
   212b0:	03 25 01 03 	lw	a0, 48(sp)
   212b4:	ef 00 d0 2e 	jal	2796
   212b8:	13 05 05 06 	addi	a0, a0, 96
   212bc:	6f f0 1f f4 	j	-192
   212c0:	13 07 c1 03 	addi	a4, sp, 60
   212c4:	93 96 26 00 	slli	a3, a3, 2
   212c8:	13 06 30 00 	addi	a2, zero, 3
   212cc:	b3 05 d7 00 	add	a1, a4, a3
   212d0:	83 a5 05 00 	lw	a1, 0(a1)
   212d4:	13 06 f6 ff 	addi	a2, a2, -1
   212d8:	13 07 c7 ff 	addi	a4, a4, -4
   212dc:	23 22 b7 00 	sw	a1, 4(a4)
   212e0:	e3 56 f6 fe 	bge	a2, a5, -20
   212e4:	93 87 f7 ff 	addi	a5, a5, -1
   212e8:	6f f0 5f f8 	j	-124
   212ec:	03 a6 c6 ff 	lw	a2, -4(a3)
   212f0:	83 a8 06 00 	lw	a7, 0(a3)
   212f4:	33 8e b6 00 	add	t3, a3, a1
   212f8:	33 56 06 01 	srl	a2, a2, a6
   212fc:	b3 98 e8 00 	sll	a7, a7, a4
   21300:	33 66 16 01 	or	a2, a2, a7
   21304:	23 20 ce 00 	sw	a2, 0(t3)
   21308:	93 86 c6 ff 	addi	a3, a3, -4
   2130c:	6f f0 5f f4 	j	-188
   21310:	13 97 27 00 	slli	a4, a5, 2
   21314:	13 06 01 03 	addi	a2, sp, 48
   21318:	33 07 e6 00 	add	a4, a2, a4
   2131c:	23 20 07 00 	sw	zero, 0(a4)
   21320:	93 87 f7 ff 	addi	a5, a5, -1
   21324:	e3 96 d7 fe 	bne	a5, a3, -20
   21328:	63 40 85 16 	blt	a0, s0, 352
   2132c:	33 04 85 40 	sub	s0, a0, s0
   21330:	13 04 14 00 	addi	s0, s0, 1
   21334:	93 57 f4 41 	srai	a5, s0, 31
   21338:	93 f7 f7 01 	andi	a5, a5, 31
   2133c:	b3 87 87 00 	add	a5, a5, s0
   21340:	13 d5 57 40 	srai	a0, a5, 5
   21344:	b7 07 00 80 	lui	a5, 524288
   21348:	93 87 f7 01 	addi	a5, a5, 31
   2134c:	33 74 f4 00 	and	s0, s0, a5
   21350:	63 58 04 00 	bgez	s0, 16
   21354:	13 04 f4 ff 	addi	s0, s0, -1
   21358:	13 64 04 fe 	ori	s0, s0, -32
   2135c:	13 04 14 00 	addi	s0, s0, 1
   21360:	93 07 04 00 	mv	a5, s0
   21364:	13 08 00 00 	mv	a6, zero
   21368:	13 07 00 00 	mv	a4, zero
   2136c:	63 42 a7 04 	blt	a4, a0, 68
   21370:	93 06 05 00 	mv	a3, a0
   21374:	63 54 05 00 	bgez	a0, 8
   21378:	93 06 00 00 	mv	a3, zero
   2137c:	13 17 25 00 	slli	a4, a0, 2
   21380:	63 16 04 04 	bnez	s0, 76
   21384:	13 06 30 00 	addi	a2, zero, 3
   21388:	93 06 01 03 	addi	a3, sp, 48
   2138c:	33 05 a6 40 	sub	a0, a2, a0
   21390:	33 86 e6 00 	add	a2, a3, a4
   21394:	03 26 06 00 	lw	a2, 0(a2)
   21398:	93 87 17 00 	addi	a5, a5, 1
   2139c:	93 86 46 00 	addi	a3, a3, 4
   213a0:	23 ae c6 fe 	sw	a2, -4(a3)
   213a4:	e3 56 f5 fe 	bge	a0, a5, -20
   213a8:	93 06 30 00 	addi	a3, zero, 3
   213ac:	6f 00 00 0c 	j	192
   213b0:	93 16 27 00 	slli	a3, a4, 2
   213b4:	13 06 01 03 	addi	a2, sp, 48
   213b8:	b3 06 d6 00 	add	a3, a2, a3
   213bc:	83 a6 06 00 	lw	a3, 0(a3)
   213c0:	13 07 17 00 	addi	a4, a4, 1
   213c4:	33 68 d8 00 	or	a6, a6, a3
   213c8:	6f f0 5f fa 	j	-92
   213cc:	93 07 01 04 	addi	a5, sp, 64
   213d0:	93 96 26 00 	slli	a3, a3, 2
   213d4:	b3 86 d7 00 	add	a3, a5, a3
   213d8:	83 a7 06 ff 	lw	a5, -16(a3)
   213dc:	93 05 00 02 	addi	a1, zero, 32
   213e0:	b3 85 85 40 	sub	a1, a1, s0
   213e4:	b3 97 b7 00 	sll	a5, a5, a1
   213e8:	33 68 f8 00 	or	a6, a6, a5
   213ec:	93 07 01 03 	addi	a5, sp, 48
   213f0:	33 87 e7 00 	add	a4, a5, a4
   213f4:	93 07 30 00 	addi	a5, zero, 3
   213f8:	13 06 00 00 	mv	a2, zero
   213fc:	b3 87 a7 40 	sub	a5, a5, a0
   21400:	13 07 47 00 	addi	a4, a4, 4
   21404:	63 44 f6 02 	blt	a2, a5, 40
   21408:	13 07 01 04 	addi	a4, sp, 64
   2140c:	93 97 27 00 	slli	a5, a5, 2
   21410:	b3 07 f7 00 	add	a5, a4, a5
   21414:	03 27 c1 03 	lw	a4, 60(sp)
   21418:	33 54 87 00 	srl	s0, a4, s0
   2141c:	23 a8 87 fe 	sw	s0, -16(a5)
   21420:	93 07 40 00 	addi	a5, zero, 4
   21424:	b3 87 a7 40 	sub	a5, a5, a0
   21428:	6f f0 1f f8 	j	-128
   2142c:	93 18 26 00 	slli	a7, a2, 2
   21430:	93 06 01 03 	addi	a3, sp, 48
   21434:	b3 88 16 01 	add	a7, a3, a7
   21438:	03 23 07 00 	lw	t1, 0(a4)
   2143c:	83 26 c7 ff 	lw	a3, -4(a4)
   21440:	13 06 16 00 	addi	a2, a2, 1
   21444:	33 13 b3 00 	sll	t1, t1, a1
   21448:	b3 d6 86 00 	srl	a3, a3, s0
   2144c:	b3 e6 66 00 	or	a3, a3, t1
   21450:	23 a0 d8 00 	sw	a3, 0(a7)
   21454:	6f f0 df fa 	j	-84
   21458:	13 97 27 00 	slli	a4, a5, 2
   2145c:	13 06 01 03 	addi	a2, sp, 48
   21460:	33 07 e6 00 	add	a4, a2, a4
   21464:	23 20 07 00 	sw	zero, 0(a4)
   21468:	93 87 17 00 	addi	a5, a5, 1
   2146c:	e3 d6 f6 fe 	bge	a3, a5, -20
   21470:	03 27 01 03 	lw	a4, 48(sp)
   21474:	b3 37 00 01 	snez	a5, a6
   21478:	13 04 00 00 	mv	s0, zero
   2147c:	b3 67 f7 00 	or	a5, a4, a5
   21480:	23 28 f1 02 	sw	a5, 48(sp)
   21484:	6f e0 9f f2 	j	-4312
   21488:	83 27 c1 03 	lw	a5, 60(sp)
   2148c:	37 07 f8 ff 	lui	a4, 1048448
   21490:	13 07 f7 ff 	addi	a4, a4, -1
   21494:	33 04 a4 40 	sub	s0, s0, a0
   21498:	b3 f7 e7 00 	and	a5, a5, a4
   2149c:	6f e0 5f cb 	j	-4940
   214a0:	23 2e 01 02 	sw	zero, 60(sp)
   214a4:	23 2c 01 02 	sw	zero, 56(sp)
   214a8:	23 2a 01 02 	sw	zero, 52(sp)
   214ac:	23 28 01 02 	sw	zero, 48(sp)
   214b0:	6f e0 df f7 	j	-4228

__fixtfsi:
   214b4:	03 27 c5 00 	lw	a4, 12(a0)
   214b8:	83 27 85 00 	lw	a5, 8(a0)
   214bc:	83 26 45 00 	lw	a3, 4(a0)
   214c0:	03 26 05 00 	lw	a2, 0(a0)
   214c4:	13 01 01 fe 	addi	sp, sp, -32
   214c8:	23 24 f1 00 	sw	a5, 8(sp)
   214cc:	23 26 e1 00 	sw	a4, 12(sp)
   214d0:	23 2c f1 00 	sw	a5, 24(sp)
   214d4:	93 15 07 01 	slli	a1, a4, 16
   214d8:	93 17 17 00 	slli	a5, a4, 1
   214dc:	13 58 f7 01 	srli	a6, a4, 31
   214e0:	37 47 00 00 	lui	a4, 4
   214e4:	23 22 d1 00 	sw	a3, 4(sp)
   214e8:	23 2a d1 00 	sw	a3, 20(sp)
   214ec:	23 20 c1 00 	sw	a2, 0(sp)
   214f0:	93 d6 17 01 	srli	a3, a5, 17
   214f4:	23 28 c1 00 	sw	a2, 16(sp)
   214f8:	93 07 e7 ff 	addi	a5, a4, -2
   214fc:	13 05 00 00 	mv	a0, zero
   21500:	63 dc d7 00 	bge	a5, a3, 24
   21504:	93 07 d7 01 	addi	a5, a4, 29
   21508:	63 dc d7 00 	bge	a5, a3, 24
   2150c:	37 05 00 80 	lui	a0, 524288
   21510:	13 45 f5 ff 	not	a0, a0
   21514:	33 05 a8 00 	add	a0, a6, a0
   21518:	13 01 01 02 	addi	sp, sp, 32
   2151c:	67 80 00 00 	ret
   21520:	b7 07 01 00 	lui	a5, 16
   21524:	93 d5 05 01 	srli	a1, a1, 16
   21528:	b3 e5 f5 00 	or	a1, a1, a5
   2152c:	93 07 f7 06 	addi	a5, a4, 111
   21530:	b3 87 d7 40 	sub	a5, a5, a3
   21534:	13 d7 57 40 	srai	a4, a5, 5
   21538:	23 2e b1 00 	sw	a1, 28(sp)
   2153c:	93 f7 f7 01 	andi	a5, a5, 31
   21540:	63 98 07 08 	bnez	a5, 144
   21544:	93 17 27 00 	slli	a5, a4, 2
   21548:	93 06 01 02 	addi	a3, sp, 32
   2154c:	b3 87 f6 00 	add	a5, a3, a5
   21550:	83 a7 07 ff 	lw	a5, -16(a5)
   21554:	13 06 20 00 	addi	a2, zero, 2
   21558:	23 28 f1 00 	sw	a5, 16(sp)
   2155c:	93 07 20 00 	addi	a5, zero, 2
   21560:	63 84 e7 00 	beq	a5, a4, 8
   21564:	13 06 10 00 	addi	a2, zero, 1
   21568:	13 07 40 00 	addi	a4, zero, 4
   2156c:	93 17 26 00 	slli	a5, a2, 2
   21570:	93 06 01 01 	addi	a3, sp, 16
   21574:	b3 87 f6 00 	add	a5, a3, a5
   21578:	23 a0 07 00 	sw	zero, 0(a5)
   2157c:	13 06 16 00 	addi	a2, a2, 1
   21580:	e3 16 e6 fe 	bne	a2, a4, -20
   21584:	03 25 01 01 	lw	a0, 16(sp)
   21588:	e3 08 08 f8 	beqz	a6, -112
   2158c:	33 05 a0 40 	neg	a0, a0
   21590:	6f f0 9f f8 	j	-120
   21594:	83 26 06 ff 	lw	a3, -16(a2)
   21598:	03 23 07 ff 	lw	t1, -16(a4)
   2159c:	b3 96 16 01 	sll	a3, a3, a7
   215a0:	33 53 f3 00 	srl	t1, t1, a5
   215a4:	b3 e6 66 00 	or	a3, a3, t1
   215a8:	23 28 d1 00 	sw	a3, 16(sp)
   215ac:	93 06 10 00 	addi	a3, zero, 1
   215b0:	e3 c2 a6 fe 	blt	a3, a0, -28
   215b4:	13 86 16 00 	addi	a2, a3, 1
   215b8:	13 07 01 02 	addi	a4, sp, 32
   215bc:	93 96 26 00 	slli	a3, a3, 2
   215c0:	b3 06 d7 00 	add	a3, a4, a3
   215c4:	b3 d7 f5 00 	srl	a5, a1, a5
   215c8:	23 a8 f6 fe 	sw	a5, -16(a3)
   215cc:	6f f0 df f9 	j	-100
   215d0:	13 06 17 00 	addi	a2, a4, 1
   215d4:	93 08 01 02 	addi	a7, sp, 32
   215d8:	13 05 30 00 	addi	a0, zero, 3
   215dc:	13 16 26 00 	slli	a2, a2, 2
   215e0:	33 05 e5 40 	sub	a0, a0, a4
   215e4:	33 86 c8 00 	add	a2, a7, a2
   215e8:	13 17 27 00 	slli	a4, a4, 2
   215ec:	93 08 00 02 	addi	a7, zero, 32
   215f0:	13 03 01 02 	addi	t1, sp, 32
   215f4:	93 06 00 00 	mv	a3, zero
   215f8:	b3 88 f8 40 	sub	a7, a7, a5
   215fc:	33 07 e3 00 	add	a4, t1, a4
   21600:	6f f0 1f fb 	j	-80

__floatsitf:
   21604:	13 01 01 fd 	addi	sp, sp, -48
   21608:	23 22 91 02 	sw	s1, 36(sp)
   2160c:	23 26 11 02 	sw	ra, 44(sp)
   21610:	23 24 81 02 	sw	s0, 40(sp)
   21614:	23 20 21 03 	sw	s2, 32(sp)
   21618:	93 04 05 00 	mv	s1, a0
   2161c:	63 8c 05 14 	beqz	a1, 344
   21620:	93 d7 f5 41 	srai	a5, a1, 31
   21624:	33 c4 b7 00 	xor	s0, a5, a1
   21628:	33 04 f4 40 	sub	s0, s0, a5
   2162c:	13 05 04 00 	mv	a0, s0
   21630:	13 d9 f5 01 	srli	s2, a1, 31
   21634:	ef 00 c0 76 	jal	1900
   21638:	b7 45 00 00 	lui	a1, 4
   2163c:	93 85 e5 01 	addi	a1, a1, 30
   21640:	b3 85 a5 40 	sub	a1, a1, a0
   21644:	13 05 15 05 	addi	a0, a0, 81
   21648:	23 28 81 00 	sw	s0, 16(sp)
   2164c:	23 2a 01 00 	sw	zero, 20(sp)
   21650:	23 2c 01 00 	sw	zero, 24(sp)
   21654:	23 2e 01 00 	sw	zero, 28(sp)
   21658:	93 76 f5 01 	andi	a3, a0, 31
   2165c:	63 80 06 04 	beqz	a3, 64
   21660:	13 07 f0 05 	addi	a4, zero, 95
   21664:	93 07 30 00 	addi	a5, zero, 3
   21668:	63 4c a7 00 	blt	a4, a0, 24
   2166c:	93 07 00 02 	addi	a5, zero, 32
   21670:	b3 87 d7 40 	sub	a5, a5, a3
   21674:	b3 57 f4 00 	srl	a5, s0, a5
   21678:	23 2e f1 00 	sw	a5, 28(sp)
   2167c:	93 07 20 00 	addi	a5, zero, 2
   21680:	13 87 f7 ff 	addi	a4, a5, -1
   21684:	13 06 01 02 	addi	a2, sp, 32
   21688:	93 97 27 00 	slli	a5, a5, 2
   2168c:	b3 07 f6 00 	add	a5, a2, a5
   21690:	33 14 d4 00 	sll	s0, s0, a3
   21694:	23 a8 87 fe 	sw	s0, -16(a5)
   21698:	6f 00 00 05 	j	80
   2169c:	93 56 55 40 	srai	a3, a0, 5
   216a0:	13 07 30 00 	addi	a4, zero, 3
   216a4:	33 07 d7 40 	sub	a4, a4, a3
   216a8:	93 07 01 02 	addi	a5, sp, 32
   216ac:	13 17 27 00 	slli	a4, a4, 2
   216b0:	33 87 e7 00 	add	a4, a5, a4
   216b4:	83 27 07 ff 	lw	a5, -16(a4)
   216b8:	13 07 20 00 	addi	a4, zero, 2
   216bc:	23 2e f1 00 	sw	a5, 28(sp)
   216c0:	93 07 f0 05 	addi	a5, zero, 95
   216c4:	63 c2 a7 02 	blt	a5, a0, 36
   216c8:	93 07 20 00 	addi	a5, zero, 2
   216cc:	b3 87 d7 40 	sub	a5, a5, a3
   216d0:	13 07 01 02 	addi	a4, sp, 32
   216d4:	93 97 27 00 	slli	a5, a5, 2
   216d8:	b3 07 f7 00 	add	a5, a4, a5
   216dc:	83 a7 07 ff 	lw	a5, -16(a5)
   216e0:	13 07 10 00 	addi	a4, zero, 1
   216e4:	23 2c f1 00 	sw	a5, 24(sp)
   216e8:	93 06 f0 ff 	addi	a3, zero, -1
   216ec:	93 17 27 00 	slli	a5, a4, 2
   216f0:	13 06 01 01 	addi	a2, sp, 16
   216f4:	b3 07 f6 00 	add	a5, a2, a5
   216f8:	23 a0 07 00 	sw	zero, 0(a5)
   216fc:	13 07 f7 ff 	addi	a4, a4, -1
   21700:	e3 16 d7 fe 	bne	a4, a3, -20
   21704:	83 27 c1 01 	lw	a5, 28(sp)
   21708:	93 95 15 01 	slli	a1, a1, 17
   2170c:	37 07 01 80 	lui	a4, 524304
   21710:	23 16 f1 00 	sh	a5, 12(sp)
   21714:	83 27 c1 00 	lw	a5, 12(sp)
   21718:	93 d5 15 01 	srli	a1, a1, 17
   2171c:	13 07 f7 ff 	addi	a4, a4, -1
   21720:	b3 f7 e7 00 	and	a5, a5, a4
   21724:	93 95 05 01 	slli	a1, a1, 16
   21728:	b3 e5 b7 00 	or	a1, a5, a1
   2172c:	83 27 01 01 	lw	a5, 16(sp)
   21730:	93 95 15 00 	slli	a1, a1, 1
   21734:	13 19 f9 01 	slli	s2, s2, 31
   21738:	23 a0 f4 00 	sw	a5, 0(s1)
   2173c:	83 27 41 01 	lw	a5, 20(sp)
   21740:	83 20 c1 02 	lw	ra, 44(sp)
   21744:	03 24 81 02 	lw	s0, 40(sp)
   21748:	23 a2 f4 00 	sw	a5, 4(s1)
   2174c:	83 27 81 01 	lw	a5, 24(sp)
   21750:	93 d5 15 00 	srli	a1, a1, 1
   21754:	b3 e5 25 01 	or	a1, a1, s2
   21758:	23 a4 f4 00 	sw	a5, 8(s1)
   2175c:	23 a6 b4 00 	sw	a1, 12(s1)
   21760:	13 85 04 00 	mv	a0, s1
   21764:	03 29 01 02 	lw	s2, 32(sp)
   21768:	83 24 41 02 	lw	s1, 36(sp)
   2176c:	13 01 01 03 	addi	sp, sp, 48
   21770:	67 80 00 00 	ret
   21774:	23 2e 01 00 	sw	zero, 28(sp)
   21778:	23 2c 01 00 	sw	zero, 24(sp)
   2177c:	23 2a 01 00 	sw	zero, 20(sp)
   21780:	23 28 01 00 	sw	zero, 16(sp)
   21784:	13 09 00 00 	mv	s2, zero
   21788:	6f f0 df f7 	j	-132

__extenddftf2:
   2178c:	93 57 46 01 	srli	a5, a2, 20
   21790:	13 17 c6 00 	slli	a4, a2, 12
   21794:	93 f7 f7 7f 	andi	a5, a5, 2047
   21798:	13 01 01 fd 	addi	sp, sp, -48
   2179c:	13 57 c7 00 	srli	a4, a4, 12
   217a0:	93 86 17 00 	addi	a3, a5, 1
   217a4:	23 24 81 02 	sw	s0, 40(sp)
   217a8:	23 22 91 02 	sw	s1, 36(sp)
   217ac:	23 26 11 02 	sw	ra, 44(sp)
   217b0:	23 28 b1 00 	sw	a1, 16(sp)
   217b4:	23 2a e1 00 	sw	a4, 20(sp)
   217b8:	23 2e 01 00 	sw	zero, 28(sp)
   217bc:	23 2c 01 00 	sw	zero, 24(sp)
   217c0:	93 f6 e6 7f 	andi	a3, a3, 2046
   217c4:	93 04 05 00 	mv	s1, a0
   217c8:	13 54 f6 01 	srli	s0, a2, 31
   217cc:	63 80 06 0a 	beqz	a3, 160
   217d0:	b7 46 00 00 	lui	a3, 4
   217d4:	93 86 06 c0 	addi	a3, a3, -1024
   217d8:	13 d5 45 00 	srli	a0, a1, 4
   217dc:	b3 87 d7 00 	add	a5, a5, a3
   217e0:	93 56 47 00 	srli	a3, a4, 4
   217e4:	13 17 c7 01 	slli	a4, a4, 28
   217e8:	33 67 a7 00 	or	a4, a4, a0
   217ec:	93 95 c5 01 	slli	a1, a1, 28
   217f0:	23 2e d1 00 	sw	a3, 28(sp)
   217f4:	23 2c e1 00 	sw	a4, 24(sp)
   217f8:	23 2a b1 00 	sw	a1, 20(sp)
   217fc:	23 28 01 00 	sw	zero, 16(sp)
   21800:	03 27 c1 01 	lw	a4, 28(sp)
   21804:	93 97 17 01 	slli	a5, a5, 17
   21808:	b7 06 01 80 	lui	a3, 524304
   2180c:	23 16 e1 00 	sh	a4, 12(sp)
   21810:	03 27 c1 00 	lw	a4, 12(sp)
   21814:	93 d7 17 01 	srli	a5, a5, 17
   21818:	93 86 f6 ff 	addi	a3, a3, -1
   2181c:	33 77 d7 00 	and	a4, a4, a3
   21820:	93 97 07 01 	slli	a5, a5, 16
   21824:	b3 67 f7 00 	or	a5, a4, a5
   21828:	03 27 01 01 	lw	a4, 16(sp)
   2182c:	93 97 17 00 	slli	a5, a5, 1
   21830:	13 14 f4 01 	slli	s0, s0, 31
   21834:	23 a0 e4 00 	sw	a4, 0(s1)
   21838:	03 27 41 01 	lw	a4, 20(sp)
   2183c:	93 d7 17 00 	srli	a5, a5, 1
   21840:	b3 e7 87 00 	or	a5, a5, s0
   21844:	23 a2 e4 00 	sw	a4, 4(s1)
   21848:	03 27 81 01 	lw	a4, 24(sp)
   2184c:	83 20 c1 02 	lw	ra, 44(sp)
   21850:	03 24 81 02 	lw	s0, 40(sp)
   21854:	23 a4 e4 00 	sw	a4, 8(s1)
   21858:	23 a6 f4 00 	sw	a5, 12(s1)
   2185c:	13 85 04 00 	mv	a0, s1
   21860:	83 24 41 02 	lw	s1, 36(sp)
   21864:	13 01 01 03 	addi	sp, sp, 48
   21868:	67 80 00 00 	ret
   2186c:	33 65 b7 00 	or	a0, a4, a1
   21870:	63 94 07 0e 	bnez	a5, 232
   21874:	e3 06 05 f8 	beqz	a0, -116
   21878:	63 0e 07 04 	beqz	a4, 92
   2187c:	13 05 07 00 	mv	a0, a4
   21880:	ef 00 00 52 	jal	1312
   21884:	13 06 15 03 	addi	a2, a0, 49
   21888:	93 56 56 40 	srai	a3, a2, 5
   2188c:	13 76 f6 01 	andi	a2, a2, 31
   21890:	33 07 d0 40 	neg	a4, a3
   21894:	63 06 06 04 	beqz	a2, 76
   21898:	13 17 27 00 	slli	a4, a4, 2
   2189c:	13 03 01 01 	addi	t1, sp, 16
   218a0:	13 07 c7 00 	addi	a4, a4, 12
   218a4:	93 07 00 02 	addi	a5, zero, 32
   218a8:	33 07 e3 00 	add	a4, t1, a4
   218ac:	13 98 26 00 	slli	a6, a3, 2
   218b0:	b3 87 c7 40 	sub	a5, a5, a2
   218b4:	63 10 e3 08 	bne	t1, a4, 128
   218b8:	93 07 01 02 	addi	a5, sp, 32
   218bc:	33 88 07 01 	add	a6, a5, a6
   218c0:	83 27 01 01 	lw	a5, 16(sp)
   218c4:	13 87 f6 ff 	addi	a4, a3, -1
   218c8:	33 96 c7 00 	sll	a2, a5, a2
   218cc:	23 28 c8 fe 	sw	a2, -16(a6)
   218d0:	6f 00 80 03 	j	56
   218d4:	ef 00 c0 4c 	jal	1228
   218d8:	13 05 05 02 	addi	a0, a0, 32
   218dc:	6f f0 9f fa 	j	-88
   218e0:	13 06 c1 01 	addi	a2, sp, 28
   218e4:	13 17 27 00 	slli	a4, a4, 2
   218e8:	93 07 30 00 	addi	a5, zero, 3
   218ec:	b3 05 e6 00 	add	a1, a2, a4
   218f0:	83 a5 05 00 	lw	a1, 0(a1)
   218f4:	93 87 f7 ff 	addi	a5, a5, -1
   218f8:	13 06 c6 ff 	addi	a2, a2, -4
   218fc:	23 22 b6 00 	sw	a1, 4(a2)
   21900:	e3 d6 d7 fe 	bge	a5, a3, -20
   21904:	13 87 f6 ff 	addi	a4, a3, -1
   21908:	93 06 f0 ff 	addi	a3, zero, -1
   2190c:	93 17 27 00 	slli	a5, a4, 2
   21910:	13 06 01 01 	addi	a2, sp, 16
   21914:	b3 07 f6 00 	add	a5, a2, a5
   21918:	23 a0 07 00 	sw	zero, 0(a5)
   2191c:	13 07 f7 ff 	addi	a4, a4, -1
   21920:	e3 16 d7 fe 	bne	a4, a3, -20
   21924:	b7 47 00 00 	lui	a5, 4
   21928:	93 87 c7 c0 	addi	a5, a5, -1012
   2192c:	b3 87 a7 40 	sub	a5, a5, a0
   21930:	6f f0 1f ed 	j	-304
   21934:	83 25 c7 ff 	lw	a1, -4(a4)
   21938:	83 28 07 00 	lw	a7, 0(a4)
   2193c:	33 0e 07 01 	add	t3, a4, a6
   21940:	b3 d5 f5 00 	srl	a1, a1, a5
   21944:	b3 98 c8 00 	sll	a7, a7, a2
   21948:	b3 e5 15 01 	or	a1, a1, a7
   2194c:	23 20 be 00 	sw	a1, 0(t3)
   21950:	13 07 c7 ff 	addi	a4, a4, -4
   21954:	6f f0 1f f6 	j	-160
   21958:	b7 87 00 00 	lui	a5, 8
   2195c:	63 08 05 02 	beqz	a0, 48
   21960:	93 17 c7 01 	slli	a5, a4, 28
   21964:	93 d6 45 00 	srli	a3, a1, 4
   21968:	b3 e7 d7 00 	or	a5, a5, a3
   2196c:	23 2c f1 00 	sw	a5, 24(sp)
   21970:	13 57 47 00 	srli	a4, a4, 4
   21974:	b7 87 00 00 	lui	a5, 8
   21978:	93 95 c5 01 	slli	a1, a1, 28
   2197c:	33 67 f7 00 	or	a4, a4, a5
   21980:	23 2a b1 00 	sw	a1, 20(sp)
   21984:	23 28 01 00 	sw	zero, 16(sp)
   21988:	23 2e e1 00 	sw	a4, 28(sp)
   2198c:	93 87 f7 ff 	addi	a5, a5, -1
   21990:	6f f0 1f e7 	j	-400

__trunctfdf2:
   21994:	83 25 c5 00 	lw	a1, 12(a0)
   21998:	83 27 85 00 	lw	a5, 8(a0)
   2199c:	03 27 45 00 	lw	a4, 4(a0)
   219a0:	13 01 01 fe 	addi	sp, sp, -32
   219a4:	83 26 05 00 	lw	a3, 0(a0)
   219a8:	23 24 f1 00 	sw	a5, 8(sp)
   219ac:	23 2c f1 00 	sw	a5, 24(sp)
   219b0:	93 97 05 01 	slli	a5, a1, 16
   219b4:	23 22 e1 00 	sw	a4, 4(sp)
   219b8:	23 2a e1 00 	sw	a4, 20(sp)
   219bc:	93 d7 07 01 	srli	a5, a5, 16
   219c0:	13 97 15 00 	slli	a4, a1, 1
   219c4:	23 26 b1 00 	sw	a1, 12(sp)
   219c8:	23 20 d1 00 	sw	a3, 0(sp)
   219cc:	23 28 d1 00 	sw	a3, 16(sp)
   219d0:	23 2e f1 00 	sw	a5, 28(sp)
   219d4:	13 57 17 01 	srli	a4, a4, 17
   219d8:	93 d5 f5 01 	srli	a1, a1, 31
   219dc:	13 03 01 01 	addi	t1, sp, 16
   219e0:	13 06 c1 01 	addi	a2, sp, 28
   219e4:	83 27 06 00 	lw	a5, 0(a2)
   219e8:	83 26 c6 ff 	lw	a3, -4(a2)
   219ec:	13 06 c6 ff 	addi	a2, a2, -4
   219f0:	93 97 37 00 	slli	a5, a5, 3
   219f4:	93 d6 d6 01 	srli	a3, a3, 29
   219f8:	b3 e7 d7 00 	or	a5, a5, a3
   219fc:	23 22 f6 00 	sw	a5, 4(a2)
   21a00:	e3 12 c3 fe 	bne	t1, a2, -28
   21a04:	83 26 01 01 	lw	a3, 16(sp)
   21a08:	93 07 17 00 	addi	a5, a4, 1
   21a0c:	13 95 36 00 	slli	a0, a3, 3
   21a10:	b7 86 00 00 	lui	a3, 8
   21a14:	93 86 e6 ff 	addi	a3, a3, -2
   21a18:	23 28 a1 00 	sw	a0, 16(sp)
   21a1c:	b3 f7 d7 00 	and	a5, a5, a3
   21a20:	63 8a 07 1a 	beqz	a5, 436
   21a24:	b7 c7 ff ff 	lui	a5, 1048572
   21a28:	93 87 07 40 	addi	a5, a5, 1024
   21a2c:	33 07 f7 00 	add	a4, a4, a5
   21a30:	93 07 e0 7f 	addi	a5, zero, 2046
   21a34:	63 cc e7 1e 	blt	a5, a4, 504
   21a38:	63 58 e0 06 	blez	a4, 112
   21a3c:	03 28 81 01 	lw	a6, 24(sp)
   21a40:	03 26 c1 01 	lw	a2, 28(sp)
   21a44:	83 27 41 01 	lw	a5, 20(sp)
   21a48:	93 56 c8 01 	srli	a3, a6, 28
   21a4c:	13 16 46 00 	slli	a2, a2, 4
   21a50:	33 66 d6 00 	or	a2, a2, a3
   21a54:	93 96 47 00 	slli	a3, a5, 4
   21a58:	b3 e6 a6 00 	or	a3, a3, a0
   21a5c:	93 d7 c7 01 	srli	a5, a5, 28
   21a60:	13 18 48 00 	slli	a6, a6, 4
   21a64:	b3 36 d0 00 	snez	a3, a3
   21a68:	b3 e7 07 01 	or	a5, a5, a6
   21a6c:	b3 e6 f6 00 	or	a3, a3, a5
   21a70:	23 2a c1 00 	sw	a2, 20(sp)
   21a74:	23 28 d1 00 	sw	a3, 16(sp)
   21a78:	83 26 01 01 	lw	a3, 16(sp)
   21a7c:	83 27 41 01 	lw	a5, 20(sp)
   21a80:	13 f6 76 00 	andi	a2, a3, 7
   21a84:	63 0a 06 1a 	beqz	a2, 436
   21a88:	13 f6 f6 00 	andi	a2, a3, 15
   21a8c:	13 05 40 00 	addi	a0, zero, 4
   21a90:	63 04 a6 1a 	beq	a2, a0, 424
   21a94:	13 86 46 00 	addi	a2, a3, 4
   21a98:	b3 36 d6 00 	sltu	a3, a2, a3
   21a9c:	b3 87 d7 00 	add	a5, a5, a3
   21aa0:	93 06 06 00 	mv	a3, a2
   21aa4:	6f 00 40 19 	j	404
   21aa8:	93 07 c0 fc 	addi	a5, zero, -52
   21aac:	63 5c f7 00 	bge	a4, a5, 24
   21ab0:	23 2a 01 00 	sw	zero, 20(sp)
   21ab4:	93 07 10 00 	addi	a5, zero, 1
   21ab8:	23 28 f1 00 	sw	a5, 16(sp)
   21abc:	13 07 00 00 	mv	a4, zero
   21ac0:	6f f0 9f fb 	j	-72
   21ac4:	83 27 c1 01 	lw	a5, 28(sp)
   21ac8:	b7 06 08 00 	lui	a3, 128
   21acc:	13 0e 00 00 	mv	t3, zero
   21ad0:	b3 e7 d7 00 	or	a5, a5, a3
   21ad4:	23 2e f1 00 	sw	a5, 28(sp)
   21ad8:	93 07 d0 03 	addi	a5, zero, 61
   21adc:	33 87 e7 40 	sub	a4, a5, a4
   21ae0:	13 55 57 40 	srai	a0, a4, 5
   21ae4:	93 06 03 00 	mv	a3, t1
   21ae8:	13 77 f7 01 	andi	a4, a4, 31
   21aec:	93 07 00 00 	mv	a5, zero
   21af0:	03 a8 06 00 	lw	a6, 0(a3)
   21af4:	93 87 17 00 	addi	a5, a5, 1
   21af8:	93 86 46 00 	addi	a3, a3, 4
   21afc:	33 6e 0e 01 	or	t3, t3, a6
   21b00:	e3 18 f5 fe 	bne	a0, a5, -16
   21b04:	93 16 25 00 	slli	a3, a0, 2
   21b08:	63 16 07 04 	bnez	a4, 76
   21b0c:	93 07 30 00 	addi	a5, zero, 3
   21b10:	33 85 a7 40 	sub	a0, a5, a0
   21b14:	b3 07 d6 00 	add	a5, a2, a3
   21b18:	83 a7 07 00 	lw	a5, 0(a5)
   21b1c:	13 07 17 00 	addi	a4, a4, 1
   21b20:	13 06 46 00 	addi	a2, a2, 4
   21b24:	23 2e f6 fe 	sw	a5, -4(a2)
   21b28:	e3 56 e5 fe 	bge	a0, a4, -20
   21b2c:	93 06 40 00 	addi	a3, zero, 4
   21b30:	93 17 27 00 	slli	a5, a4, 2
   21b34:	b3 07 f3 00 	add	a5, t1, a5
   21b38:	23 a0 07 00 	sw	zero, 0(a5)
   21b3c:	13 07 17 00 	addi	a4, a4, 1
   21b40:	e3 18 d7 fe 	bne	a4, a3, -16
   21b44:	03 27 01 01 	lw	a4, 16(sp)
   21b48:	b3 37 c0 01 	snez	a5, t3
   21b4c:	b3 67 f7 00 	or	a5, a4, a5
   21b50:	6f f0 9f f6 	j	-152
   21b54:	93 07 01 02 	addi	a5, sp, 32
   21b58:	b3 87 d7 00 	add	a5, a5, a3
   21b5c:	83 a7 07 ff 	lw	a5, -16(a5)
   21b60:	93 08 00 02 	addi	a7, zero, 32
   21b64:	b3 88 e8 40 	sub	a7, a7, a4
   21b68:	b3 97 17 01 	sll	a5, a5, a7
   21b6c:	33 6e fe 00 	or	t3, t3, a5
   21b70:	93 07 30 00 	addi	a5, zero, 3
   21b74:	b3 06 d3 00 	add	a3, t1, a3
   21b78:	13 08 00 00 	mv	a6, zero
   21b7c:	b3 87 a7 40 	sub	a5, a5, a0
   21b80:	93 86 46 00 	addi	a3, a3, 4
   21b84:	63 44 f8 02 	blt	a6, a5, 40
   21b88:	93 06 01 02 	addi	a3, sp, 32
   21b8c:	93 97 27 00 	slli	a5, a5, 2
   21b90:	b3 87 f6 00 	add	a5, a3, a5
   21b94:	83 26 c1 01 	lw	a3, 28(sp)
   21b98:	33 d7 e6 00 	srl	a4, a3, a4
   21b9c:	23 a8 e7 fe 	sw	a4, -16(a5)
   21ba0:	13 07 40 00 	addi	a4, zero, 4
   21ba4:	33 07 a7 40 	sub	a4, a4, a0
   21ba8:	6f f0 5f f8 	j	-124
   21bac:	03 a6 c6 ff 	lw	a2, -4(a3)
   21bb0:	03 af 06 00 	lw	t5, 0(a3)
   21bb4:	93 1e 28 00 	slli	t4, a6, 2
   21bb8:	33 56 e6 00 	srl	a2, a2, a4
   21bbc:	33 1f 1f 01 	sll	t5, t5, a7
   21bc0:	b3 0e d3 01 	add	t4, t1, t4
   21bc4:	33 66 e6 01 	or	a2, a2, t5
   21bc8:	23 a0 ce 00 	sw	a2, 0(t4)
   21bcc:	13 08 18 00 	addi	a6, a6, 1
   21bd0:	6f f0 1f fb 	j	-80
   21bd4:	03 26 41 01 	lw	a2, 20(sp)
   21bd8:	83 27 81 01 	lw	a5, 24(sp)
   21bdc:	03 28 c1 01 	lw	a6, 28(sp)
   21be0:	b3 66 f6 00 	or	a3, a2, a5
   21be4:	b3 e6 06 01 	or	a3, a3, a6
   21be8:	b3 e6 a6 00 	or	a3, a3, a0
   21bec:	63 18 07 00 	bnez	a4, 16
   21bf0:	b3 36 d0 00 	snez	a3, a3
   21bf4:	93 07 00 00 	mv	a5, zero
   21bf8:	6f f0 9f e8 	j	-376
   21bfc:	63 8c 06 0a 	beqz	a3, 184
   21c00:	93 56 c6 01 	srli	a3, a2, 28
   21c04:	13 18 48 00 	slli	a6, a6, 4
   21c08:	13 96 47 00 	slli	a2, a5, 4
   21c0c:	93 d7 c7 01 	srli	a5, a5, 28
   21c10:	37 07 40 00 	lui	a4, 1024
   21c14:	b3 e6 c6 00 	or	a3, a3, a2
   21c18:	b3 e7 07 01 	or	a5, a5, a6
   21c1c:	b3 e7 e7 00 	or	a5, a5, a4
   21c20:	93 f6 86 ff 	andi	a3, a3, -8
   21c24:	13 07 f0 7f 	addi	a4, zero, 2047
   21c28:	6f f0 9f e5 	j	-424
   21c2c:	93 07 00 00 	mv	a5, zero
   21c30:	93 06 00 00 	mv	a3, zero
   21c34:	13 07 f0 7f 	addi	a4, zero, 2047
   21c38:	13 96 87 00 	slli	a2, a5, 8
   21c3c:	63 5e 06 00 	bgez	a2, 28
   21c40:	13 07 17 00 	addi	a4, a4, 1
   21c44:	13 06 f0 7f 	addi	a2, zero, 2047
   21c48:	63 0a c7 06 	beq	a4, a2, 116
   21c4c:	37 06 80 ff 	lui	a2, 1046528
   21c50:	13 06 f6 ff 	addi	a2, a2, -1
   21c54:	b3 f7 c7 00 	and	a5, a5, a2
   21c58:	13 96 d7 01 	slli	a2, a5, 29
   21c5c:	93 d6 36 00 	srli	a3, a3, 3
   21c60:	b3 66 d6 00 	or	a3, a2, a3
   21c64:	13 06 f0 7f 	addi	a2, zero, 2047
   21c68:	93 d7 37 00 	srli	a5, a5, 3
   21c6c:	63 1e c7 00 	bne	a4, a2, 28
   21c70:	b3 e6 f6 00 	or	a3, a3, a5
   21c74:	93 07 00 00 	mv	a5, zero
   21c78:	63 88 06 00 	beqz	a3, 16
   21c7c:	b7 07 08 00 	lui	a5, 128
   21c80:	93 06 00 00 	mv	a3, zero
   21c84:	93 05 00 00 	mv	a1, zero
   21c88:	93 97 c7 00 	slli	a5, a5, 12
   21c8c:	13 77 f7 7f 	andi	a4, a4, 2047
   21c90:	13 17 47 01 	slli	a4, a4, 20
   21c94:	93 d7 c7 00 	srli	a5, a5, 12
   21c98:	93 95 f5 01 	slli	a1, a1, 31
   21c9c:	b3 e7 e7 00 	or	a5, a5, a4
   21ca0:	33 e7 b7 00 	or	a4, a5, a1
   21ca4:	13 85 06 00 	mv	a0, a3
   21ca8:	93 05 07 00 	mv	a1, a4
   21cac:	13 01 01 02 	addi	sp, sp, 32
   21cb0:	67 80 00 00 	ret
   21cb4:	93 07 00 00 	mv	a5, zero
   21cb8:	6f f0 df f7 	j	-132
   21cbc:	93 07 00 00 	mv	a5, zero
   21cc0:	93 06 00 00 	mv	a3, zero
   21cc4:	6f f0 5f f9 	j	-108

__mulsi3:
   21cc8:	13 06 05 00 	mv	a2, a0
   21ccc:	13 05 00 00 	mv	a0, zero
   21cd0:	93 f6 15 00 	andi	a3, a1, 1
   21cd4:	63 84 06 00 	beqz	a3, 8
   21cd8:	33 05 c5 00 	add	a0, a0, a2
   21cdc:	93 d5 15 00 	srli	a1, a1, 1
   21ce0:	13 16 16 00 	slli	a2, a2, 1
   21ce4:	e3 96 05 fe 	bnez	a1, -20
   21ce8:	67 80 00 00 	ret

__divsi3:
   21cec:	63 40 05 06 	bltz	a0, 96
   21cf0:	63 c6 05 06 	bltz	a1, 108

__udivsi3:
   21cf4:	13 86 05 00 	mv	a2, a1
   21cf8:	93 05 05 00 	mv	a1, a0
   21cfc:	13 05 f0 ff 	addi	a0, zero, -1
   21d00:	63 0c 06 02 	beqz	a2, 56
   21d04:	93 06 10 00 	addi	a3, zero, 1
   21d08:	63 7a b6 00 	bgeu	a2, a1, 20
   21d0c:	63 58 c0 00 	blez	a2, 16
   21d10:	13 16 16 00 	slli	a2, a2, 1
   21d14:	93 96 16 00 	slli	a3, a3, 1
   21d18:	e3 6a b6 fe 	bltu	a2, a1, -12
   21d1c:	13 05 00 00 	mv	a0, zero
   21d20:	63 e6 c5 00 	bltu	a1, a2, 12
   21d24:	b3 85 c5 40 	sub	a1, a1, a2
   21d28:	33 65 d5 00 	or	a0, a0, a3
   21d2c:	93 d6 16 00 	srli	a3, a3, 1
   21d30:	13 56 16 00 	srli	a2, a2, 1
   21d34:	e3 96 06 fe 	bnez	a3, -20
   21d38:	67 80 00 00 	ret

__umodsi3:
   21d3c:	93 82 00 00 	mv	t0, ra
   21d40:	ef f0 5f fb 	jal	-76
   21d44:	13 85 05 00 	mv	a0, a1
   21d48:	67 80 02 00 	jr	t0
   21d4c:	33 05 a0 40 	neg	a0, a0
   21d50:	63 d8 05 00 	bgez	a1, 16
   21d54:	b3 05 b0 40 	neg	a1, a1
   21d58:	6f f0 df f9 	j	-100
   21d5c:	b3 05 b0 40 	neg	a1, a1
   21d60:	93 82 00 00 	mv	t0, ra
   21d64:	ef f0 1f f9 	jal	-112
   21d68:	33 05 a0 40 	neg	a0, a0
   21d6c:	67 80 02 00 	jr	t0

__modsi3:
   21d70:	93 82 00 00 	mv	t0, ra
   21d74:	63 ca 05 00 	bltz	a1, 20
   21d78:	63 4c 05 00 	bltz	a0, 24
   21d7c:	ef f0 9f f7 	jal	-136
   21d80:	13 85 05 00 	mv	a0, a1
   21d84:	67 80 02 00 	jr	t0
   21d88:	b3 05 b0 40 	neg	a1, a1
   21d8c:	e3 58 05 fe 	bgez	a0, -16
   21d90:	33 05 a0 40 	neg	a0, a0
   21d94:	ef f0 1f f6 	jal	-160
   21d98:	33 05 b0 40 	neg	a0, a1
   21d9c:	67 80 02 00 	jr	t0

__clzsi2:
   21da0:	b7 07 01 00 	lui	a5, 16
   21da4:	63 7a f5 02 	bgeu	a0, a5, 52
   21da8:	93 07 f0 0f 	addi	a5, zero, 255
   21dac:	b3 b7 a7 00 	sltu	a5, a5, a0
   21db0:	93 97 37 00 	slli	a5, a5, 3
   21db4:	13 07 00 02 	addi	a4, zero, 32
   21db8:	33 07 f7 40 	sub	a4, a4, a5
   21dbc:	b3 57 f5 00 	srl	a5, a0, a5
   21dc0:	37 35 02 00 	lui	a0, 35
   21dc4:	13 05 c5 a0 	addi	a0, a0, -1524
   21dc8:	b3 87 a7 00 	add	a5, a5, a0
   21dcc:	03 c5 07 00 	lbu	a0, 0(a5)
   21dd0:	33 05 a7 40 	sub	a0, a4, a0
   21dd4:	67 80 00 00 	ret
   21dd8:	37 07 00 01 	lui	a4, 4096
   21ddc:	93 07 00 01 	addi	a5, zero, 16
   21de0:	e3 6a e5 fc 	bltu	a0, a4, -44
   21de4:	93 07 80 01 	addi	a5, zero, 24
   21de8:	6f f0 df fc 	j	-52
